                        .module max6675.c
                        .area text(rom, con, rel)
 0000                   .dbfile max6675.c
 0000                   .dbfile E:\ICCDemo\Temp_Control\temp_control\max6675.c
 0000                   .dbfunc e readTemp_1 _readTemp_1 fV
 0000           ;              i -> R20,R21
                        .even
 0000           _readTemp_1::
 0000 4A93              st -y,R20
 0002 5A93              st -y,R21
 0004                   .dbline -1
 0004                   .dbline 24
 0004           ; #include<iom128v.h>
 0004           ; #include "max6675.h"
 0004           ; #include "main.h"
 0004           ; #include "delay.h"
 0004           ; #define sck_h_1 PORTE|=(1<<PE3) 
 0004           ; #define sck_l_1 PORTE&=~(1<<PE3) 
 0004           ; #define cs_h_1 PORTE|=1<<PE4 
 0004           ; #define cs_l_1 PORTE&=~(1<<PE4) 
 0004           ; 
 0004           ; #define sck_h_2 PORTE|=(1<<PE6) 
 0004           ; #define sck_l_2 PORTE&=~(1<<PE6) 
 0004           ; #define cs_h_2 PORTE|=1<<PE7 
 0004           ; #define cs_l_2 PORTE&=~(1<<PE7) 
 0004           ; 
 0004           ; #define sck_h_3 PORTF|=(1<<PF1) 
 0004           ; #define sck_l_3 PORTF&=~(1<<PF1) 
 0004           ; #define cs_h_3 PORTF|=1<<PF2 
 0004           ; #define cs_l_3 PORTF&=~(1<<PF2) 
 0004           ; 
 0004           ; #define sck_h_4 PORTF|=(1<<PF4) 
 0004           ; #define sck_l_4 PORTF&=~(1<<PF4) 
 0004           ; #define cs_h_4 PORTF|=1<<PF5 
 0004           ; #define cs_l_4 PORTF&=~(1<<PF5) 
 0004           ; void readTemp_1(void){
 0004                   .dbline 26
 0004           ;          uint i;
 0004           ;          sck_h_1;
 0004 1B9A              sbi 0x3,3
 0006                   .dbline 27
 0006           ;          cs_h_1;
 0006 1C9A              sbi 0x3,4
 0008                   .dbline 28
 0008           ;          delay_us(1);
 0008 01E0              ldi R16,1
 000A 10E0              ldi R17,0
 000C 0E940000          xcall _delay_us
 0010                   .dbline 29
 0010           ;          cs_l_1;
 0010 1C98              cbi 0x3,4
 0012                   .dbline 30
 0012           ;          delay_us(1);
 0012 01E0              ldi R16,1
 0014 10E0              ldi R17,0
 0016 0E940000          xcall _delay_us
 001A                   .dbline 31
 001A           ;          sck_l_1;
 001A 1B98              cbi 0x3,3
 001C                   .dbline 32
 001C           ;          delay_us(1);
 001C 01E0              ldi R16,1
 001E 10E0              ldi R17,0
 0020 0E940000          xcall _delay_us
 0024                   .dbline 33
 0024           ;          sck_h_1;
 0024 1B9A              sbi 0x3,3
 0026                   .dbline 34
 0026           ;         for(i=0;i<8;i++){
 0026 4427              clr R20
 0028 5527              clr R21
 002A 24C0              xjmp L5
 002C           L2:
 002C                   .dbline 34
 002C                   .dbline 35
 002C           ;                       sck_l_1;
 002C 1B98              cbi 0x3,3
 002E                   .dbline 36
 002E           ;                       delay_us(1);
 002E 01E0              ldi R16,1
 0030 10E0              ldi R17,0
 0032 0E940000          xcall _delay_us
 0036                   .dbline 37
 0036           ;                       temp_h=temp_h<<1;
 0036 20900000          lds R2,_temp_h
 003A 30900100          lds R3,_temp_h+1
 003E 220C              lsl R2
 0040 331C              rol R3
 0042 30920100          sts _temp_h+1,R3
 0046 20920000          sts _temp_h,R2
 004A                   .dbline 38
 004A           ;               temp_h=temp_h|((PINE&0x04)>>2);
 004A 81B1              in R24,0x1
 004C 9927              clr R25
 004E 8470              andi R24,4
 0050 9070              andi R25,0
 0052 9595              asr R25
 0054 8795              ror R24
 0056 9595              asr R25
 0058 8795              ror R24
 005A 282A              or R2,R24
 005C 392A              or R3,R25
 005E 30920100          sts _temp_h+1,R3
 0062 20920000          sts _temp_h,R2
 0066                   .dbline 39
 0066           ;                       sck_h_1;
 0066 1B9A              sbi 0x3,3
 0068                   .dbline 40
 0068           ;                       delay_us(1);
 0068 01E0              ldi R16,1
 006A 10E0              ldi R17,0
 006C 0E940000          xcall _delay_us
 0070                   .dbline 42
 0070           ;                       
 0070           ;          }
 0070           L3:
 0070                   .dbline 34
 0070 4F5F              subi R20,255  ; offset = 1
 0072 5F4F              sbci R21,255
 0074           L5:
 0074                   .dbline 34
 0074 4830              cpi R20,8
 0076 E0E0              ldi R30,0
 0078 5E07              cpc R21,R30
 007A C0F2              brlo L2
 007C           X0:
 007C                   .dbline 43
 007C           ;          for(i=0;i<8;i++){
 007C 4427              clr R20
 007E 5527              clr R21
 0080 24C0              xjmp L9
 0082           L6:
 0082                   .dbline 43
 0082                   .dbline 44
 0082           ;                       sck_l_1;
 0082 1B98              cbi 0x3,3
 0084                   .dbline 45
 0084           ;                       delay_us(1);
 0084 01E0              ldi R16,1
 0086 10E0              ldi R17,0
 0088 0E940000          xcall _delay_us
 008C                   .dbline 46
 008C           ;                       temp_l<<=1;
 008C 20900000          lds R2,_temp_l
 0090 30900100          lds R3,_temp_l+1
 0094 220C              lsl R2
 0096 331C              rol R3
 0098 30920100          sts _temp_l+1,R3
 009C 20920000          sts _temp_l,R2
 00A0                   .dbline 47
 00A0           ;               temp_l=temp_l|((PINE&0x04)>>2);
 00A0 81B1              in R24,0x1
 00A2 9927              clr R25
 00A4 8470              andi R24,4
 00A6 9070              andi R25,0
 00A8 9595              asr R25
 00AA 8795              ror R24
 00AC 9595              asr R25
 00AE 8795              ror R24
 00B0 282A              or R2,R24
 00B2 392A              or R3,R25
 00B4 30920100          sts _temp_l+1,R3
 00B8 20920000          sts _temp_l,R2
 00BC                   .dbline 48
 00BC           ;                       sck_h_1;
 00BC 1B9A              sbi 0x3,3
 00BE                   .dbline 49
 00BE           ;                       delay_us(1);
 00BE 01E0              ldi R16,1
 00C0 10E0              ldi R17,0
 00C2 0E940000          xcall _delay_us
 00C6                   .dbline 50
 00C6           ;          }
 00C6           L7:
 00C6                   .dbline 43
 00C6 4F5F              subi R20,255  ; offset = 1
 00C8 5F4F              sbci R21,255
 00CA           L9:
 00CA                   .dbline 43
 00CA 4830              cpi R20,8
 00CC E0E0              ldi R30,0
 00CE 5E07              cpc R21,R30
 00D0 C0F2              brlo L6
 00D2           X1:
 00D2                   .dbline 51
 00D2           ;           cs_h_1;
 00D2 1C9A              sbi 0x3,4
 00D4                   .dbline 52
 00D4           ;          delay_us(10);
 00D4 0AE0              ldi R16,10
 00D6 10E0              ldi R17,0
 00D8 0E940000          xcall _delay_us
 00DC                   .dbline 54
 00DC           ;         // temp_l=0x55;
 00DC           ;          return ;
 00DC                   .dbline -2
 00DC           L1:
 00DC                   .dbline 0 ; func end
 00DC 5991              ld R21,y+
 00DE 4991              ld R20,y+
 00E0 0895              ret
 00E2                   .dbsym r i 20 i
 00E2                   .dbend
 00E2                   .dbfunc e readTemp_2 _readTemp_2 fV
 00E2           ;              i -> R20,R21
                        .even
 00E2           _readTemp_2::
 00E2 4A93              st -y,R20
 00E4 5A93              st -y,R21
 00E6                   .dbline -1
 00E6                   .dbline 56
 00E6           ; }
 00E6           ; void readTemp_2(void){
 00E6                   .dbline 58
 00E6           ;          uint i;
 00E6           ;          sck_h_2;
 00E6 1E9A              sbi 0x3,6
 00E8                   .dbline 59
 00E8           ;          cs_h_2;
 00E8 1F9A              sbi 0x3,7
 00EA                   .dbline 60
 00EA           ;          delay_us(1);
 00EA 01E0              ldi R16,1
 00EC 10E0              ldi R17,0
 00EE 0E940000          xcall _delay_us
 00F2                   .dbline 61
 00F2           ;          cs_l_2;
 00F2 1F98              cbi 0x3,7
 00F4                   .dbline 62
 00F4           ;          delay_us(1);
 00F4 01E0              ldi R16,1
 00F6 10E0              ldi R17,0
 00F8 0E940000          xcall _delay_us
 00FC                   .dbline 63
 00FC           ;          sck_l_2;
 00FC 1E98              cbi 0x3,6
 00FE                   .dbline 64
 00FE           ;          delay_us(1);
 00FE 01E0              ldi R16,1
 0100 10E0              ldi R17,0
 0102 0E940000          xcall _delay_us
 0106                   .dbline 65
 0106           ;          sck_h_2;
 0106 1E9A              sbi 0x3,6
 0108                   .dbline 66
 0108           ;         for(i=0;i<8;i++){
 0108 4427              clr R20
 010A 5527              clr R21
 010C 28C0              xjmp L14
 010E           L11:
 010E                   .dbline 66
 010E                   .dbline 67
 010E           ;                       sck_l_2;
 010E 1E98              cbi 0x3,6
 0110                   .dbline 68
 0110           ;                       delay_us(1);
 0110 01E0              ldi R16,1
 0112 10E0              ldi R17,0
 0114 0E940000          xcall _delay_us
 0118                   .dbline 69
 0118           ;                       temp_h=temp_h<<1;
 0118 20900000          lds R2,_temp_h
 011C 30900100          lds R3,_temp_h+1
 0120 220C              lsl R2
 0122 331C              rol R3
 0124 30920100          sts _temp_h+1,R3
 0128 20920000          sts _temp_h,R2
 012C                   .dbline 70
 012C           ;               temp_h=temp_h|((PINE&0x20)>>5);
 012C 25E0              ldi R18,5
 012E 30E0              ldi R19,0
 0130 01B1              in R16,0x1
 0132 1127              clr R17
 0134 0072              andi R16,32
 0136 1070              andi R17,0
 0138 0E940000          xcall asr16
 013C 20900000          lds R2,_temp_h
 0140 30900100          lds R3,_temp_h+1
 0144 202A              or R2,R16
 0146 312A              or R3,R17
 0148 30920100          sts _temp_h+1,R3
 014C 20920000          sts _temp_h,R2
 0150                   .dbline 71
 0150           ;                       sck_h_2;
 0150 1E9A              sbi 0x3,6
 0152                   .dbline 72
 0152           ;                       delay_us(1);
 0152 01E0              ldi R16,1
 0154 10E0              ldi R17,0
 0156 0E940000          xcall _delay_us
 015A                   .dbline 74
 015A           ;                       
 015A           ;          }
 015A           L12:
 015A                   .dbline 66
 015A 4F5F              subi R20,255  ; offset = 1
 015C 5F4F              sbci R21,255
 015E           L14:
 015E                   .dbline 66
 015E 4830              cpi R20,8
 0160 E0E0              ldi R30,0
 0162 5E07              cpc R21,R30
 0164 A0F2              brlo L11
 0166           X2:
 0166                   .dbline 75
 0166           ;          for(i=0;i<8;i++){
 0166 4427              clr R20
 0168 5527              clr R21
 016A 28C0              xjmp L18
 016C           L15:
 016C                   .dbline 75
 016C                   .dbline 76
 016C           ;                       sck_l_2;
 016C 1E98              cbi 0x3,6
 016E                   .dbline 77
 016E           ;                       delay_us(1);
 016E 01E0              ldi R16,1
 0170 10E0              ldi R17,0
 0172 0E940000          xcall _delay_us
 0176                   .dbline 78
 0176           ;                       temp_l<<=1;
 0176 20900000          lds R2,_temp_l
 017A 30900100          lds R3,_temp_l+1
 017E 220C              lsl R2
 0180 331C              rol R3
 0182 30920100          sts _temp_l+1,R3
 0186 20920000          sts _temp_l,R2
 018A                   .dbline 79
 018A           ;               temp_l=temp_l|((PINE&0x20)>>5);
 018A 25E0              ldi R18,5
 018C 30E0              ldi R19,0
 018E 01B1              in R16,0x1
 0190 1127              clr R17
 0192 0072              andi R16,32
 0194 1070              andi R17,0
 0196 0E940000          xcall asr16
 019A 20900000          lds R2,_temp_l
 019E 30900100          lds R3,_temp_l+1
 01A2 202A              or R2,R16
 01A4 312A              or R3,R17
 01A6 30920100          sts _temp_l+1,R3
 01AA 20920000          sts _temp_l,R2
 01AE                   .dbline 80
 01AE           ;                       sck_h_2;
 01AE 1E9A              sbi 0x3,6
 01B0                   .dbline 81
 01B0           ;                       delay_us(1);
 01B0 01E0              ldi R16,1
 01B2 10E0              ldi R17,0
 01B4 0E940000          xcall _delay_us
 01B8                   .dbline 82
 01B8           ;          }
 01B8           L16:
 01B8                   .dbline 75
 01B8 4F5F              subi R20,255  ; offset = 1
 01BA 5F4F              sbci R21,255
 01BC           L18:
 01BC                   .dbline 75
 01BC 4830              cpi R20,8
 01BE E0E0              ldi R30,0
 01C0 5E07              cpc R21,R30
 01C2 A0F2              brlo L15
 01C4           X3:
 01C4                   .dbline 83
 01C4           ;           cs_h_2;
 01C4 1F9A              sbi 0x3,7
 01C6                   .dbline 84
 01C6           ;          delay_us(10);
 01C6 0AE0              ldi R16,10
 01C8 10E0              ldi R17,0
 01CA 0E940000          xcall _delay_us
 01CE                   .dbline 86
 01CE           ;         // temp_l=0x55;
 01CE           ;          return ;
 01CE                   .dbline -2
 01CE           L10:
 01CE                   .dbline 0 ; func end
 01CE 5991              ld R21,y+
 01D0 4991              ld R20,y+
 01D2 0895              ret
 01D4                   .dbsym r i 20 i
 01D4                   .dbend
 01D4                   .dbfunc e readTemp_3 _readTemp_3 fV
 01D4           ;              i -> R20,R21
                        .even
 01D4           _readTemp_3::
 01D4 4A93              st -y,R20
 01D6 5A93              st -y,R21
 01D8                   .dbline -1
 01D8                   .dbline 88
 01D8           ; }
 01D8           ; void readTemp_3(void){
 01D8                   .dbline 90
 01D8           ;          uint i;
 01D8           ;          sck_h_3;
 01D8 80916200          lds R24,98
 01DC 8260              ori R24,2
 01DE 80936200          sts 98,R24
 01E2                   .dbline 91
 01E2           ;          cs_h_3;
 01E2 80916200          lds R24,98
 01E6 8460              ori R24,4
 01E8 80936200          sts 98,R24
 01EC                   .dbline 92
 01EC           ;          delay_us(1);
 01EC 01E0              ldi R16,1
 01EE 10E0              ldi R17,0
 01F0 0E940000          xcall _delay_us
 01F4                   .dbline 93
 01F4           ;          cs_l_3;
 01F4 80916200          lds R24,98
 01F8 8B7F              andi R24,251
 01FA 80936200          sts 98,R24
 01FE                   .dbline 94
 01FE           ;          delay_us(1);
 01FE 01E0              ldi R16,1
 0200 10E0              ldi R17,0
 0202 0E940000          xcall _delay_us
 0206                   .dbline 95
 0206           ;          sck_l_3;
 0206 80916200          lds R24,98
 020A 8D7F              andi R24,253
 020C 80936200          sts 98,R24
 0210                   .dbline 96
 0210           ;          delay_us(1);
 0210 01E0              ldi R16,1
 0212 10E0              ldi R17,0
 0214 0E940000          xcall _delay_us
 0218                   .dbline 97
 0218           ;          sck_h_3;
 0218 80916200          lds R24,98
 021C 8260              ori R24,2
 021E 80936200          sts 98,R24
 0222                   .dbline 98
 0222           ;         for(i=0;i<8;i++){
 0222 4427              clr R20
 0224 5527              clr R21
 0226 28C0              xjmp L23
 0228           L20:
 0228                   .dbline 98
 0228                   .dbline 99
 0228           ;                       sck_l_3;
 0228 80916200          lds R24,98
 022C 8D7F              andi R24,253
 022E 80936200          sts 98,R24
 0232                   .dbline 100
 0232           ;                       delay_us(1);
 0232 01E0              ldi R16,1
 0234 10E0              ldi R17,0
 0236 0E940000          xcall _delay_us
 023A                   .dbline 101
 023A           ;                       temp_h=temp_h<<1;
 023A 20900000          lds R2,_temp_h
 023E 30900100          lds R3,_temp_h+1
 0242 220C              lsl R2
 0244 331C              rol R3
 0246 30920100          sts _temp_h+1,R3
 024A 20920000          sts _temp_h,R2
 024E                   .dbline 102
 024E           ;               temp_h=temp_h|(PINF&0x01);
 024E 80B1              in R24,0x0
 0250 9927              clr R25
 0252 8170              andi R24,1
 0254 9070              andi R25,0
 0256 282A              or R2,R24
 0258 392A              or R3,R25
 025A 30920100          sts _temp_h+1,R3
 025E 20920000          sts _temp_h,R2
 0262                   .dbline 103
 0262           ;                       sck_h_3;
 0262 80916200          lds R24,98
 0266 8260              ori R24,2
 0268 80936200          sts 98,R24
 026C                   .dbline 104
 026C           ;                       delay_us(1);
 026C 01E0              ldi R16,1
 026E 10E0              ldi R17,0
 0270 0E940000          xcall _delay_us
 0274                   .dbline 106
 0274           ;                       
 0274           ;          }
 0274           L21:
 0274                   .dbline 98
 0274 4F5F              subi R20,255  ; offset = 1
 0276 5F4F              sbci R21,255
 0278           L23:
 0278                   .dbline 98
 0278 4830              cpi R20,8
 027A E0E0              ldi R30,0
 027C 5E07              cpc R21,R30
 027E A0F2              brlo L20
 0280           X4:
 0280                   .dbline 107
 0280           ;          for(i=0;i<8;i++){
 0280 4427              clr R20
 0282 5527              clr R21
 0284 28C0              xjmp L27
 0286           L24:
 0286                   .dbline 107
 0286                   .dbline 108
 0286           ;                       sck_l_3;
 0286 80916200          lds R24,98
 028A 8D7F              andi R24,253
 028C 80936200          sts 98,R24
 0290                   .dbline 109
 0290           ;                       delay_us(1);
 0290 01E0              ldi R16,1
 0292 10E0              ldi R17,0
 0294 0E940000          xcall _delay_us
 0298                   .dbline 110
 0298           ;                       temp_l<<=1;
 0298 20900000          lds R2,_temp_l
 029C 30900100          lds R3,_temp_l+1
 02A0 220C              lsl R2
 02A2 331C              rol R3
 02A4 30920100          sts _temp_l+1,R3
 02A8 20920000          sts _temp_l,R2
 02AC                   .dbline 111
 02AC           ;               temp_l=temp_l|(PINF&0x01);
 02AC 80B1              in R24,0x0
 02AE 9927              clr R25
 02B0 8170              andi R24,1
 02B2 9070              andi R25,0
 02B4 282A              or R2,R24
 02B6 392A              or R3,R25
 02B8 30920100          sts _temp_l+1,R3
 02BC 20920000          sts _temp_l,R2
 02C0                   .dbline 112
 02C0           ;                       sck_h_3;
 02C0 80916200          lds R24,98
 02C4 8260              ori R24,2
 02C6 80936200          sts 98,R24
 02CA                   .dbline 113
 02CA           ;                       delay_us(1);
 02CA 01E0              ldi R16,1
 02CC 10E0              ldi R17,0
 02CE 0E940000          xcall _delay_us
 02D2                   .dbline 114
 02D2           ;          }
 02D2           L25:
 02D2                   .dbline 107
 02D2 4F5F              subi R20,255  ; offset = 1
 02D4 5F4F              sbci R21,255
 02D6           L27:
 02D6                   .dbline 107
 02D6 4830              cpi R20,8
 02D8 E0E0              ldi R30,0
 02DA 5E07              cpc R21,R30
 02DC A0F2              brlo L24
 02DE           X5:
 02DE                   .dbline 115
 02DE           ;           cs_h_3;
 02DE 80916200          lds R24,98
 02E2 8460              ori R24,4
 02E4 80936200          sts 98,R24
 02E8                   .dbline 116
 02E8           ;          delay_us(10);
 02E8 0AE0              ldi R16,10
 02EA 10E0              ldi R17,0
 02EC 0E940000          xcall _delay_us
 02F0                   .dbline 118
 02F0           ;         // temp_l=0x55;
 02F0           ;          return ;
 02F0                   .dbline -2
 02F0           L19:
 02F0                   .dbline 0 ; func end
 02F0 5991              ld R21,y+
 02F2 4991              ld R20,y+
 02F4 0895              ret
 02F6                   .dbsym r i 20 i
 02F6                   .dbend
 02F6                   .dbfunc e readTemp_4 _readTemp_4 fV
 02F6           ;              i -> R20,R21
                        .even
 02F6           _readTemp_4::
 02F6 4A93              st -y,R20
 02F8 5A93              st -y,R21
 02FA                   .dbline -1
 02FA                   .dbline 120
 02FA           ; }
 02FA           ; void readTemp_4(void){
 02FA                   .dbline 122
 02FA           ;         uint i;
 02FA           ;          sck_h_4;
 02FA 80916200          lds R24,98
 02FE 8061              ori R24,16
 0300 80936200          sts 98,R24
 0304                   .dbline 123
 0304           ;          cs_h_4;
 0304 80916200          lds R24,98
 0308 8062              ori R24,32
 030A 80936200          sts 98,R24
 030E                   .dbline 124
 030E           ;          delay_us(1);
 030E 01E0              ldi R16,1
 0310 10E0              ldi R17,0
 0312 0E940000          xcall _delay_us
 0316                   .dbline 125
 0316           ;          cs_l_4;
 0316 80916200          lds R24,98
 031A 8F7D              andi R24,223
 031C 80936200          sts 98,R24
 0320                   .dbline 126
 0320           ;          delay_us(1);
 0320 01E0              ldi R16,1
 0322 10E0              ldi R17,0
 0324 0E940000          xcall _delay_us
 0328                   .dbline 127
 0328           ;          sck_l_4;
 0328 80916200          lds R24,98
 032C 8F7E              andi R24,239
 032E 80936200          sts 98,R24
 0332                   .dbline 128
 0332           ;          delay_us(1);
 0332 01E0              ldi R16,1
 0334 10E0              ldi R17,0
 0336 0E940000          xcall _delay_us
 033A                   .dbline 129
 033A           ;          sck_h_4;
 033A 80916200          lds R24,98
 033E 8061              ori R24,16
 0340 80936200          sts 98,R24
 0344                   .dbline 130
 0344           ;         for(i=0;i<8;i++){
 0344 4427              clr R20
 0346 5527              clr R21
 0348 33C0              xjmp L32
 034A           L29:
 034A                   .dbline 130
 034A                   .dbline 131
 034A           ;                       sck_l_4;
 034A 80916200          lds R24,98
 034E 8F7E              andi R24,239
 0350 80936200          sts 98,R24
 0354                   .dbline 132
 0354           ;                       delay_us(1);
 0354 01E0              ldi R16,1
 0356 10E0              ldi R17,0
 0358 0E940000          xcall _delay_us
 035C                   .dbline 133
 035C           ;                       temp_h=temp_h<<1;
 035C 20900000          lds R2,_temp_h
 0360 30900100          lds R3,_temp_h+1
 0364 220C              lsl R2
 0366 331C              rol R3
 0368 30920100          sts _temp_h+1,R3
 036C 20920000          sts _temp_h,R2
 0370                   .dbline 134
 0370           ;               temp_h=temp_h|((PINE&0x08)>>3);
 0370 81B1              in R24,0x1
 0372 9927              clr R25
 0374 8870              andi R24,8
 0376 9070              andi R25,0
 0378 1C01              movw R2,R24
 037A 3594              asr R3
 037C 2794              ror R2
 037E 3594              asr R3
 0380 2794              ror R2
 0382 3594              asr R3
 0384 2794              ror R2
 0386 40900000          lds R4,_temp_h
 038A 50900100          lds R5,_temp_h+1
 038E 4228              or R4,R2
 0390 5328              or R5,R3
 0392 50920100          sts _temp_h+1,R5
 0396 40920000          sts _temp_h,R4
 039A                   .dbline 135
 039A           ;                       sck_h_4;
 039A 80916200          lds R24,98
 039E 8061              ori R24,16
 03A0 80936200          sts 98,R24
 03A4                   .dbline 136
 03A4           ;                       delay_us(1);
 03A4 01E0              ldi R16,1
 03A6 10E0              ldi R17,0
 03A8 0E940000          xcall _delay_us
 03AC                   .dbline 138
 03AC           ;                       
 03AC           ;          }
 03AC           L30:
 03AC                   .dbline 130
 03AC 4F5F              subi R20,255  ; offset = 1
 03AE 5F4F              sbci R21,255
 03B0           L32:
 03B0                   .dbline 130
 03B0 4830              cpi R20,8
 03B2 E0E0              ldi R30,0
 03B4 5E07              cpc R21,R30
 03B6 48F2              brlo L29
 03B8           X6:
 03B8                   .dbline 139
 03B8           ;          for(i=0;i<8;i++){
 03B8 4427              clr R20
 03BA 5527              clr R21
 03BC 33C0              xjmp L36
 03BE           L33:
 03BE                   .dbline 139
 03BE                   .dbline 140
 03BE           ;                       sck_l_4;
 03BE 80916200          lds R24,98
 03C2 8F7E              andi R24,239
 03C4 80936200          sts 98,R24
 03C8                   .dbline 141
 03C8           ;                       delay_us(1);
 03C8 01E0              ldi R16,1
 03CA 10E0              ldi R17,0
 03CC 0E940000          xcall _delay_us
 03D0                   .dbline 142
 03D0           ;                       temp_l<<=1;
 03D0 20900000          lds R2,_temp_l
 03D4 30900100          lds R3,_temp_l+1
 03D8 220C              lsl R2
 03DA 331C              rol R3
 03DC 30920100          sts _temp_l+1,R3
 03E0 20920000          sts _temp_l,R2
 03E4                   .dbline 143
 03E4           ;               temp_l=temp_l|((PINE&0x08)>>3);
 03E4 81B1              in R24,0x1
 03E6 9927              clr R25
 03E8 8870              andi R24,8
 03EA 9070              andi R25,0
 03EC 1C01              movw R2,R24
 03EE 3594              asr R3
 03F0 2794              ror R2
 03F2 3594              asr R3
 03F4 2794              ror R2
 03F6 3594              asr R3
 03F8 2794              ror R2
 03FA 40900000          lds R4,_temp_l
 03FE 50900100          lds R5,_temp_l+1
 0402 4228              or R4,R2
 0404 5328              or R5,R3
 0406 50920100          sts _temp_l+1,R5
 040A 40920000          sts _temp_l,R4
 040E                   .dbline 144
 040E           ;                       sck_h_4;
 040E 80916200          lds R24,98
 0412 8061              ori R24,16
 0414 80936200          sts 98,R24
 0418                   .dbline 145
 0418           ;                       delay_us(1);
 0418 01E0              ldi R16,1
 041A 10E0              ldi R17,0
 041C 0E940000          xcall _delay_us
 0420                   .dbline 146
 0420           ;          }
 0420           L34:
 0420                   .dbline 139
 0420 4F5F              subi R20,255  ; offset = 1
 0422 5F4F              sbci R21,255
 0424           L36:
 0424                   .dbline 139
 0424 4830              cpi R20,8
 0426 E0E0              ldi R30,0
 0428 5E07              cpc R21,R30
 042A 48F2              brlo L33
 042C           X7:
 042C                   .dbline 147
 042C           ;           cs_h_4;
 042C 80916200          lds R24,98
 0430 8062              ori R24,32
 0432 80936200          sts 98,R24
 0436                   .dbline 148
 0436           ;          delay_us(10);
 0436 0AE0              ldi R16,10
 0438 10E0              ldi R17,0
 043A 0E940000          xcall _delay_us
 043E                   .dbline 150
 043E           ;         // temp_l=0x55;
 043E           ;          return ;
 043E                   .dbline -2
 043E           L28:
 043E                   .dbline 0 ; func end
 043E 5991              ld R21,y+
 0440 4991              ld R20,y+
 0442 0895              ret
 0444                   .dbsym r i 20 i
 0444                   .dbend
 0444                   .dbfunc e readTemp _readTemp fV
 0444           ;              n -> R20,R21
                        .even
 0444           _readTemp::
 0444 4A93              st -y,R20
 0446 5A93              st -y,R21
 0448 A801              movw R20,R16
 044A                   .dbline -1
 044A                   .dbline 153
 044A           ; }
 044A           ; //传入的int：0、1、2、3对应温度的读取
 044A           ; void readTemp(uint n){
 044A                   .dbline 154
 044A           ;   DDRE=0xDA;
 044A 8AED              ldi R24,218
 044C 82B9              out 0x2,R24
 044E                   .dbline 155
 044E           ;   DDRF=0xF6;
 044E 86EF              ldi R24,246
 0450 80936100          sts 97,R24
 0454                   .dbline 156
 0454           ;   PORTE |=0xFC;
 0454 83B1              in R24,0x3
 0456 8C6F              ori R24,252
 0458 83B9              out 0x3,R24
 045A                   .dbline 157
 045A           ;   PORTF |= 0xFF;
 045A 80916200          lds R24,98
 045E 8F6F              ori R24,255
 0460 80936200          sts 98,R24
 0464                   .dbline 158
 0464           ;    switch(n){
 0464 4030              cpi R20,0
 0466 4507              cpc R20,R21
 0468 69F0              breq L40
 046A           X8:
 046A 4130              cpi R20,1
 046C E0E0              ldi R30,0
 046E 5E07              cpc R21,R30
 0470 59F0              breq L41
 0472           X9:
 0472 4230              cpi R20,2
 0474 E0E0              ldi R30,0
 0476 5E07              cpc R21,R30
 0478 49F0              breq L42
 047A           X10:
 047A 4330              cpi R20,3
 047C E0E0              ldi R30,0
 047E 5E07              cpc R21,R30
 0480 39F0              breq L43
 0482           X11:
 0482 07C0              xjmp L38
 0484           L40:
 0484                   .dbline 160
 0484           ;     case 0:
 0484           ;         readTemp_1();
 0484 BDDD              xcall _readTemp_1
 0486                   .dbline 161
 0486           ;         break;
 0486 05C0              xjmp L39
 0488           L41:
 0488                   .dbline 163
 0488           ;       case 1:
 0488           ;         readTemp_2();
 0488 2CDE              xcall _readTemp_2
 048A                   .dbline 164
 048A           ;         break;
 048A 03C0              xjmp L39
 048C           L42:
 048C                   .dbline 166
 048C           ;       case 2:
 048C           ;         readTemp_3();
 048C A3DE              xcall _readTemp_3
 048E                   .dbline 167
 048E           ;         break;
 048E 01C0              xjmp L39
 0490           L43:
 0490                   .dbline 169
 0490           ;       case 3:
 0490           ;         readTemp_4();
 0490 32DF              xcall _readTemp_4
 0492                   .dbline 170
 0492           ;         break;
 0492           L38:
 0492           L39:
 0492                   .dbline -2
 0492           L37:
 0492                   .dbline 0 ; func end
 0492 5991              ld R21,y+
 0494 4991              ld R20,y+
 0496 0895              ret
 0498                   .dbsym r n 20 i
 0498                   .dbend
 0498           ;    }
 0498           ; }
