                        .module pages.c
                        .area text(rom, con, rel)
 0000                   .dbfile pages.c
 0000                   .dbfile E:\ICCDemo\Temp_Control\temp_control\pages.c
 0000                   .dbfunc e pageTime _pageTime fV
 0000           ;              y -> R10,R11
                        .even
 0000           _pageTime::
 0000 AA92              st -y,R10
 0002 BA92              st -y,R11
 0004 5801              movw R10,R16
 0006 2297              sbiw R28,2
 0008                   .dbline -1
 0008                   .dbline 18
 0008           ; #include<iom128v.h>
 0008           ; #include "main.h"
 0008           ; #include "lcd.h"
 0008           ; #include "time.h"
 0008           ; #include "timertask.h"
 0008           ; #include "key.h"
 0008           ; #include "delay.h"
 0008           ; #include "temp.h"
 0008           ; //************************
 0008           ; // 所有界面信息在这里,用到全局变量， 
 0008           ; // unsigned int pageNum;//当前页面，如需跳转改变这个值就行
 0008           ; // unsigned int pageParam[5];//传递参数。界面间参数暂存
 0008           ; // unsigned int prePageNum;
 0008           ; //************************
 0008           ; 
 0008           ; //用于显第一行日期信息，其中Page1、Page3 、Page8使用，
 0008           ; //由定时器触发该函数，进入这三个界面是启动定时器，退出时关闭
 0008           ; void pageTime(uint y){
 0008                   .dbline 20
 0008           ;                 //关定时器
 0008           ;    lcd_write_str(0,y,"时间:");
 0008 80E0              ldi R24,<L2
 000A 90E0              ldi R25,>L2
 000C 9983              std y+1,R25
 000E 8883              std y+0,R24
 0010 2A2D              mov R18,R10
 0012 0027              clr R16
 0014 0E940000          xcall _lcd_write_str
 0018                   .dbline 21
 0018           ;    showTime_page(y);
 0018 8501              movw R16,R10
 001A 0E940000          xcall _showTime_page
 001E                   .dbline -2
 001E           L1:
 001E                   .dbline 0 ; func end
 001E 2296              adiw R28,2
 0020 B990              ld R11,y+
 0022 A990              ld R10,y+
 0024 0895              ret
 0026                   .dbsym r y 10 i
 0026                   .dbend
 0026                   .dbfunc e pageTime2 _pageTime2 fV
 0026           ;              y -> R10,R11
                        .even
 0026           _pageTime2::
 0026 AA92              st -y,R10
 0028 BA92              st -y,R11
 002A 5801              movw R10,R16
 002C                   .dbline -1
 002C                   .dbline 24
 002C           ;                  //开定时器 
 002C           ; }
 002C           ; void pageTime2(uint y){
 002C                   .dbline 27
 002C           ;                 //关定时器
 002C           ;    //lcd_write_str(0,y,"时间:");
 002C           ;    showTime_page(y);
 002C 8501              movw R16,R10
 002E 0E940000          xcall _showTime_page
 0032                   .dbline -2
 0032           L3:
 0032                   .dbline 0 ; func end
 0032 B990              ld R11,y+
 0034 A990              ld R10,y+
 0036 0895              ret
 0038                   .dbsym r y 10 i
 0038                   .dbend
 0038                   .dbfunc e page1 _page1 fV
 0038           ;            cur -> R20,R21
 0038           ;           keyV -> R10
 0038           ;              y -> R22,R23
 0038           ;              i -> R10,R11
                        .even
 0038           _page1::
 0038 0E940000          xcall push_xgsetF03C
 003C 2297              sbiw R28,2
 003E                   .dbline -1
 003E                   .dbline 31
 003E           ;                  //开定时器 
 003E           ; }
 003E           ; //page1,首页的界面
 003E           ; void page1(void){
 003E                   .dbline 32
 003E           ;    uint cur=0;
 003E                   .dbline 36
 003E           ;    uchar keyV;
 003E           ;    uint i;//用于循环
 003E           ;    uint y;//确定是那个半屏幕
 003E           ;    prePageNum=1;//首页不会再有上一界面，这里设置。虽然违反规则
 003E 81E0              ldi R24,1
 0040 90E0              ldi R25,0
 0042 90930100          sts _prePageNum+1,R25
 0046 80930000          sts _prePageNum,R24
 004A                   .dbline 38
 004A           ;    //初始化起始选择
 004A           ;     lcd_write_str(1,1," T1:");
 004A 80E0              ldi R24,<L5
 004C 90E0              ldi R25,>L5
 004E 9983              std y+1,R25
 0050 8883              std y+0,R24
 0052 21E0              ldi R18,1
 0054 01E0              ldi R16,1
 0056 0E940000          xcall _lcd_write_str
 005A                   .dbline 39
 005A           ;     lcd_write_str(6,1," T2:");
 005A 80E0              ldi R24,<L6
 005C 90E0              ldi R25,>L6
 005E 9983              std y+1,R25
 0060 8883              std y+0,R24
 0062 21E0              ldi R18,1
 0064 06E0              ldi R16,6
 0066 0E940000          xcall _lcd_write_str
 006A                   .dbline 40
 006A           ;     lcd_write_str(1,2," T3:");
 006A 80E0              ldi R24,<L7
 006C 90E0              ldi R25,>L7
 006E 9983              std y+1,R25
 0070 8883              std y+0,R24
 0072 22E0              ldi R18,2
 0074 01E0              ldi R16,1
 0076 0E940000          xcall _lcd_write_str
 007A                   .dbline 41
 007A           ;     lcd_write_str(6,2," T4:");
 007A 80E0              ldi R24,<L8
 007C 90E0              ldi R25,>L8
 007E 9983              std y+1,R25
 0080 8883              std y+0,R24
 0082 22E0              ldi R18,2
 0084 06E0              ldi R16,6
 0086 0E940000          xcall _lcd_write_str
 008A                   .dbline 44
 008A           ; 
 008A           ;       
 008A           ;       lcd_write_str(1,3,"开始    ");
 008A 80E0              ldi R24,<L9
 008C 90E0              ldi R25,>L9
 008E 9983              std y+1,R25
 0090 8883              std y+0,R24
 0092 23E0              ldi R18,3
 0094 01E0              ldi R16,1
 0096 0E940000          xcall _lcd_write_str
 009A                   .dbline 45
 009A           ;     lcd_write_str_con(3,"停止    ");
 009A 20E0              ldi R18,<L10
 009C 30E0              ldi R19,>L10
 009E 03E0              ldi R16,3
 00A0 0E940000          xcall _lcd_write_str_con
 00A4                   .dbline 46
 00A4           ;       lcd_write_str_con(3,"设置");
 00A4 20E0              ldi R18,<L11
 00A6 30E0              ldi R19,>L11
 00A8 03E0              ldi R16,3
 00AA 0E940000          xcall _lcd_write_str_con
 00AE                   .dbline 47
 00AE           ;       lcd_write_str(1,3,"开始    ");
 00AE 80E0              ldi R24,<L9
 00B0 90E0              ldi R25,>L9
 00B2 9983              std y+1,R25
 00B4 8883              std y+0,R24
 00B6 23E0              ldi R18,3
 00B8 01E0              ldi R16,1
 00BA 0E940000          xcall _lcd_write_str
 00BE                   .dbline 48
 00BE           ;     lcd_write_str_con(3,"停止    ");
 00BE 20E0              ldi R18,<L10
 00C0 30E0              ldi R19,>L10
 00C2 03E0              ldi R16,3
 00C4 0E940000          xcall _lcd_write_str_con
 00C8                   .dbline 49
 00C8           ;       lcd_write_str_con(3,"设置"); 
 00C8 20E0              ldi R18,<L11
 00CA 30E0              ldi R19,>L11
 00CC 03E0              ldi R16,3
 00CE 0E940000          xcall _lcd_write_str_con
 00D2                   .dbline 50
 00D2           ;       cur=0;
 00D2 4427              clr R20
 00D4 5527              clr R21
 00D6                   .dbline 51
 00D6           ;       Set_White(2,1,3);
 00D6 83E0              ldi R24,3
 00D8 8883              std y+0,R24
 00DA 21E0              ldi R18,1
 00DC 02E0              ldi R16,2
 00DE 0E940000          xcall _Set_White
 00E2 20C3              xjmp L13
 00E4           L12:
 00E4                   .dbline 52
 00E4           ;       while(1){
 00E4                   .dbline 53
 00E4           ;        pageTime(0);
 00E4 0027              clr R16
 00E6 1127              clr R17
 00E8 8BDF              xcall _pageTime
 00EA                   .dbline 54
 00EA           ;       for(i=0;i<4;i++){
 00EA AA24              clr R10
 00EC BB24              clr R11
 00EE 8CC0              xjmp L18
 00F0           L15:
 00F0                   .dbline 54
 00F0                   .dbline 55
 00F0           ;         if(i==0){
 00F0 AA20              tst R10
 00F2 49F4              brne L19
 00F4 BB20              tst R11
 00F6 39F4              brne L19
 00F8           X0:
 00F8                   .dbline 55
 00F8                   .dbline 56
 00F8           ;           y=1;
 00F8 61E0              ldi R22,1
 00FA 70E0              ldi R23,0
 00FC                   .dbline 57
 00FC           ;           lcd_write_pos(3,1);
 00FC 21E0              ldi R18,1
 00FE 03E0              ldi R16,3
 0100 0E940000          xcall _lcd_write_pos
 0104                   .dbline 58
 0104           ;         }else if(i==1){
 0104 23C0              xjmp L20
 0106           L19:
 0106                   .dbline 58
 0106 C501              movw R24,R10
 0108 8130              cpi R24,1
 010A E0E0              ldi R30,0
 010C 9E07              cpc R25,R30
 010E 39F4              brne L21
 0110           X1:
 0110                   .dbline 58
 0110                   .dbline 59
 0110           ;           y=1;
 0110 61E0              ldi R22,1
 0112 70E0              ldi R23,0
 0114                   .dbline 60
 0114           ;           lcd_write_pos(8,1);
 0114 21E0              ldi R18,1
 0116 08E0              ldi R16,8
 0118 0E940000          xcall _lcd_write_pos
 011C                   .dbline 61
 011C           ;         }else if(i==2){
 011C 17C0              xjmp L22
 011E           L21:
 011E                   .dbline 61
 011E C501              movw R24,R10
 0120 8230              cpi R24,2
 0122 E0E0              ldi R30,0
 0124 9E07              cpc R25,R30
 0126 39F4              brne L23
 0128           X2:
 0128                   .dbline 61
 0128                   .dbline 62
 0128           ;           y=2;
 0128 62E0              ldi R22,2
 012A 70E0              ldi R23,0
 012C                   .dbline 63
 012C           ;           lcd_write_pos(3,2);
 012C 22E0              ldi R18,2
 012E 03E0              ldi R16,3
 0130 0E940000          xcall _lcd_write_pos
 0134                   .dbline 64
 0134           ;         }else if(i==3){
 0134 0BC0              xjmp L24
 0136           L23:
 0136                   .dbline 64
 0136 C501              movw R24,R10
 0138 8330              cpi R24,3
 013A E0E0              ldi R30,0
 013C 9E07              cpc R25,R30
 013E 31F4              brne L25
 0140           X3:
 0140                   .dbline 64
 0140                   .dbline 65
 0140           ;           y=2;
 0140 62E0              ldi R22,2
 0142 70E0              ldi R23,0
 0144                   .dbline 66
 0144           ;           lcd_write_pos(8,2);
 0144 22E0              ldi R18,2
 0146 08E0              ldi R16,8
 0148 0E940000          xcall _lcd_write_pos
 014C                   .dbline 67
 014C           ;         }
 014C           L25:
 014C           L24:
 014C           L22:
 014C           L20:
 014C                   .dbline 68
 014C           ;          switch(temps[i].flag){
 014C 0AE0              ldi R16,266
 014E 11E0              ldi R17,1
 0150 9501              movw R18,R10
 0152 0E940000          xcall empy16s
 0156 80E0              ldi R24,<_temps
 0158 90E0              ldi R25,>_temps
 015A F801              movw R30,R16
 015C E80F              add R30,R24
 015E F91F              adc R31,R25
 0160 C080              ldd R12,z+0
 0162 D180              ldd R13,z+1
 0164 CC20              tst R12
 0166 11F4              brne X4
 0168 DD20              tst R13
 016A D1F0              breq L30
 016C           X4:
 016C C601              movw R24,R12
 016E 8130              cpi R24,1
 0170 E0E0              ldi R30,0
 0172 9E07              cpc R25,R30
 0174 D9F0              breq L32
 0176           X5:
 0176 8230              cpi R24,2
 0178 E0E0              ldi R30,0
 017A 9E07              cpc R25,R30
 017C 29F1              breq L34
 017E           X6:
 017E 8330              cpi R24,3
 0180 E0E0              ldi R30,0
 0182 9E07              cpc R25,R30
 0184 39F1              breq L36
 0186           X7:
 0186 8430              cpi R24,4
 0188 E0E0              ldi R30,0
 018A 9E07              cpc R25,R30
 018C 49F1              breq L38
 018E           X8:
 018E 8530              cpi R24,5
 0190 E0E0              ldi R30,0
 0192 9E07              cpc R25,R30
 0194 59F1              breq L40
 0196           X9:
 0196 8630              cpi R24,6
 0198 E0E0              ldi R30,0
 019A 9E07              cpc R25,R30
 019C 69F1              breq L42
 019E           X10:
 019E 31C0              xjmp L28
 01A0           L30:
 01A0                   .dbline 70
 01A0           ;            case 0:
 01A0           ;                  lcd_write_str_con(y,"停止");
 01A0 20E0              ldi R18,<L31
 01A2 30E0              ldi R19,>L31
 01A4 062F              mov R16,R22
 01A6 0E940000          xcall _lcd_write_str_con
 01AA                   .dbline 71
 01AA           ;                  break;
 01AA 2BC0              xjmp L28
 01AC           L32:
 01AC                   .dbline 73
 01AC           ;                case 1:
 01AC           ;                  lcd_write_str_con(y,"150");
 01AC 20E0              ldi R18,<L33
 01AE 30E0              ldi R19,>L33
 01B0 062F              mov R16,R22
 01B2 0E940000          xcall _lcd_write_str_con
 01B6                   .dbline 74
 01B6           ;                  lcd_write_char_con(y,0xA1);
 01B6 21EA              ldi R18,161
 01B8 062F              mov R16,R22
 01BA 0E940000          xcall _lcd_write_char_con
 01BE                   .dbline 75
 01BE           ;           lcd_write_char_con(y,0xE6);
 01BE 26EE              ldi R18,230
 01C0 062F              mov R16,R22
 01C2 0E940000          xcall _lcd_write_char_con
 01C6                   .dbline 76
 01C6           ;                  break;
 01C6 1DC0              xjmp L28
 01C8           L34:
 01C8                   .dbline 78
 01C8           ;                case 2:
 01C8           ;                  lcd_write_str_con(y,"故障");
 01C8 20E0              ldi R18,<L35
 01CA 30E0              ldi R19,>L35
 01CC 062F              mov R16,R22
 01CE 0E940000          xcall _lcd_write_str_con
 01D2                   .dbline 79
 01D2           ;                  break;
 01D2 17C0              xjmp L28
 01D4           L36:
 01D4                   .dbline 81
 01D4           ;                case 3:
 01D4           ;                  lcd_write_str_con(y,"暂停");
 01D4 20E0              ldi R18,<L37
 01D6 30E0              ldi R19,>L37
 01D8 062F              mov R16,R22
 01DA 0E940000          xcall _lcd_write_str_con
 01DE                   .dbline 82
 01DE           ;                  break;
 01DE 11C0              xjmp L28
 01E0           L38:
 01E0                   .dbline 84
 01E0           ;                case 4:
 01E0           ;                  lcd_write_str_con(y,"结束");
 01E0 20E0              ldi R18,<L39
 01E2 30E0              ldi R19,>L39
 01E4 062F              mov R16,R22
 01E6 0E940000          xcall _lcd_write_str_con
 01EA                   .dbline 85
 01EA           ;                  break;
 01EA 0BC0              xjmp L28
 01EC           L40:
 01EC                   .dbline 87
 01EC           ;                case 5:
 01EC           ;                  lcd_write_str_con(y,"等待");
 01EC 20E0              ldi R18,<L41
 01EE 30E0              ldi R19,>L41
 01F0 062F              mov R16,R22
 01F2 0E940000          xcall _lcd_write_str_con
 01F6                   .dbline 88
 01F6           ;                  break;
 01F6 05C0              xjmp L28
 01F8           L42:
 01F8                   .dbline 90
 01F8           ;                case 6:
 01F8           ;                  lcd_write_str_con(y,"暂停");
 01F8 20E0              ldi R18,<L37
 01FA 30E0              ldi R19,>L37
 01FC 062F              mov R16,R22
 01FE 0E940000          xcall _lcd_write_str_con
 0202                   .dbline 91
 0202           ;                  break;
 0202                   .dbline 92
 0202           ;                  break;
 0202                   .dbline 94
 0202           ;                default:
 0202           ;                  break;
 0202           L28:
 0202                   .dbline 96
 0202           ;          }
 0202           ;       }
 0202           L16:
 0202                   .dbline 54
 0202 C501              movw R24,R10
 0204 0196              adiw R24,1
 0206 5C01              movw R10,R24
 0208           L18:
 0208                   .dbline 54
 0208 C501              movw R24,R10
 020A 8430              cpi R24,4
 020C E0E0              ldi R30,0
 020E 9E07              cpc R25,R30
 0210 08F4              brsh X56
 0212 6ECF              xjmp L15
 0214           X56:
 0214           X11:
 0214                   .dbline 97
 0214           ;        keyV=KeyScan_once();
 0214 0E940000          xcall _KeyScan_once
 0218 A02E              mov R10,R16
 021A                   .dbline 98
 021A           ;        if(keyV=='a'){
 021A 0136              cpi R16,97
 021C 09F0              breq X57
 021E 48C0              xjmp L43
 0220           X57:
 0220           X12:
 0220                   .dbline 98
 0220                   .dbline 100
 0220           ;             //pageNum=8;//跳转到设置时间的界面
 0220           ;                  pageNum=8;
 0220 88E0              ldi R24,8
 0222 90E0              ldi R25,0
 0224 90930100          sts _pageNum+1,R25
 0228 80930000          sts _pageNum,R24
 022C                   .dbline 101
 022C           ;          switch(cur){
 022C 4030              cpi R20,0
 022E 4507              cpc R20,R21
 0230 A9F0              breq L47
 0232           X13:
 0232 4130              cpi R20,1
 0234 E0E0              ldi R30,0
 0236 5E07              cpc R21,R30
 0238 C1F0              breq L48
 023A           X14:
 023A 4230              cpi R20,2
 023C E0E0              ldi R30,0
 023E 5E07              cpc R21,R30
 0240 D9F0              breq L49
 0242           X15:
 0242 4330              cpi R20,3
 0244 E0E0              ldi R30,0
 0246 5E07              cpc R21,R30
 0248 F1F0              breq L50
 024A           X16:
 024A 4530              cpi R20,5
 024C E0E0              ldi R30,0
 024E 5E07              cpc R21,R30
 0250 09F1              breq L51
 0252           X17:
 0252 4630              cpi R20,6
 0254 E0E0              ldi R30,0
 0256 5E07              cpc R21,R30
 0258 21F1              breq L52
 025A           X18:
 025A 65C2              xjmp L4
 025C           L47:
 025C                   .dbline 103
 025C           ;                case 0: 
 025C           ;                   Set_White_off(2,1,3);
 025C 83E0              ldi R24,3
 025E 8883              std y+0,R24
 0260 21E0              ldi R18,1
 0262 02E0              ldi R16,2
 0264 0E940000          xcall _Set_White_off
 0268                   .dbline 104
 0268           ;                   break;
 0268 5EC2              xjmp L4
 026A           L48:
 026A                   .dbline 106
 026A           ;                case 1:
 026A           ;                  Set_White_off(7,1,8);
 026A 88E0              ldi R24,8
 026C 8883              std y+0,R24
 026E 21E0              ldi R18,1
 0270 07E0              ldi R16,7
 0272 0E940000          xcall _Set_White_off
 0276                   .dbline 107
 0276           ;                  break;
 0276 57C2              xjmp L4
 0278           L49:
 0278                   .dbline 109
 0278           ;                case 2:
 0278           ;                 Set_White_off(2,2,3);
 0278 83E0              ldi R24,3
 027A 8883              std y+0,R24
 027C 22E0              ldi R18,2
 027E 02E0              ldi R16,2
 0280 0E940000          xcall _Set_White_off
 0284                   .dbline 110
 0284           ;                 break;
 0284 50C2              xjmp L4
 0286           L50:
 0286                   .dbline 112
 0286           ;                case 3:
 0286           ;                  Set_White_off(7,2,8);
 0286 88E0              ldi R24,8
 0288 8883              std y+0,R24
 028A 22E0              ldi R18,2
 028C 07E0              ldi R16,7
 028E 0E940000          xcall _Set_White_off
 0292                   .dbline 113
 0292           ;                   break;
 0292 49C2              xjmp L4
 0294           L51:
 0294                   .dbline 115
 0294           ;               case 5:
 0294           ;                   Set_White_off(6,3,7);
 0294 87E0              ldi R24,7
 0296 8883              std y+0,R24
 0298 23E0              ldi R18,3
 029A 06E0              ldi R16,6
 029C 0E940000          xcall _Set_White_off
 02A0                   .dbline 116
 02A0           ;                   break;
 02A0 42C2              xjmp L4
 02A2           L52:
 02A2                   .dbline 118
 02A2           ;                case 6:
 02A2           ;                  Set_White_off(10,3,11);
 02A2 8BE0              ldi R24,11
 02A4 8883              std y+0,R24
 02A6 23E0              ldi R18,3
 02A8 0AE0              ldi R16,10
 02AA 0E940000          xcall _Set_White_off
 02AE                   .dbline 119
 02AE           ;                   break;
 02AE                   .dbline 121
 02AE           ;                 default:
 02AE           ;                  break;
 02AE                   .dbline 123
 02AE           ;                }
 02AE           ;          return ;
 02AE 3BC2              xjmp L4
 02B0           L43:
 02B0                   .dbline 124
 02B0           ;       }else if(keyV=='d'){
 02B0 8A2D              mov R24,R10
 02B2 8436              cpi R24,100
 02B4 09F0              breq X58
 02B6 4CC0              xjmp L53
 02B8           X58:
 02B8           X19:
 02B8                   .dbline 124
 02B8                   .dbline 125
 02B8           ;            switch(cur){
 02B8 4030              cpi R20,0
 02BA 4507              cpc R20,R21
 02BC 69F0              breq L57
 02BE           X20:
 02BE 4130              cpi R20,1
 02C0 E0E0              ldi R30,0
 02C2 5E07              cpc R21,R30
 02C4 C1F0              breq L58
 02C6           X21:
 02C6 4230              cpi R20,2
 02C8 E0E0              ldi R30,0
 02CA 5E07              cpc R21,R30
 02CC 19F1              breq L59
 02CE           X22:
 02CE 4330              cpi R20,3
 02D0 E0E0              ldi R30,0
 02D2 5E07              cpc R21,R30
 02D4 71F1              breq L60
 02D6           X23:
 02D6 26C2              xjmp L54
 02D8           L57:
 02D8                   .dbline 127
 02D8           ;                 case 0:
 02D8           ;                  Set_White_off(2,1,3);
 02D8 83E0              ldi R24,3
 02DA 8883              std y+0,R24
 02DC 21E0              ldi R18,1
 02DE 02E0              ldi R16,2
 02E0 0E940000          xcall _Set_White_off
 02E4                   .dbline 128
 02E4           ;                  Set_White(2,2,3);
 02E4 83E0              ldi R24,3
 02E6 8883              std y+0,R24
 02E8 22E0              ldi R18,2
 02EA 02E0              ldi R16,2
 02EC 0E940000          xcall _Set_White
 02F0                   .dbline 129
 02F0           ;                  cur=2;
 02F0 42E0              ldi R20,2
 02F2 50E0              ldi R21,0
 02F4                   .dbline 130
 02F4           ;                  break;
 02F4 17C2              xjmp L54
 02F6           L58:
 02F6                   .dbline 132
 02F6           ;                 case 1:
 02F6           ;                  Set_White_off(7,1,8);
 02F6 88E0              ldi R24,8
 02F8 8883              std y+0,R24
 02FA 21E0              ldi R18,1
 02FC 07E0              ldi R16,7
 02FE 0E940000          xcall _Set_White_off
 0302                   .dbline 133
 0302           ;                  Set_White(7,2,8);
 0302 88E0              ldi R24,8
 0304 8883              std y+0,R24
 0306 22E0              ldi R18,2
 0308 07E0              ldi R16,7
 030A 0E940000          xcall _Set_White
 030E                   .dbline 134
 030E           ;                  cur=3;
 030E 43E0              ldi R20,3
 0310 50E0              ldi R21,0
 0312                   .dbline 135
 0312           ;                  break;
 0312 08C2              xjmp L54
 0314           L59:
 0314                   .dbline 137
 0314           ;                 case 2:
 0314           ;                  Set_White_off(2,2,3);
 0314 83E0              ldi R24,3
 0316 8883              std y+0,R24
 0318 22E0              ldi R18,2
 031A 02E0              ldi R16,2
 031C 0E940000          xcall _Set_White_off
 0320                   .dbline 138
 0320           ;                  Set_White(2,3,3);
 0320 83E0              ldi R24,3
 0322 8883              std y+0,R24
 0324 23E0              ldi R18,3
 0326 02E0              ldi R16,2
 0328 0E940000          xcall _Set_White
 032C                   .dbline 139
 032C           ;                  cur=4;
 032C 44E0              ldi R20,4
 032E 50E0              ldi R21,0
 0330                   .dbline 140
 0330           ;                  break;
 0330 F9C1              xjmp L54
 0332           L60:
 0332                   .dbline 142
 0332           ;                 case 3:
 0332           ;                  Set_White_off(7,2,8);
 0332 88E0              ldi R24,8
 0334 8883              std y+0,R24
 0336 22E0              ldi R18,2
 0338 07E0              ldi R16,7
 033A 0E940000          xcall _Set_White_off
 033E                   .dbline 143
 033E           ;                  Set_White(6,3,7);
 033E 87E0              ldi R24,7
 0340 8883              std y+0,R24
 0342 23E0              ldi R18,3
 0344 06E0              ldi R16,6
 0346 0E940000          xcall _Set_White
 034A                   .dbline 144
 034A           ;                  cur=5;
 034A 45E0              ldi R20,5
 034C 50E0              ldi R21,0
 034E                   .dbline 145
 034E           ;                  break;
 034E                   .dbline 147
 034E           ;                 default:
 034E           ;                  break;
 034E                   .dbline 149
 034E           ;                }
 034E           ;       }else if(keyV=='u'){switch(cur){
 034E EAC1              xjmp L54
 0350           L53:
 0350                   .dbline 149
 0350 8A2D              mov R24,R10
 0352 8537              cpi R24,117
 0354 09F0              breq X59
 0356 61C0              xjmp L61
 0358           X59:
 0358           X24:
 0358                   .dbline 149
 0358                   .dbline 149
 0358 4230              cpi R20,2
 035A E0E0              ldi R30,0
 035C 5E07              cpc R21,R30
 035E 91F0              breq L65
 0360           X25:
 0360 4330              cpi R20,3
 0362 E0E0              ldi R30,0
 0364 5E07              cpc R21,R30
 0366 E9F0              breq L66
 0368           X26:
 0368 4430              cpi R20,4
 036A E0E0              ldi R30,0
 036C 5E07              cpc R21,R30
 036E 41F1              breq L67
 0370           X27:
 0370 4530              cpi R20,5
 0372 E0E0              ldi R30,0
 0374 5E07              cpc R21,R30
 0376 99F1              breq L68
 0378           X28:
 0378 4630              cpi R20,6
 037A E0E0              ldi R30,0
 037C 5E07              cpc R21,R30
 037E 09F4              brne X60
 0380 3DC0              xjmp L69
 0382           X60:
 0382           X29:
 0382 D0C1              xjmp L62
 0384           L65:
 0384                   .dbline 151
 0384           ;                 case 2:
 0384           ;                  Set_White_off(2,2,3);
 0384 83E0              ldi R24,3
 0386 8883              std y+0,R24
 0388 22E0              ldi R18,2
 038A 02E0              ldi R16,2
 038C 0E940000          xcall _Set_White_off
 0390                   .dbline 152
 0390           ;                  Set_White(2,1,3);
 0390 83E0              ldi R24,3
 0392 8883              std y+0,R24
 0394 21E0              ldi R18,1
 0396 02E0              ldi R16,2
 0398 0E940000          xcall _Set_White
 039C                   .dbline 153
 039C           ;                  cur=0;
 039C 4427              clr R20
 039E 5527              clr R21
 03A0                   .dbline 154
 03A0           ;                  break;
 03A0 C1C1              xjmp L62
 03A2           L66:
 03A2                   .dbline 156
 03A2           ;                 case 3:
 03A2           ;                  Set_White_off(7,2,8);
 03A2 88E0              ldi R24,8
 03A4 8883              std y+0,R24
 03A6 22E0              ldi R18,2
 03A8 07E0              ldi R16,7
 03AA 0E940000          xcall _Set_White_off
 03AE                   .dbline 157
 03AE           ;                  Set_White(7,1,8);
 03AE 88E0              ldi R24,8
 03B0 8883              std y+0,R24
 03B2 21E0              ldi R18,1
 03B4 07E0              ldi R16,7
 03B6 0E940000          xcall _Set_White
 03BA                   .dbline 158
 03BA           ;                  cur=1;
 03BA 41E0              ldi R20,1
 03BC 50E0              ldi R21,0
 03BE                   .dbline 159
 03BE           ;                  break;
 03BE B2C1              xjmp L62
 03C0           L67:
 03C0                   .dbline 161
 03C0           ;                 case 4:
 03C0           ;                  Set_White_off(2,3,5);
 03C0 85E0              ldi R24,5
 03C2 8883              std y+0,R24
 03C4 23E0              ldi R18,3
 03C6 02E0              ldi R16,2
 03C8 0E940000          xcall _Set_White_off
 03CC                   .dbline 162
 03CC           ;                  Set_White(2,2,3);
 03CC 83E0              ldi R24,3
 03CE 8883              std y+0,R24
 03D0 22E0              ldi R18,2
 03D2 02E0              ldi R16,2
 03D4 0E940000          xcall _Set_White
 03D8                   .dbline 163
 03D8           ;                  cur=2;
 03D8 42E0              ldi R20,2
 03DA 50E0              ldi R21,0
 03DC                   .dbline 164
 03DC           ;                  break;
 03DC A3C1              xjmp L62
 03DE           L68:
 03DE                   .dbline 166
 03DE           ;                 case 5:
 03DE           ;                  Set_White_off(6,3,7);
 03DE 87E0              ldi R24,7
 03E0 8883              std y+0,R24
 03E2 23E0              ldi R18,3
 03E4 06E0              ldi R16,6
 03E6 0E940000          xcall _Set_White_off
 03EA                   .dbline 167
 03EA           ;                  Set_White(7,2,8);
 03EA 88E0              ldi R24,8
 03EC 8883              std y+0,R24
 03EE 22E0              ldi R18,2
 03F0 07E0              ldi R16,7
 03F2 0E940000          xcall _Set_White
 03F6                   .dbline 168
 03F6           ;                  cur=3;
 03F6 43E0              ldi R20,3
 03F8 50E0              ldi R21,0
 03FA                   .dbline 169
 03FA           ;                  break;
 03FA 94C1              xjmp L62
 03FC           L69:
 03FC                   .dbline 171
 03FC           ;                 case 6:
 03FC           ;                  Set_White_off(10,3,11);
 03FC 8BE0              ldi R24,11
 03FE 8883              std y+0,R24
 0400 23E0              ldi R18,3
 0402 0AE0              ldi R16,10
 0404 0E940000          xcall _Set_White_off
 0408                   .dbline 172
 0408           ;                  Set_White(7,2,8);
 0408 88E0              ldi R24,8
 040A 8883              std y+0,R24
 040C 22E0              ldi R18,2
 040E 07E0              ldi R16,7
 0410 0E940000          xcall _Set_White
 0414                   .dbline 173
 0414           ;                  cur=3;
 0414 43E0              ldi R20,3
 0416 50E0              ldi R21,0
 0418                   .dbline 174
 0418           ;                  break;
 0418                   .dbline 176
 0418           ;                 default:
 0418           ;                  break;
 0418                   .dbline 178
 0418           ;                }
 0418           ;       }else if(keyV=='l'){switch(cur){
 0418 85C1              xjmp L62
 041A           L61:
 041A                   .dbline 178
 041A 8A2D              mov R24,R10
 041C 8C36              cpi R24,108
 041E 09F0              breq X61
 0420 4DC0              xjmp L70
 0422           X61:
 0422           X30:
 0422                   .dbline 178
 0422                   .dbline 178
 0422 4130              cpi R20,1
 0424 E0E0              ldi R30,0
 0426 5E07              cpc R21,R30
 0428 69F0              breq L74
 042A           X31:
 042A 4330              cpi R20,3
 042C E0E0              ldi R30,0
 042E 5E07              cpc R21,R30
 0430 C1F0              breq L75
 0432           X32:
 0432 4530              cpi R20,5
 0434 E0E0              ldi R30,0
 0436 5E07              cpc R21,R30
 0438 19F1              breq L76
 043A           X33:
 043A 4630              cpi R20,6
 043C E0E0              ldi R30,0
 043E 5E07              cpc R21,R30
 0440 71F1              breq L77
 0442           X34:
 0442 70C1              xjmp L71
 0444           L74:
 0444                   .dbline 180
 0444           ;                 case 1:
 0444           ;                  Set_White_off(7,1,8);
 0444 88E0              ldi R24,8
 0446 8883              std y+0,R24
 0448 21E0              ldi R18,1
 044A 07E0              ldi R16,7
 044C 0E940000          xcall _Set_White_off
 0450                   .dbline 181
 0450           ;                  Set_White(2,1,3);
 0450 83E0              ldi R24,3
 0452 8883              std y+0,R24
 0454 21E0              ldi R18,1
 0456 02E0              ldi R16,2
 0458 0E940000          xcall _Set_White
 045C                   .dbline 182
 045C           ;                  cur=0;
 045C 4427              clr R20
 045E 5527              clr R21
 0460                   .dbline 183
 0460           ;                  break;
 0460 61C1              xjmp L71
 0462           L75:
 0462                   .dbline 185
 0462           ;                 case 3:
 0462           ;                  Set_White_off(7,2,8);
 0462 88E0              ldi R24,8
 0464 8883              std y+0,R24
 0466 22E0              ldi R18,2
 0468 07E0              ldi R16,7
 046A 0E940000          xcall _Set_White_off
 046E                   .dbline 186
 046E           ;                  Set_White(2,2,3);
 046E 83E0              ldi R24,3
 0470 8883              std y+0,R24
 0472 22E0              ldi R18,2
 0474 02E0              ldi R16,2
 0476 0E940000          xcall _Set_White
 047A                   .dbline 187
 047A           ;                  cur=2;
 047A 42E0              ldi R20,2
 047C 50E0              ldi R21,0
 047E                   .dbline 188
 047E           ;                  break;
 047E 52C1              xjmp L71
 0480           L76:
 0480                   .dbline 190
 0480           ;                 case 5:
 0480           ;                  Set_White_off(6,3,7);
 0480 87E0              ldi R24,7
 0482 8883              std y+0,R24
 0484 23E0              ldi R18,3
 0486 06E0              ldi R16,6
 0488 0E940000          xcall _Set_White_off
 048C                   .dbline 191
 048C           ;                  Set_White(2,3,3);
 048C 83E0              ldi R24,3
 048E 8883              std y+0,R24
 0490 23E0              ldi R18,3
 0492 02E0              ldi R16,2
 0494 0E940000          xcall _Set_White
 0498                   .dbline 192
 0498           ;                  cur=4;
 0498 44E0              ldi R20,4
 049A 50E0              ldi R21,0
 049C                   .dbline 193
 049C           ;                  break;
 049C 43C1              xjmp L71
 049E           L77:
 049E                   .dbline 195
 049E           ;                 case 6:
 049E           ;                  Set_White_off(10,3,11);
 049E 8BE0              ldi R24,11
 04A0 8883              std y+0,R24
 04A2 23E0              ldi R18,3
 04A4 0AE0              ldi R16,10
 04A6 0E940000          xcall _Set_White_off
 04AA                   .dbline 196
 04AA           ;                  Set_White(6,3,7);
 04AA 87E0              ldi R24,7
 04AC 8883              std y+0,R24
 04AE 23E0              ldi R18,3
 04B0 06E0              ldi R16,6
 04B2 0E940000          xcall _Set_White
 04B6                   .dbline 197
 04B6           ;                  cur=5;
 04B6 45E0              ldi R20,5
 04B8 50E0              ldi R21,0
 04BA                   .dbline 198
 04BA           ;                  break;
 04BA                   .dbline 200
 04BA           ;                 default:
 04BA           ;                  break;
 04BA                   .dbline 202
 04BA           ;                }
 04BA           ;       }else if(keyV=='r'){
 04BA 34C1              xjmp L71
 04BC           L70:
 04BC                   .dbline 202
 04BC 8A2D              mov R24,R10
 04BE 8237              cpi R24,114
 04C0 09F0              breq X62
 04C2 4CC0              xjmp L78
 04C4           X62:
 04C4           X35:
 04C4                   .dbline 202
 04C4                   .dbline 203
 04C4           ;       switch(cur){
 04C4 4030              cpi R20,0
 04C6 4507              cpc R20,R21
 04C8 69F0              breq L82
 04CA           X36:
 04CA 4230              cpi R20,2
 04CC E0E0              ldi R30,0
 04CE 5E07              cpc R21,R30
 04D0 C1F0              breq L83
 04D2           X37:
 04D2 4430              cpi R20,4
 04D4 E0E0              ldi R30,0
 04D6 5E07              cpc R21,R30
 04D8 19F1              breq L84
 04DA           X38:
 04DA 4530              cpi R20,5
 04DC E0E0              ldi R30,0
 04DE 5E07              cpc R21,R30
 04E0 71F1              breq L85
 04E2           X39:
 04E2 20C1              xjmp L79
 04E4           L82:
 04E4                   .dbline 205
 04E4           ;                 case 0:
 04E4           ;                  Set_White_off(2,1,3);
 04E4 83E0              ldi R24,3
 04E6 8883              std y+0,R24
 04E8 21E0              ldi R18,1
 04EA 02E0              ldi R16,2
 04EC 0E940000          xcall _Set_White_off
 04F0                   .dbline 206
 04F0           ;                  Set_White(7,1,8);
 04F0 88E0              ldi R24,8
 04F2 8883              std y+0,R24
 04F4 21E0              ldi R18,1
 04F6 07E0              ldi R16,7
 04F8 0E940000          xcall _Set_White
 04FC                   .dbline 207
 04FC           ;                  cur=1;
 04FC 41E0              ldi R20,1
 04FE 50E0              ldi R21,0
 0500                   .dbline 208
 0500           ;                  break;
 0500 11C1              xjmp L79
 0502           L83:
 0502                   .dbline 210
 0502           ;                 case 2:
 0502           ;                  Set_White_off(2,2,3);
 0502 83E0              ldi R24,3
 0504 8883              std y+0,R24
 0506 22E0              ldi R18,2
 0508 02E0              ldi R16,2
 050A 0E940000          xcall _Set_White_off
 050E                   .dbline 211
 050E           ;                  Set_White(7,2,8);
 050E 88E0              ldi R24,8
 0510 8883              std y+0,R24
 0512 22E0              ldi R18,2
 0514 07E0              ldi R16,7
 0516 0E940000          xcall _Set_White
 051A                   .dbline 212
 051A           ;                  cur=3;
 051A 43E0              ldi R20,3
 051C 50E0              ldi R21,0
 051E                   .dbline 213
 051E           ;                  break;
 051E 02C1              xjmp L79
 0520           L84:
 0520                   .dbline 215
 0520           ;                 case 4:
 0520           ;                  Set_White_off(2,3,3);
 0520 83E0              ldi R24,3
 0522 8883              std y+0,R24
 0524 23E0              ldi R18,3
 0526 02E0              ldi R16,2
 0528 0E940000          xcall _Set_White_off
 052C                   .dbline 216
 052C           ;                  Set_White(6,3,7);
 052C 87E0              ldi R24,7
 052E 8883              std y+0,R24
 0530 23E0              ldi R18,3
 0532 06E0              ldi R16,6
 0534 0E940000          xcall _Set_White
 0538                   .dbline 217
 0538           ;                  cur=5;
 0538 45E0              ldi R20,5
 053A 50E0              ldi R21,0
 053C                   .dbline 218
 053C           ;                  break;
 053C F3C0              xjmp L79
 053E           L85:
 053E                   .dbline 220
 053E           ;                 case 5:
 053E           ;                  Set_White_off(6,3,7);
 053E 87E0              ldi R24,7
 0540 8883              std y+0,R24
 0542 23E0              ldi R18,3
 0544 06E0              ldi R16,6
 0546 0E940000          xcall _Set_White_off
 054A                   .dbline 221
 054A           ;                  Set_White(10,3,11);
 054A 8BE0              ldi R24,11
 054C 8883              std y+0,R24
 054E 23E0              ldi R18,3
 0550 0AE0              ldi R16,10
 0552 0E940000          xcall _Set_White
 0556                   .dbline 222
 0556           ;                  cur=6;
 0556 46E0              ldi R20,6
 0558 50E0              ldi R21,0
 055A                   .dbline 223
 055A           ;                  break;
 055A                   .dbline 225
 055A           ;                 default:
 055A           ;                  break;
 055A                   .dbline 227
 055A           ;                }
 055A           ;       }else if(keyV=='s'){
 055A E4C0              xjmp L79
 055C           L78:
 055C                   .dbline 227
 055C 8A2D              mov R24,R10
 055E 8337              cpi R24,115
 0560 09F0              breq X63
 0562 48C0              xjmp L86
 0564           X63:
 0564           X40:
 0564                   .dbline 227
 0564                   .dbline 228
 0564           ;          pageNum=5;
 0564 85E0              ldi R24,5
 0566 90E0              ldi R25,0
 0568 90930100          sts _pageNum+1,R25
 056C 80930000          sts _pageNum,R24
 0570                   .dbline 229
 0570           ;          switch(cur){
 0570 4030              cpi R20,0
 0572 4507              cpc R20,R21
 0574 A9F0              breq L90
 0576           X41:
 0576 4130              cpi R20,1
 0578 E0E0              ldi R30,0
 057A 5E07              cpc R21,R30
 057C C1F0              breq L91
 057E           X42:
 057E 4230              cpi R20,2
 0580 E0E0              ldi R30,0
 0582 5E07              cpc R21,R30
 0584 D9F0              breq L92
 0586           X43:
 0586 4330              cpi R20,3
 0588 E0E0              ldi R30,0
 058A 5E07              cpc R21,R30
 058C F1F0              breq L93
 058E           X44:
 058E 4530              cpi R20,5
 0590 E0E0              ldi R30,0
 0592 5E07              cpc R21,R30
 0594 09F1              breq L94
 0596           X45:
 0596 4630              cpi R20,6
 0598 E0E0              ldi R30,0
 059A 5E07              cpc R21,R30
 059C 21F1              breq L95
 059E           X46:
 059E C3C0              xjmp L4
 05A0           L90:
 05A0                   .dbline 231
 05A0           ;                case 0: 
 05A0           ;                   Set_White_off(2,1,3);
 05A0 83E0              ldi R24,3
 05A2 8883              std y+0,R24
 05A4 21E0              ldi R18,1
 05A6 02E0              ldi R16,2
 05A8 0E940000          xcall _Set_White_off
 05AC                   .dbline 232
 05AC           ;                   break;
 05AC BCC0              xjmp L4
 05AE           L91:
 05AE                   .dbline 234
 05AE           ;                case 1:
 05AE           ;                  Set_White_off(7,1,8);
 05AE 88E0              ldi R24,8
 05B0 8883              std y+0,R24
 05B2 21E0              ldi R18,1
 05B4 07E0              ldi R16,7
 05B6 0E940000          xcall _Set_White_off
 05BA                   .dbline 235
 05BA           ;                  break;
 05BA B5C0              xjmp L4
 05BC           L92:
 05BC                   .dbline 237
 05BC           ;                case 2:
 05BC           ;                 Set_White_off(2,2,3);
 05BC 83E0              ldi R24,3
 05BE 8883              std y+0,R24
 05C0 22E0              ldi R18,2
 05C2 02E0              ldi R16,2
 05C4 0E940000          xcall _Set_White_off
 05C8                   .dbline 238
 05C8           ;                 break;
 05C8 AEC0              xjmp L4
 05CA           L93:
 05CA                   .dbline 240
 05CA           ;                case 3:
 05CA           ;                  Set_White_off(7,2,8);
 05CA 88E0              ldi R24,8
 05CC 8883              std y+0,R24
 05CE 22E0              ldi R18,2
 05D0 07E0              ldi R16,7
 05D2 0E940000          xcall _Set_White_off
 05D6                   .dbline 241
 05D6           ;                   break;
 05D6 A7C0              xjmp L4
 05D8           L94:
 05D8                   .dbline 243
 05D8           ;               case 5:
 05D8           ;                   Set_White_off(6,3,7);
 05D8 87E0              ldi R24,7
 05DA 8883              std y+0,R24
 05DC 23E0              ldi R18,3
 05DE 06E0              ldi R16,6
 05E0 0E940000          xcall _Set_White_off
 05E4                   .dbline 244
 05E4           ;                   break;
 05E4 A0C0              xjmp L4
 05E6           L95:
 05E6                   .dbline 246
 05E6           ;                case 6:
 05E6           ;                  Set_White_off(10,3,11);
 05E6 8BE0              ldi R24,11
 05E8 8883              std y+0,R24
 05EA 23E0              ldi R18,3
 05EC 0AE0              ldi R16,10
 05EE 0E940000          xcall _Set_White_off
 05F2                   .dbline 247
 05F2           ;                   break;
 05F2                   .dbline 249
 05F2           ;                 default:
 05F2           ;                  break;
 05F2                   .dbline 251
 05F2           ;                }
 05F2           ;          return ;
 05F2 99C0              xjmp L4
 05F4           L86:
 05F4                   .dbline 252
 05F4           ;       }else if(keyV=='t'){
 05F4 8A2D              mov R24,R10
 05F6 8437              cpi R24,116
 05F8 09F0              breq X64
 05FA 94C0              xjmp L96
 05FC           X64:
 05FC           X47:
 05FC                   .dbline 252
 05FC                   .dbline 253
 05FC           ;          switch(cur){
 05FC 4030              cpi R20,0
 05FE 4507              cpc R20,R21
 0600 F1F0              breq L100
 0602           X48:
 0602 4130              cpi R20,1
 0604 E0E0              ldi R30,0
 0606 5E07              cpc R21,R30
 0608 91F1              breq L101
 060A           X49:
 060A 4230              cpi R20,2
 060C E0E0              ldi R30,0
 060E 5E07              cpc R21,R30
 0610 09F4              brne X65
 0612 43C0              xjmp L102
 0614           X65:
 0614           X50:
 0614 4330              cpi R20,3
 0616 E0E0              ldi R30,0
 0618 5E07              cpc R21,R30
 061A 09F4              brne X66
 061C 55C0              xjmp L103
 061E           X66:
 061E           X51:
 061E 4430              cpi R20,4
 0620 E0E0              ldi R30,0
 0622 5E07              cpc R21,R30
 0624 09F4              brne X67
 0626 66C0              xjmp L104
 0628           X67:
 0628           X52:
 0628 4530              cpi R20,5
 062A E0E0              ldi R30,0
 062C 5E07              cpc R21,R30
 062E 09F4              brne X68
 0630 64C0              xjmp L105
 0632           X68:
 0632           X53:
 0632 4630              cpi R20,6
 0634 E0E0              ldi R30,0
 0636 5E07              cpc R21,R30
 0638 09F4              brne X69
 063A 62C0              xjmp L106
 063C           X69:
 063C           X54:
 063C 73C0              xjmp L99
 063E           L100:
 063E                   .dbline 255
 063E           ;                case 0: 
 063E           ;                   Set_White_off(2,1,3);
 063E 83E0              ldi R24,3
 0640 8883              std y+0,R24
 0642 21E0              ldi R18,1
 0644 02E0              ldi R16,2
 0646 0E940000          xcall _Set_White_off
 064A                   .dbline 256
 064A           ;                   prePageNum=1;
 064A 81E0              ldi R24,1
 064C 90E0              ldi R25,0
 064E 90930100          sts _prePageNum+1,R25
 0652 80930000          sts _prePageNum,R24
 0656                   .dbline 257
 0656           ;                   pageParam[0]=0;//传递使用第一个，对应不同的温度
 0656 2224              clr R2
 0658 3324              clr R3
 065A 30920100          sts _pageParam+1,R3
 065E 20920000          sts _pageParam,R2
 0662                   .dbline 258
 0662           ;                   pageNum=3;
 0662 83E0              ldi R24,3
 0664 90930100          sts _pageNum+1,R25
 0668 80930000          sts _pageNum,R24
 066C                   .dbline 259
 066C           ;                   return;
 066C 5CC0              xjmp L4
 066E           L101:
 066E                   .dbline 261
 066E           ;                case 1:
 066E           ;                  Set_White_off(7,1,8);
 066E 88E0              ldi R24,8
 0670 8883              std y+0,R24
 0672 21E0              ldi R18,1
 0674 07E0              ldi R16,7
 0676 0E940000          xcall _Set_White_off
 067A                   .dbline 262
 067A           ;                   prePageNum=1;
 067A 81E0              ldi R24,1
 067C 90E0              ldi R25,0
 067E 90930100          sts _prePageNum+1,R25
 0682 80930000          sts _prePageNum,R24
 0686                   .dbline 263
 0686           ;                  pageParam[0]=1;//传递使用第一个，对应不同的温度
 0686 90930100          sts _pageParam+1,R25
 068A 80930000          sts _pageParam,R24
 068E                   .dbline 264
 068E           ;                   pageNum=3;
 068E 83E0              ldi R24,3
 0690 90930100          sts _pageNum+1,R25
 0694 80930000          sts _pageNum,R24
 0698                   .dbline 265
 0698           ;                   return;
 0698 46C0              xjmp L4
 069A           L102:
 069A                   .dbline 267
 069A           ;                case 2:
 069A           ;                 Set_White_off(2,2,3);
 069A 83E0              ldi R24,3
 069C 8883              std y+0,R24
 069E 22E0              ldi R18,2
 06A0 02E0              ldi R16,2
 06A2 0E940000          xcall _Set_White_off
 06A6                   .dbline 268
 06A6           ;                   prePageNum=1;
 06A6 81E0              ldi R24,1
 06A8 90E0              ldi R25,0
 06AA 90930100          sts _prePageNum+1,R25
 06AE 80930000          sts _prePageNum,R24
 06B2                   .dbline 269
 06B2           ;                   pageParam[0]=2;//传递使用第一个，对应不同的温度
 06B2 82E0              ldi R24,2
 06B4 90930100          sts _pageParam+1,R25
 06B8 80930000          sts _pageParam,R24
 06BC                   .dbline 270
 06BC           ;                  pageNum=3;
 06BC 83E0              ldi R24,3
 06BE 90930100          sts _pageNum+1,R25
 06C2 80930000          sts _pageNum,R24
 06C6                   .dbline 271
 06C6           ;                  return;
 06C6 2FC0              xjmp L4
 06C8           L103:
 06C8                   .dbline 273
 06C8           ;                case 3:
 06C8           ;                  Set_White_off(7,2,8);
 06C8 88E0              ldi R24,8
 06CA 8883              std y+0,R24
 06CC 22E0              ldi R18,2
 06CE 07E0              ldi R16,7
 06D0 0E940000          xcall _Set_White_off
 06D4                   .dbline 274
 06D4           ;                    prePageNum=1;
 06D4 81E0              ldi R24,1
 06D6 90E0              ldi R25,0
 06D8 90930100          sts _prePageNum+1,R25
 06DC 80930000          sts _prePageNum,R24
 06E0                   .dbline 275
 06E0           ;                   pageParam[0]=3;//传递使用第一个，对应不同的温度
 06E0 83E0              ldi R24,3
 06E2 90930100          sts _pageParam+1,R25
 06E6 80930000          sts _pageParam,R24
 06EA                   .dbline 276
 06EA           ;                   pageNum=3;
 06EA 90930100          sts _pageNum+1,R25
 06EE 80930000          sts _pageNum,R24
 06F2                   .dbline 277
 06F2           ;                   return;
 06F2 19C0              xjmp L4
 06F4           L104:
 06F4                   .dbline 280
 06F4           ;                case 4:
 06F4           ;                   //调用函数全部开始，参数正确的
 06F4           ;                       set_all_start();
 06F4 0E940000          xcall _set_all_start
 06F8                   .dbline 281
 06F8           ;                  break;
 06F8 15C0              xjmp L99
 06FA           L105:
 06FA                   .dbline 284
 06FA           ;                case 5:
 06FA           ;                   //全部停止
 06FA           ;                       set_all_stop();
 06FA 0E940000          xcall _set_all_stop
 06FE                   .dbline 285
 06FE           ;                  break;
 06FE 12C0              xjmp L99
 0700           L106:
 0700                   .dbline 287
 0700           ;                case 6://设置
 0700           ;                  Set_White_off(10,3,11);
 0700 8BE0              ldi R24,11
 0702 8883              std y+0,R24
 0704 23E0              ldi R18,3
 0706 0AE0              ldi R16,10
 0708 0E940000          xcall _Set_White_off
 070C                   .dbline 288
 070C           ;                  prePageNum=1;
 070C 81E0              ldi R24,1
 070E 90E0              ldi R25,0
 0710 90930100          sts _prePageNum+1,R25
 0714 80930000          sts _prePageNum,R24
 0718                   .dbline 289
 0718           ;                  pageNum=5;
 0718 85E0              ldi R24,5
 071A 90930100          sts _pageNum+1,R25
 071E 80930000          sts _pageNum,R24
 0722                   .dbline 290
 0722           ;                   return;
 0722 01C0              xjmp L4
 0724           L99:
 0724                   .dbline 295
 0724           ;                 default:
 0724           ;                  break;
 0724           ;                }
 0724           ;       
 0724           ;       }
 0724           L96:
 0724           L79:
 0724           L71:
 0724           L62:
 0724           L54:
 0724                   .dbline 296
 0724           ;   }
 0724           L13:
 0724                   .dbline 52
 0724 DFCC              xjmp L12
 0726           X55:
 0726                   .dbline -2
 0726           L4:
 0726                   .dbline 0 ; func end
 0726 2296              adiw R28,2
 0728 0C940000          xjmp pop_xgsetF03C
 072C                   .dbsym r cur 20 i
 072C                   .dbsym r keyV 10 c
 072C                   .dbsym r y 22 i
 072C                   .dbsym r i 10 i
 072C                   .dbend
 072C                   .dbfunc e page2 _page2 fV
 072C           ;            cur -> R20,R21
 072C           ;           keyV -> R10
                        .even
 072C           _page2::
 072C 0E940000          xcall push_xgsetF00C
 0730 2297              sbiw R28,2
 0732                   .dbline -1
 0732                   .dbline 299
 0732           ;    return;
 0732           ; }
 0732           ;  void page2(void){
 0732                   .dbline 300
 0732           ;    uint cur=0;
 0732 4427              clr R20
 0734 5527              clr R21
 0736                   .dbline 303
 0736           ;    uchar keyV;
 0736           ;    //初始画面，会有读取EEPROM的判断默认操作，本次只是画界面
 0736           ;    lcd_write_str(2,0,"是否恢复上次工作");
 0736 80E0              ldi R24,<L108
 0738 90E0              ldi R25,>L108
 073A 9983              std y+1,R25
 073C 8883              std y+0,R24
 073E 2227              clr R18
 0740 02E0              ldi R16,2
 0742 0E940000          xcall _lcd_write_str
 0746                   .dbline 304
 0746           ;    lcd_write_str(2,2,"恢复");
 0746 80E0              ldi R24,<L109
 0748 90E0              ldi R25,>L109
 074A 9983              std y+1,R25
 074C 8883              std y+0,R24
 074E 22E0              ldi R18,2
 0750 02E0              ldi R16,2
 0752 0E940000          xcall _lcd_write_str
 0756                   .dbline 305
 0756           ;    lcd_write_str(8,2,"取消");
 0756 80E0              ldi R24,<L110
 0758 90E0              ldi R25,>L110
 075A 9983              std y+1,R25
 075C 8883              std y+0,R24
 075E 22E0              ldi R18,2
 0760 08E0              ldi R16,8
 0762 0E940000          xcall _lcd_write_str
 0766                   .dbline 306
 0766           ;    Set_White(3,2,4);
 0766 84E0              ldi R24,4
 0768 8883              std y+0,R24
 076A 22E0              ldi R18,2
 076C 03E0              ldi R16,3
 076E 0E940000          xcall _Set_White
 0772 63C0              xjmp L112
 0774           L111:
 0774                   .dbline 307
 0774           ;     while(1){
 0774                   .dbline 308
 0774           ;       keyV=KeyScan_once();
 0774 0E940000          xcall _KeyScan_once
 0778 A02E              mov R10,R16
 077A                   .dbline 309
 077A           ;         switch(keyV){
 077A 6A2D              mov R22,R10
 077C 7727              clr R23
 077E 6C36              cpi R22,108
 0780 E0E0              ldi R30,0
 0782 7E07              cpc R23,R30
 0784 71F0              breq L117
 0786           X70:
 0786 6C36              cpi R22,108
 0788 E0E0              ldi R30,0
 078A 7E07              cpc R23,R30
 078C 0CF4              brge X78
 078E 55C0              xjmp L114
 0790           X78:
 0790           X71:
 0790           L127:
 0790 6237              cpi R22,114
 0792 E0E0              ldi R30,0
 0794 7E07              cpc R23,R30
 0796 C9F0              breq L120
 0798           X72:
 0798 6437              cpi R22,116
 079A E0E0              ldi R30,0
 079C 7E07              cpc R23,R30
 079E 39F1              breq L123
 07A0           X73:
 07A0 4CC0              xjmp L114
 07A2           L117:
 07A2                   .dbline 311
 07A2           ;           case 'l':
 07A2           ;                  if(cur==1){
 07A2 4130              cpi R20,1
 07A4 E0E0              ldi R30,0
 07A6 5E07              cpc R21,R30
 07A8 09F0              breq X79
 07AA 47C0              xjmp L115
 07AC           X79:
 07AC           X74:
 07AC                   .dbline 311
 07AC                   .dbline 312
 07AC           ;                     Set_White_off(9,2,10);
 07AC 8AE0              ldi R24,10
 07AE 8883              std y+0,R24
 07B0 22E0              ldi R18,2
 07B2 09E0              ldi R16,9
 07B4 0E940000          xcall _Set_White_off
 07B8                   .dbline 313
 07B8           ;                     Set_White(3,2,4);
 07B8 84E0              ldi R24,4
 07BA 8883              std y+0,R24
 07BC 22E0              ldi R18,2
 07BE 03E0              ldi R16,3
 07C0 0E940000          xcall _Set_White
 07C4                   .dbline 314
 07C4           ;                         cur=0;
 07C4 4427              clr R20
 07C6 5527              clr R21
 07C8                   .dbline 315
 07C8           ;                  }
 07C8                   .dbline 316
 07C8           ;                  break;
 07C8 38C0              xjmp L115
 07CA           L120:
 07CA                   .dbline 318
 07CA           ;               case 'r':
 07CA           ;                  if(cur==0){
 07CA 4030              cpi R20,0
 07CC 4507              cpc R20,R21
 07CE A9F5              brne L115
 07D0           X75:
 07D0                   .dbline 318
 07D0                   .dbline 319
 07D0           ;                     Set_White_off(3,2,4);
 07D0 84E0              ldi R24,4
 07D2 8883              std y+0,R24
 07D4 22E0              ldi R18,2
 07D6 03E0              ldi R16,3
 07D8 0E940000          xcall _Set_White_off
 07DC                   .dbline 320
 07DC           ;                     Set_White(9,2,10);
 07DC 8AE0              ldi R24,10
 07DE 8883              std y+0,R24
 07E0 22E0              ldi R18,2
 07E2 09E0              ldi R16,9
 07E4 0E940000          xcall _Set_White
 07E8                   .dbline 321
 07E8           ;                         cur=1;
 07E8 41E0              ldi R20,1
 07EA 50E0              ldi R21,0
 07EC                   .dbline 322
 07EC           ;                  }
 07EC                   .dbline 323
 07EC           ;                 break;
 07EC 26C0              xjmp L115
 07EE           L123:
 07EE                   .dbline 326
 07EE           ;               case 't':
 07EE           ;                 //执行相关操作
 07EE           ;                  Set_White_off(9,2,10);
 07EE 8AE0              ldi R24,10
 07F0 8883              std y+0,R24
 07F2 22E0              ldi R18,2
 07F4 09E0              ldi R16,9
 07F6 0E940000          xcall _Set_White_off
 07FA                   .dbline 327
 07FA           ;                   Set_White_off(3,2,4);
 07FA 84E0              ldi R24,4
 07FC 8883              std y+0,R24
 07FE 22E0              ldi R18,2
 0800 03E0              ldi R16,3
 0802 0E940000          xcall _Set_White_off
 0806                   .dbline 328
 0806           ;                       if(cur==0){
 0806 4030              cpi R20,0
 0808 4507              cpc R20,R21
 080A 81F4              brne L124
 080C           X76:
 080C                   .dbline 328
 080C                   .dbline 329
 080C           ;                         lcd_clear();
 080C 0E940000          xcall _lcd_clear
 0810                   .dbline 330
 0810           ;                         lcd_write_str(5,2,"恢复中. . .");
 0810 80E0              ldi R24,<L126
 0812 90E0              ldi R25,>L126
 0814 9983              std y+1,R25
 0816 8883              std y+0,R24
 0818 22E0              ldi R18,2
 081A 05E0              ldi R16,5
 081C 0E940000          xcall _lcd_write_str
 0820                   .dbline 331
 0820           ;                         data_recover();//恢复数据，可以跳转到界面后操作。暂时放在这
 0820 0E940000          xcall _data_recover
 0824                   .dbline 332
 0824           ;                         delay_ms(200);
 0824 08EC              ldi R16,200
 0826 10E0              ldi R17,0
 0828 0E940000          xcall _delay_ms
 082C                   .dbline 333
 082C           ;                       }
 082C           L124:
 082C                   .dbline 334
 082C           ;                 pageNum=1;
 082C 81E0              ldi R24,1
 082E 90E0              ldi R25,0
 0830 90930100          sts _pageNum+1,R25
 0834 80930000          sts _pageNum,R24
 0838                   .dbline 335
 0838           ;                 return;
 0838 01C0              xjmp L107
 083A           L114:
 083A           L115:
 083A                   .dbline 337
 083A           ;         }
 083A           ;       }
 083A           L112:
 083A                   .dbline 307
 083A 9CCF              xjmp L111
 083C           X77:
 083C                   .dbline -2
 083C           L107:
 083C                   .dbline 0 ; func end
 083C 2296              adiw R28,2
 083E 0C940000          xjmp pop_xgsetF00C
 0842                   .dbsym r cur 20 i
 0842                   .dbsym r keyV 10 c
 0842                   .dbend
 0842                   .dbfunc e page3 _page3 fV
 0842           ;            cur -> R20,R21
 0842           ;           keyV -> R22
                        .even
 0842           _page3::
 0842 0E940000          xcall push_xgsetF000
 0846 2297              sbiw R28,2
 0848                   .dbline -1
 0848                   .dbline 339
 0848           ;  }
 0848           ;  void page3(void){
 0848                   .dbline 340
 0848           ;   uint cur=0;
 0848 4427              clr R20
 084A 5527              clr R21
 084C                   .dbline 342
 084C           ;    uchar keyV;
 084C           ;    lcd_write_str(0,0,"T");
 084C 80E0              ldi R24,<L129
 084E 90E0              ldi R25,>L129
 0850 9983              std y+1,R25
 0852 8883              std y+0,R24
 0854 2227              clr R18
 0856 0027              clr R16
 0858 0E940000          xcall _lcd_write_str
 085C                   .dbline 343
 085C           ;     lcd_write_char_con(0,0x30 | (pageParam[0]+1));
 085C 20910000          lds R18,_pageParam
 0860 30910100          lds R19,_pageParam+1
 0864 2F5F              subi R18,255  ; offset = 1
 0866 3F4F              sbci R19,255
 0868 2063              ori R18,48
 086A 0027              clr R16
 086C 0E940000          xcall _lcd_write_char_con
 0870                   .dbline 344
 0870           ;       lcd_write_char_con(0,':');
 0870 2AE3              ldi R18,58
 0872 0027              clr R16
 0874 0E940000          xcall _lcd_write_char_con
 0878                   .dbline 345
 0878           ;    lcd_write_str(1,1,"温度:");
 0878 80E0              ldi R24,<L130
 087A 90E0              ldi R25,>L130
 087C 9983              std y+1,R25
 087E 8883              std y+0,R24
 0880 21E0              ldi R18,1
 0882 01E0              ldi R16,1
 0884 0E940000          xcall _lcd_write_str
 0888                   .dbline 346
 0888           ;    lcd_write_str(1,2,"状态:");
 0888 80E0              ldi R24,<L131
 088A 90E0              ldi R25,>L131
 088C 9983              std y+1,R25
 088E 8883              std y+0,R24
 0890 22E0              ldi R18,2
 0892 01E0              ldi R16,1
 0894 0E940000          xcall _lcd_write_str
 0898                   .dbline 347
 0898           ;    lcd_write_str(0,3,"编辑");
 0898 80E0              ldi R24,<L132
 089A 90E0              ldi R25,>L132
 089C 9983              std y+1,R25
 089E 8883              std y+0,R24
 08A0 23E0              ldi R18,3
 08A2 0027              clr R16
 08A4 0E940000          xcall _lcd_write_str
 08A8                   .dbline 348
 08A8           ;    lcd_write_str(3,3,"运行");
 08A8 80E0              ldi R24,<L133
 08AA 90E0              ldi R25,>L133
 08AC 9983              std y+1,R25
 08AE 8883              std y+0,R24
 08B0 23E0              ldi R18,3
 08B2 03E0              ldi R16,3
 08B4 0E940000          xcall _lcd_write_str
 08B8                   .dbline 349
 08B8           ;    lcd_write_str(7,3,"暂停");
 08B8 80E0              ldi R24,<L37
 08BA 90E0              ldi R25,>L37
 08BC 9983              std y+1,R25
 08BE 8883              std y+0,R24
 08C0 23E0              ldi R18,3
 08C2 07E0              ldi R16,7
 08C4 0E940000          xcall _lcd_write_str
 08C8                   .dbline 350
 08C8           ;    lcd_write_str(10,3,"重置");
 08C8 80E0              ldi R24,<L134
 08CA 90E0              ldi R25,>L134
 08CC 9983              std y+1,R25
 08CE 8883              std y+0,R24
 08D0 23E0              ldi R18,3
 08D2 0AE0              ldi R16,10
 08D4 0E940000          xcall _lcd_write_str
 08D8                   .dbline 351
 08D8           ;    Set_White(1,3,2);
 08D8 82E0              ldi R24,2
 08DA 8883              std y+0,R24
 08DC 23E0              ldi R18,3
 08DE 01E0              ldi R16,1
 08E0 0E940000          xcall _Set_White
 08E4 6CC1              xjmp L136
 08E6           L135:
 08E6                   .dbline 353
 08E6           ;    //Set_White(9,2,10);
 08E6           ;     while(1){
 08E6                   .dbline 354
 08E6           ;       lcd_write_pos(2,0);
 08E6 2227              clr R18
 08E8 02E0              ldi R16,2
 08EA 0E940000          xcall _lcd_write_pos
 08EE                   .dbline 355
 08EE           ;       pageTime2(0);
 08EE 0027              clr R16
 08F0 1127              clr R17
 08F2 99DB              xcall _pageTime2
 08F4                   .dbline 357
 08F4           ;       //数据需要读入
 08F4           ;       lcd_write_pos(4,2);
 08F4 22E0              ldi R18,2
 08F6 04E0              ldi R16,4
 08F8 0E940000          xcall _lcd_write_pos
 08FC                   .dbline 358
 08FC           ;       switch(temps[pageParam[0]].flag){
 08FC 20910000          lds R18,_pageParam
 0900 30910100          lds R19,_pageParam+1
 0904 0AE0              ldi R16,266
 0906 11E0              ldi R17,1
 0908 0E940000          xcall empy16s
 090C 80E0              ldi R24,<_temps
 090E 90E0              ldi R25,>_temps
 0910 F801              movw R30,R16
 0912 E80F              add R30,R24
 0914 F91F              adc R31,R25
 0916 6081              ldd R22,z+0
 0918 7181              ldd R23,z+1
 091A 6030              cpi R22,0
 091C 6707              cpc R22,R23
 091E C9F0              breq L141
 0920           X80:
 0920 6130              cpi R22,1
 0922 E0E0              ldi R30,0
 0924 7E07              cpc R23,R30
 0926 D9F0              breq L142
 0928           X81:
 0928 6230              cpi R22,2
 092A E0E0              ldi R30,0
 092C 7E07              cpc R23,R30
 092E 49F1              breq L143
 0930           X82:
 0930 6330              cpi R22,3
 0932 E0E0              ldi R30,0
 0934 7E07              cpc R23,R30
 0936 59F1              breq L144
 0938           X83:
 0938 6430              cpi R22,4
 093A E0E0              ldi R30,0
 093C 7E07              cpc R23,R30
 093E 69F1              breq L145
 0940           X84:
 0940 6530              cpi R22,5
 0942 E0E0              ldi R30,0
 0944 7E07              cpc R23,R30
 0946 79F1              breq L146
 0948           X85:
 0948 6630              cpi R22,6
 094A E0E0              ldi R30,0
 094C 7E07              cpc R23,R30
 094E 89F1              breq L147
 0950           X86:
 0950 35C0              xjmp L139
 0952           L141:
 0952                   .dbline 360
 0952           ;            case 0: 
 0952           ;                  lcd_write_str_con(2,"停止");
 0952 20E0              ldi R18,<L31
 0954 30E0              ldi R19,>L31
 0956 02E0              ldi R16,2
 0958 0E940000          xcall _lcd_write_str_con
 095C                   .dbline 361
 095C           ;                  break;
 095C 2FC0              xjmp L139
 095E           L142:
 095E                   .dbline 364
 095E           ;                case 1:
 095E           ;                  //写温度
 095E           ;                  lcd_write_pos(4,1);
 095E 21E0              ldi R18,1
 0960 04E0              ldi R16,4
 0962 0E940000          xcall _lcd_write_pos
 0966                   .dbline 365
 0966           ;                  lcd_write_str_con(1,"150");
 0966 20E0              ldi R18,<L33
 0968 30E0              ldi R19,>L33
 096A 01E0              ldi R16,1
 096C 0E940000          xcall _lcd_write_str_con
 0970                   .dbline 366
 0970           ;                  lcd_write_char_con(1,0xA1);
 0970 21EA              ldi R18,161
 0972 01E0              ldi R16,1
 0974 0E940000          xcall _lcd_write_char_con
 0978                   .dbline 367
 0978           ;            lcd_write_char_con(1,0xE6);
 0978 26EE              ldi R18,230
 097A 01E0              ldi R16,1
 097C 0E940000          xcall _lcd_write_char_con
 0980                   .dbline 369
 0980           ;                  //写状态
 0980           ;                  break;
 0980 1DC0              xjmp L139
 0982           L143:
 0982                   .dbline 371
 0982           ;                case 2:
 0982           ;                  lcd_write_str_con(2,"故障");
 0982 20E0              ldi R18,<L35
 0984 30E0              ldi R19,>L35
 0986 02E0              ldi R16,2
 0988 0E940000          xcall _lcd_write_str_con
 098C                   .dbline 372
 098C           ;                  break;
 098C 17C0              xjmp L139
 098E           L144:
 098E                   .dbline 374
 098E           ;                case 3:
 098E           ;                  lcd_write_str_con(2,"暂停");
 098E 20E0              ldi R18,<L37
 0990 30E0              ldi R19,>L37
 0992 02E0              ldi R16,2
 0994 0E940000          xcall _lcd_write_str_con
 0998                   .dbline 375
 0998           ;                  break;
 0998 11C0              xjmp L139
 099A           L145:
 099A                   .dbline 377
 099A           ;                case 4:
 099A           ;                  lcd_write_str_con(2,"结束");
 099A 20E0              ldi R18,<L39
 099C 30E0              ldi R19,>L39
 099E 02E0              ldi R16,2
 09A0 0E940000          xcall _lcd_write_str_con
 09A4                   .dbline 378
 09A4           ;                  break;
 09A4 0BC0              xjmp L139
 09A6           L146:
 09A6                   .dbline 380
 09A6           ;                case 5:
 09A6           ;                  lcd_write_str_con(2,"等待");
 09A6 20E0              ldi R18,<L41
 09A8 30E0              ldi R19,>L41
 09AA 02E0              ldi R16,2
 09AC 0E940000          xcall _lcd_write_str_con
 09B0                   .dbline 381
 09B0           ;                  break;
 09B0 05C0              xjmp L139
 09B2           L147:
 09B2                   .dbline 383
 09B2           ;                case 6:
 09B2           ;                  lcd_write_str_con(2,"暂停");
 09B2 20E0              ldi R18,<L37
 09B4 30E0              ldi R19,>L37
 09B6 02E0              ldi R16,2
 09B8 0E940000          xcall _lcd_write_str_con
 09BC                   .dbline 384
 09BC           ;                  break;
 09BC                   .dbline 385
 09BC           ;                  break;
 09BC                   .dbline 387
 09BC           ;                default:
 09BC           ;                  break;
 09BC           L139:
 09BC                   .dbline 390
 09BC           ;          }
 09BC           ;       
 09BC           ;       keyV=KeyScan_once();  
 09BC 0E940000          xcall _KeyScan_once
 09C0 602F              mov R22,R16
 09C2                   .dbline 391
 09C2           ;         if(keyV=='e'){
 09C2 0536              cpi R16,101
 09C4 F9F4              brne L148
 09C6           X87:
 09C6                   .dbline 391
 09C6                   .dbline 392
 09C6           ;             Set_White_off(1,3,2);
 09C6 82E0              ldi R24,2
 09C8 8883              std y+0,R24
 09CA 23E0              ldi R18,3
 09CC 01E0              ldi R16,1
 09CE 0E940000          xcall _Set_White_off
 09D2                   .dbline 393
 09D2           ;                 Set_White_off(4,3,5);
 09D2 85E0              ldi R24,5
 09D4 8883              std y+0,R24
 09D6 23E0              ldi R18,3
 09D8 04E0              ldi R16,4
 09DA 0E940000          xcall _Set_White_off
 09DE                   .dbline 394
 09DE           ;                 Set_White_off(8,3,9);
 09DE 89E0              ldi R24,9
 09E0 8883              std y+0,R24
 09E2 23E0              ldi R18,3
 09E4 08E0              ldi R16,8
 09E6 0E940000          xcall _Set_White_off
 09EA                   .dbline 395
 09EA           ;                 Set_White_off(11,3,12);
 09EA 8CE0              ldi R24,12
 09EC 8883              std y+0,R24
 09EE 23E0              ldi R18,3
 09F0 0BE0              ldi R16,11
 09F2 0E940000          xcall _Set_White_off
 09F6                   .dbline 396
 09F6           ;                 pageNum=1;
 09F6 81E0              ldi R24,1
 09F8 90E0              ldi R25,0
 09FA 90930100          sts _pageNum+1,R25
 09FE 80930000          sts _pageNum,R24
 0A02                   .dbline 397
 0A02           ;                 return;
 0A02 DEC0              xjmp L128
 0A04           L148:
 0A04                   .dbline 398
 0A04           ;         }else if(keyV=='l'){
 0A04 6C36              cpi R22,108
 0A06 D1F5              brne L150
 0A08           X88:
 0A08                   .dbline 398
 0A08                   .dbline 399
 0A08           ;            switch(cur){
 0A08 4130              cpi R20,1
 0A0A E0E0              ldi R30,0
 0A0C 5E07              cpc R21,R30
 0A0E 49F0              breq L154
 0A10           X89:
 0A10 4230              cpi R20,2
 0A12 E0E0              ldi R30,0
 0A14 5E07              cpc R21,R30
 0A16 A1F0              breq L155
 0A18           X90:
 0A18 4330              cpi R20,3
 0A1A E0E0              ldi R30,0
 0A1C 5E07              cpc R21,R30
 0A1E F9F0              breq L156
 0A20           X91:
 0A20 CEC0              xjmp L151
 0A22           L154:
 0A22                   .dbline 401
 0A22           ;                  case 1:
 0A22           ;                    Set_White_off(4,3,5);
 0A22 85E0              ldi R24,5
 0A24 8883              std y+0,R24
 0A26 23E0              ldi R18,3
 0A28 04E0              ldi R16,4
 0A2A 0E940000          xcall _Set_White_off
 0A2E                   .dbline 402
 0A2E           ;                    Set_White(1,3,2);
 0A2E 82E0              ldi R24,2
 0A30 8883              std y+0,R24
 0A32 23E0              ldi R18,3
 0A34 01E0              ldi R16,1
 0A36 0E940000          xcall _Set_White
 0A3A                   .dbline 403
 0A3A           ;                        cur=0;
 0A3A 4427              clr R20
 0A3C 5527              clr R21
 0A3E                   .dbline 404
 0A3E           ;                    break;
 0A3E BFC0              xjmp L151
 0A40           L155:
 0A40                   .dbline 406
 0A40           ;                  case 2:
 0A40           ;                    Set_White_off(8,3,9);
 0A40 89E0              ldi R24,9
 0A42 8883              std y+0,R24
 0A44 23E0              ldi R18,3
 0A46 08E0              ldi R16,8
 0A48 0E940000          xcall _Set_White_off
 0A4C                   .dbline 407
 0A4C           ;                    Set_White(4,3,5);
 0A4C 85E0              ldi R24,5
 0A4E 8883              std y+0,R24
 0A50 23E0              ldi R18,3
 0A52 04E0              ldi R16,4
 0A54 0E940000          xcall _Set_White
 0A58                   .dbline 408
 0A58           ;                    cur=1;
 0A58 41E0              ldi R20,1
 0A5A 50E0              ldi R21,0
 0A5C                   .dbline 409
 0A5C           ;                    break;
 0A5C B0C0              xjmp L151
 0A5E           L156:
 0A5E                   .dbline 411
 0A5E           ;                  case 3:
 0A5E           ;                    Set_White_off(11,3,12);
 0A5E 8CE0              ldi R24,12
 0A60 8883              std y+0,R24
 0A62 23E0              ldi R18,3
 0A64 0BE0              ldi R16,11
 0A66 0E940000          xcall _Set_White_off
 0A6A                   .dbline 412
 0A6A           ;                    Set_White(8,3,9);
 0A6A 89E0              ldi R24,9
 0A6C 8883              std y+0,R24
 0A6E 23E0              ldi R18,3
 0A70 08E0              ldi R16,8
 0A72 0E940000          xcall _Set_White
 0A76                   .dbline 413
 0A76           ;                    cur=2;
 0A76 42E0              ldi R20,2
 0A78 50E0              ldi R21,0
 0A7A                   .dbline 414
 0A7A           ;                    break;
 0A7A                   .dbline 416
 0A7A           ;                }
 0A7A           ;         }else if(keyV=='r'){
 0A7A A1C0              xjmp L151
 0A7C           L150:
 0A7C                   .dbline 416
 0A7C 6237              cpi R22,114
 0A7E C9F5              brne L157
 0A80           X92:
 0A80                   .dbline 416
 0A80                   .dbline 417
 0A80           ;              switch(cur){
 0A80 4030              cpi R20,0
 0A82 4507              cpc R20,R21
 0A84 49F0              breq L161
 0A86           X93:
 0A86 4130              cpi R20,1
 0A88 E0E0              ldi R30,0
 0A8A 5E07              cpc R21,R30
 0A8C A1F0              breq L162
 0A8E           X94:
 0A8E 4230              cpi R20,2
 0A90 E0E0              ldi R30,0
 0A92 5E07              cpc R21,R30
 0A94 F9F0              breq L163
 0A96           X95:
 0A96 93C0              xjmp L158
 0A98           L161:
 0A98                   .dbline 419
 0A98           ;                  case 0:
 0A98           ;                    Set_White(4,3,5);
 0A98 85E0              ldi R24,5
 0A9A 8883              std y+0,R24
 0A9C 23E0              ldi R18,3
 0A9E 04E0              ldi R16,4
 0AA0 0E940000          xcall _Set_White
 0AA4                   .dbline 420
 0AA4           ;                    Set_White_off(1,3,2);
 0AA4 82E0              ldi R24,2
 0AA6 8883              std y+0,R24
 0AA8 23E0              ldi R18,3
 0AAA 01E0              ldi R16,1
 0AAC 0E940000          xcall _Set_White_off
 0AB0                   .dbline 421
 0AB0           ;                        cur=1;
 0AB0 41E0              ldi R20,1
 0AB2 50E0              ldi R21,0
 0AB4                   .dbline 422
 0AB4           ;                    break;
 0AB4 84C0              xjmp L158
 0AB6           L162:
 0AB6                   .dbline 424
 0AB6           ;                  case 1:
 0AB6           ;                    Set_White(8,3,9);
 0AB6 89E0              ldi R24,9
 0AB8 8883              std y+0,R24
 0ABA 23E0              ldi R18,3
 0ABC 08E0              ldi R16,8
 0ABE 0E940000          xcall _Set_White
 0AC2                   .dbline 425
 0AC2           ;                    Set_White_off(4,3,5);
 0AC2 85E0              ldi R24,5
 0AC4 8883              std y+0,R24
 0AC6 23E0              ldi R18,3
 0AC8 04E0              ldi R16,4
 0ACA 0E940000          xcall _Set_White_off
 0ACE                   .dbline 426
 0ACE           ;                    cur=2;
 0ACE 42E0              ldi R20,2
 0AD0 50E0              ldi R21,0
 0AD2                   .dbline 427
 0AD2           ;                    break;
 0AD2 75C0              xjmp L158
 0AD4           L163:
 0AD4                   .dbline 429
 0AD4           ;                  case 2:
 0AD4           ;                    Set_White(11,3,12);
 0AD4 8CE0              ldi R24,12
 0AD6 8883              std y+0,R24
 0AD8 23E0              ldi R18,3
 0ADA 0BE0              ldi R16,11
 0ADC 0E940000          xcall _Set_White
 0AE0                   .dbline 430
 0AE0           ;                    Set_White_off(8,3,9);
 0AE0 89E0              ldi R24,9
 0AE2 8883              std y+0,R24
 0AE4 23E0              ldi R18,3
 0AE6 08E0              ldi R16,8
 0AE8 0E940000          xcall _Set_White_off
 0AEC                   .dbline 431
 0AEC           ;                    cur=3;
 0AEC 43E0              ldi R20,3
 0AEE 50E0              ldi R21,0
 0AF0                   .dbline 432
 0AF0           ;                    break;
 0AF0                   .dbline 434
 0AF0           ;                }
 0AF0           ;         }else if(keyV=='t'){
 0AF0 66C0              xjmp L158
 0AF2           L157:
 0AF2                   .dbline 434
 0AF2 6437              cpi R22,116
 0AF4 09F0              breq X103
 0AF6 42C0              xjmp L164
 0AF8           X103:
 0AF8           X96:
 0AF8                   .dbline 434
 0AF8                   .dbline 435
 0AF8           ;              switch(cur){
 0AF8 4030              cpi R20,0
 0AFA 4507              cpc R20,R21
 0AFC 69F0              breq L168
 0AFE           X97:
 0AFE 4130              cpi R20,1
 0B00 E0E0              ldi R30,0
 0B02 5E07              cpc R21,R30
 0B04 B1F0              breq L169
 0B06           X98:
 0B06 4230              cpi R20,2
 0B08 E0E0              ldi R30,0
 0B0A 5E07              cpc R21,R30
 0B0C C9F0              breq L170
 0B0E           X99:
 0B0E 4330              cpi R20,3
 0B10 E0E0              ldi R30,0
 0B12 5E07              cpc R21,R30
 0B14 E1F0              breq L171
 0B16           X100:
 0B16 53C0              xjmp L165
 0B18           L168:
 0B18                   .dbline 437
 0B18           ;                  case 0:
 0B18           ;                    Set_White_off(1,3,2);
 0B18 82E0              ldi R24,2
 0B1A 8883              std y+0,R24
 0B1C 23E0              ldi R18,3
 0B1E 01E0              ldi R16,1
 0B20 0E940000          xcall _Set_White_off
 0B24                   .dbline 438
 0B24           ;                        pageNum=4;
 0B24 84E0              ldi R24,4
 0B26 90E0              ldi R25,0
 0B28 90930100          sts _pageNum+1,R25
 0B2C 80930000          sts _pageNum,R24
 0B30                   .dbline 439
 0B30           ;                    return;
 0B30 47C0              xjmp L128
 0B32           L169:
 0B32                   .dbline 442
 0B32           ;                  case 1:
 0B32           ;                    //运行操作
 0B32           ;                        set_start(pageParam[0]);
 0B32 00910000          lds R16,_pageParam
 0B36 10910100          lds R17,_pageParam+1
 0B3A 0E940000          xcall _set_start
 0B3E                   .dbline 443
 0B3E           ;                    break;
 0B3E 3FC0              xjmp L165
 0B40           L170:
 0B40                   .dbline 446
 0B40           ;                  case 2:
 0B40           ;                    //暂停操作
 0B40           ;                        set_stop(pageParam[0]);
 0B40 00910000          lds R16,_pageParam
 0B44 10910100          lds R17,_pageParam+1
 0B48 0E940000          xcall _set_stop
 0B4C                   .dbline 447
 0B4C           ;                    break;
 0B4C 38C0              xjmp L165
 0B4E           L171:
 0B4E                   .dbline 450
 0B4E           ;                 case 3:
 0B4E           ;                    //重置操作
 0B4E           ;                        Set_White_off(11,3,12);
 0B4E 8CE0              ldi R24,12
 0B50 8883              std y+0,R24
 0B52 23E0              ldi R18,3
 0B54 0BE0              ldi R16,11
 0B56 0E940000          xcall _Set_White_off
 0B5A                   .dbline 451
 0B5A           ;                        pageParam[2]=1;//表示重置是温度数据的
 0B5A 81E0              ldi R24,1
 0B5C 90E0              ldi R25,0
 0B5E 90930500          sts _pageParam+4+1,R25
 0B62 80930400          sts _pageParam+4,R24
 0B66                   .dbline 452
 0B66           ;                        prePageNum=3;
 0B66 83E0              ldi R24,3
 0B68 90930100          sts _prePageNum+1,R25
 0B6C 80930000          sts _prePageNum,R24
 0B70                   .dbline 453
 0B70           ;                    pageNum=7;
 0B70 87E0              ldi R24,7
 0B72 90930100          sts _pageNum+1,R25
 0B76 80930000          sts _pageNum,R24
 0B7A                   .dbline 454
 0B7A           ;                    return;
 0B7A 22C0              xjmp L128
 0B7C           L164:
 0B7C                   .dbline 456
 0B7C           ;                }
 0B7C           ;         }else if(keyV=='s'){
 0B7C 6337              cpi R22,115
 0B7E F9F4              brne L173
 0B80           X101:
 0B80                   .dbline 456
 0B80                   .dbline 457
 0B80           ;              Set_White_off(1,3,2);
 0B80 82E0              ldi R24,2
 0B82 8883              std y+0,R24
 0B84 23E0              ldi R18,3
 0B86 01E0              ldi R16,1
 0B88 0E940000          xcall _Set_White_off
 0B8C                   .dbline 458
 0B8C           ;                  Set_White_off(4,3,5);
 0B8C 85E0              ldi R24,5
 0B8E 8883              std y+0,R24
 0B90 23E0              ldi R18,3
 0B92 04E0              ldi R16,4
 0B94 0E940000          xcall _Set_White_off
 0B98                   .dbline 459
 0B98           ;                  Set_White_off(8,3,9);
 0B98 89E0              ldi R24,9
 0B9A 8883              std y+0,R24
 0B9C 23E0              ldi R18,3
 0B9E 08E0              ldi R16,8
 0BA0 0E940000          xcall _Set_White_off
 0BA4                   .dbline 460
 0BA4           ;                  Set_White_off(11,3,12);
 0BA4 8CE0              ldi R24,12
 0BA6 8883              std y+0,R24
 0BA8 23E0              ldi R18,3
 0BAA 0BE0              ldi R16,11
 0BAC 0E940000          xcall _Set_White_off
 0BB0                   .dbline 461
 0BB0           ;                       pageNum=4;
 0BB0 84E0              ldi R24,4
 0BB2 90E0              ldi R25,0
 0BB4 90930100          sts _pageNum+1,R25
 0BB8 80930000          sts _pageNum,R24
 0BBC                   .dbline 462
 0BBC           ;                    return;
 0BBC 01C0              xjmp L128
 0BBE           L173:
 0BBE           L165:
 0BBE           L158:
 0BBE           L151:
 0BBE                   .dbline 464
 0BBE           ;         }
 0BBE           ;       }
 0BBE           L136:
 0BBE                   .dbline 353
 0BBE 93CE              xjmp L135
 0BC0           X102:
 0BC0                   .dbline -2
 0BC0           L128:
 0BC0                   .dbline 0 ; func end
 0BC0 2296              adiw R28,2
 0BC2 0C940000          xjmp pop_xgsetF000
 0BC6                   .dbsym r cur 20 i
 0BC6                   .dbsym r keyV 22 c
 0BC6                   .dbend
 0BC6                   .dbfunc e page4_data _page4_data fV
 0BC6           ;           numL -> R14,R15
 0BC6           ;           numH -> R12,R13
 0BC6           ;       beginCur -> R20,R21
 0BC6           ;              i -> R22,R23
 0BC6           ;       dataCach -> R10,R11
 0BC6           ;              y -> y+12
                        .even
 0BC6           _page4_data::
 0BC6 0E940000          xcall push_arg4
 0BCA 0E940000          xcall push_xgsetF0FC
 0BCE 5901              movw R10,R18
 0BD0 2297              sbiw R28,2
 0BD2                   .dbline -1
 0BD2                   .dbline 467
 0BD2           ;  }
 0BD2           ;  //等下调用page_ac()函数改变ac写数据
 0BD2           ;  void page4_data(uint y,uint* dataCach){
 0BD2                   .dbline 468
 0BD2           ;       uint numH=0xA2;
 0BD2 82EA              ldi R24,162
 0BD4 90E0              ldi R25,0
 0BD6 6C01              movw R12,R24
 0BD8                   .dbline 469
 0BD8           ;       uint numL=0xC4;//带括号的123，低位加1是1、方便操作，需要加上即可
 0BD8 84EC              ldi R24,196
 0BDA 7C01              movw R14,R24
 0BDC                   .dbline 470
 0BDC           ;         uint i=0;
 0BDC 6627              clr R22
 0BDE 7727              clr R23
 0BE0                   .dbline 471
 0BE0           ;         uint beginCur=0;
 0BE0 4427              clr R20
 0BE2 5527              clr R21
 0BE4                   .dbline 473
 0BE4           ;     //这个判断需要些到读取值函数中去
 0BE4           ;        if(y<3){
 0BE4 8C85              ldd R24,y+12
 0BE6 9D85              ldd R25,y+13
 0BE8 8330              cpi R24,3
 0BEA E0E0              ldi R30,0
 0BEC 9E07              cpc R25,R30
 0BEE 30F5              brsh L176
 0BF0           X104:
 0BF0                   .dbline 473
 0BF0                   .dbline 474
 0BF0           ;          lcd_write_char(2,1,numH);
 0BF0 C882              std y+0,R12
 0BF2 21E0              ldi R18,1
 0BF4 02E0              ldi R16,2
 0BF6 0E940000          xcall _lcd_write_char
 0BFA                   .dbline 475
 0BFA           ;        lcd_write_char_con(1,numL+1);
 0BFA 9701              movw R18,R14
 0BFC 2F5F              subi R18,255  ; offset = 1
 0BFE 3F4F              sbci R19,255
 0C00 01E0              ldi R16,1
 0C02 0E940000          xcall _lcd_write_char_con
 0C06                   .dbline 476
 0C06           ;          lcd_write_char(2,2,numH);
 0C06 C882              std y+0,R12
 0C08 22E0              ldi R18,2
 0C0A 02E0              ldi R16,2
 0C0C 0E940000          xcall _lcd_write_char
 0C10                   .dbline 477
 0C10           ;        lcd_write_char_con(2,numL+2);
 0C10 9701              movw R18,R14
 0C12 2E5F              subi R18,254  ; offset = 2
 0C14 3F4F              sbci R19,255
 0C16 02E0              ldi R16,2
 0C18 0E940000          xcall _lcd_write_char_con
 0C1C                   .dbline 478
 0C1C           ;        lcd_write_char(2,3,numH);
 0C1C C882              std y+0,R12
 0C1E 23E0              ldi R18,3
 0C20 02E0              ldi R16,2
 0C22 0E940000          xcall _lcd_write_char
 0C26                   .dbline 479
 0C26           ;        lcd_write_char_con(3,numL+3);
 0C26 9701              movw R18,R14
 0C28 2D5F              subi R18,253  ; offset = 3
 0C2A 3F4F              sbci R19,255
 0C2C 03E0              ldi R16,3
 0C2E 0E940000          xcall _lcd_write_char_con
 0C32                   .dbline 480
 0C32           ;          y=0;
 0C32 0024              clr R0
 0C34 1124              clr R1
 0C36 1D86              std y+13,R1
 0C38 0C86              std y+12,R0
 0C3A                   .dbline 481
 0C3A           ;         }else if(y>=3 && y<6){
 0C3A 8FC0              xjmp L177
 0C3C           L176:
 0C3C                   .dbline 481
 0C3C 8C85              ldd R24,y+12
 0C3E 9D85              ldd R25,y+13
 0C40 8330              cpi R24,3
 0C42 E0E0              ldi R30,0
 0C44 9E07              cpc R25,R30
 0C46 50F1              brlo L178
 0C48           X105:
 0C48 8630              cpi R24,6
 0C4A E0E0              ldi R30,0
 0C4C 9E07              cpc R25,R30
 0C4E 30F5              brsh L178
 0C50           X106:
 0C50                   .dbline 481
 0C50                   .dbline 482
 0C50           ;          lcd_write_char(2,1,numH);
 0C50 C882              std y+0,R12
 0C52 21E0              ldi R18,1
 0C54 02E0              ldi R16,2
 0C56 0E940000          xcall _lcd_write_char
 0C5A                   .dbline 483
 0C5A           ;        lcd_write_char_con(1,numL+4);
 0C5A 9701              movw R18,R14
 0C5C 2C5F              subi R18,252  ; offset = 4
 0C5E 3F4F              sbci R19,255
 0C60 01E0              ldi R16,1
 0C62 0E940000          xcall _lcd_write_char_con
 0C66                   .dbline 484
 0C66           ;          lcd_write_char(2,2,numH);
 0C66 C882              std y+0,R12
 0C68 22E0              ldi R18,2
 0C6A 02E0              ldi R16,2
 0C6C 0E940000          xcall _lcd_write_char
 0C70                   .dbline 485
 0C70           ;        lcd_write_char_con(2,numL+5);
 0C70 9701              movw R18,R14
 0C72 2B5F              subi R18,251  ; offset = 5
 0C74 3F4F              sbci R19,255
 0C76 02E0              ldi R16,2
 0C78 0E940000          xcall _lcd_write_char_con
 0C7C                   .dbline 486
 0C7C           ;        lcd_write_char(2,3,numH);
 0C7C C882              std y+0,R12
 0C7E 23E0              ldi R18,3
 0C80 02E0              ldi R16,2
 0C82 0E940000          xcall _lcd_write_char
 0C86                   .dbline 487
 0C86           ;        lcd_write_char_con(3,numL+6);
 0C86 9701              movw R18,R14
 0C88 2A5F              subi R18,250  ; offset = 6
 0C8A 3F4F              sbci R19,255
 0C8C 03E0              ldi R16,3
 0C8E 0E940000          xcall _lcd_write_char_con
 0C92                   .dbline 488
 0C92           ;          y=1;
 0C92 81E0              ldi R24,1
 0C94 90E0              ldi R25,0
 0C96 9D87              std y+13,R25
 0C98 8C87              std y+12,R24
 0C9A                   .dbline 489
 0C9A           ;         }else if(y>=6 && y<9){
 0C9A 5FC0              xjmp L179
 0C9C           L178:
 0C9C                   .dbline 489
 0C9C 8C85              ldd R24,y+12
 0C9E 9D85              ldd R25,y+13
 0CA0 8630              cpi R24,6
 0CA2 E0E0              ldi R30,0
 0CA4 9E07              cpc R25,R30
 0CA6 50F1              brlo L180
 0CA8           X107:
 0CA8 8930              cpi R24,9
 0CAA E0E0              ldi R30,0
 0CAC 9E07              cpc R25,R30
 0CAE 30F5              brsh L180
 0CB0           X108:
 0CB0                   .dbline 489
 0CB0                   .dbline 490
 0CB0           ;          lcd_write_char(2,1,numH);
 0CB0 C882              std y+0,R12
 0CB2 21E0              ldi R18,1
 0CB4 02E0              ldi R16,2
 0CB6 0E940000          xcall _lcd_write_char
 0CBA                   .dbline 491
 0CBA           ;        lcd_write_char_con(1,numL+7);
 0CBA 9701              movw R18,R14
 0CBC 295F              subi R18,249  ; offset = 7
 0CBE 3F4F              sbci R19,255
 0CC0 01E0              ldi R16,1
 0CC2 0E940000          xcall _lcd_write_char_con
 0CC6                   .dbline 492
 0CC6           ;          lcd_write_char(2,2,numH);
 0CC6 C882              std y+0,R12
 0CC8 22E0              ldi R18,2
 0CCA 02E0              ldi R16,2
 0CCC 0E940000          xcall _lcd_write_char
 0CD0                   .dbline 493
 0CD0           ;        lcd_write_char_con(2,numL+8);
 0CD0 9701              movw R18,R14
 0CD2 285F              subi R18,248  ; offset = 8
 0CD4 3F4F              sbci R19,255
 0CD6 02E0              ldi R16,2
 0CD8 0E940000          xcall _lcd_write_char_con
 0CDC                   .dbline 494
 0CDC           ;        lcd_write_char(2,3,numH);
 0CDC C882              std y+0,R12
 0CDE 23E0              ldi R18,3
 0CE0 02E0              ldi R16,2
 0CE2 0E940000          xcall _lcd_write_char
 0CE6                   .dbline 495
 0CE6           ;        lcd_write_char_con(3,numL+9);
 0CE6 9701              movw R18,R14
 0CE8 275F              subi R18,247  ; offset = 9
 0CEA 3F4F              sbci R19,255
 0CEC 03E0              ldi R16,3
 0CEE 0E940000          xcall _lcd_write_char_con
 0CF2                   .dbline 496
 0CF2           ;          y=2;
 0CF2 82E0              ldi R24,2
 0CF4 90E0              ldi R25,0
 0CF6 9D87              std y+13,R25
 0CF8 8C87              std y+12,R24
 0CFA                   .dbline 497
 0CFA           ;         }else if(y>=9 && y<12){
 0CFA 2FC0              xjmp L181
 0CFC           L180:
 0CFC                   .dbline 497
 0CFC 8C85              ldd R24,y+12
 0CFE 9D85              ldd R25,y+13
 0D00 8930              cpi R24,9
 0D02 E0E0              ldi R30,0
 0D04 9E07              cpc R25,R30
 0D06 48F1              brlo L182
 0D08           X109:
 0D08 8C30              cpi R24,12
 0D0A E0E0              ldi R30,0
 0D0C 9E07              cpc R25,R30
 0D0E 28F5              brsh L182
 0D10           X110:
 0D10                   .dbline 497
 0D10                   .dbline 498
 0D10           ;          lcd_write_char(2,1,numH);
 0D10 C882              std y+0,R12
 0D12 21E0              ldi R18,1
 0D14 02E0              ldi R16,2
 0D16 0E940000          xcall _lcd_write_char
 0D1A                   .dbline 499
 0D1A           ;        lcd_write_char_con(1,numL+10);
 0D1A 9701              movw R18,R14
 0D1C 265F              subi R18,246  ; offset = 10
 0D1E 3F4F              sbci R19,255
 0D20 01E0              ldi R16,1
 0D22 0E940000          xcall _lcd_write_char_con
 0D26                   .dbline 500
 0D26           ;          lcd_write_char(2,2,numH);
 0D26 C882              std y+0,R12
 0D28 22E0              ldi R18,2
 0D2A 02E0              ldi R16,2
 0D2C 0E940000          xcall _lcd_write_char
 0D30                   .dbline 501
 0D30           ;        lcd_write_char_con(2,numL+11);
 0D30 9701              movw R18,R14
 0D32 255F              subi R18,245  ; offset = 11
 0D34 3F4F              sbci R19,255
 0D36 02E0              ldi R16,2
 0D38 0E940000          xcall _lcd_write_char_con
 0D3C                   .dbline 502
 0D3C           ;        lcd_write_char(2,3,numH);
 0D3C C882              std y+0,R12
 0D3E 23E0              ldi R18,3
 0D40 02E0              ldi R16,2
 0D42 0E940000          xcall _lcd_write_char
 0D46                   .dbline 503
 0D46           ;        lcd_write_char_con(3,numL+12);
 0D46 9701              movw R18,R14
 0D48 245F              subi R18,244  ; offset = 12
 0D4A 3F4F              sbci R19,255
 0D4C 03E0              ldi R16,3
 0D4E 0E940000          xcall _lcd_write_char_con
 0D52                   .dbline 504
 0D52           ;          y=3;
 0D52 83E0              ldi R24,3
 0D54 90E0              ldi R25,0
 0D56 9D87              std y+13,R25
 0D58 8C87              std y+12,R24
 0D5A                   .dbline 505
 0D5A           ;         }
 0D5A           L182:
 0D5A           L181:
 0D5A           L179:
 0D5A           L177:
 0D5A                   .dbline 507
 0D5A           ;         //还要做数据读取操作
 0D5A           ;         beginCur=y*33;//获得首个数据
 0D5A 01E2              ldi R16,33
 0D5C 10E0              ldi R17,0
 0D5E 2C85              ldd R18,y+12
 0D60 3D85              ldd R19,y+13
 0D62 0E940000          xcall empy16s
 0D66 A801              movw R20,R16
 0D68                   .dbline 508
 0D68           ;         for(i=1;i<=3;i++){
 0D68 61E0              ldi R22,1
 0D6A 70E0              ldi R23,0
 0D6C C5C0              xjmp L187
 0D6E           L184:
 0D6E                   .dbline 508
 0D6E                   .dbline 509
 0D6E           ;           if(i==1){//第一次进入需要判断，首位写不许用++
 0D6E 6130              cpi R22,1
 0D70 E0E0              ldi R30,0
 0D72 7E07              cpc R23,R30
 0D74 71F4              brne L188
 0D76           X111:
 0D76                   .dbline 509
 0D76                   .dbline 510
 0D76           ;                lcd_write_char(3,i,0x30 | *(dataCach+beginCur));
 0D76 FA01              movw R30,R20
 0D78 EE0F              lsl R30
 0D7A FF1F              rol R31
 0D7C EA0D              add R30,R10
 0D7E FB1D              adc R31,R11
 0D80 8081              ldd R24,z+0
 0D82 9181              ldd R25,z+1
 0D84 8063              ori R24,48
 0D86 8883              std y+0,R24
 0D88 262F              mov R18,R22
 0D8A 03E0              ldi R16,3
 0D8C 0E940000          xcall _lcd_write_char
 0D90                   .dbline 511
 0D90           ;               }else{
 0D90 10C0              xjmp L189
 0D92           L188:
 0D92                   .dbline 511
 0D92                   .dbline 512
 0D92           ;                lcd_write_char(3,i,0x30 | *(dataCach+(++beginCur)));
 0D92 CA01              movw R24,R20
 0D94 0196              adiw R24,1
 0D96 AC01              movw R20,R24
 0D98 FC01              movw R30,R24
 0D9A EE0F              lsl R30
 0D9C FF1F              rol R31
 0D9E EA0D              add R30,R10
 0DA0 FB1D              adc R31,R11
 0DA2 8081              ldd R24,z+0
 0DA4 9181              ldd R25,z+1
 0DA6 8063              ori R24,48
 0DA8 8883              std y+0,R24
 0DAA 262F              mov R18,R22
 0DAC 03E0              ldi R16,3
 0DAE 0E940000          xcall _lcd_write_char
 0DB2                   .dbline 513
 0DB2           ;               }
 0DB2           L189:
 0DB2                   .dbline 514
 0DB2           ;         lcd_write_char_con(i,0x30 | *(dataCach+(++beginCur)));
 0DB2 CA01              movw R24,R20
 0DB4 0196              adiw R24,1
 0DB6 AC01              movw R20,R24
 0DB8 FC01              movw R30,R24
 0DBA EE0F              lsl R30
 0DBC FF1F              rol R31
 0DBE EA0D              add R30,R10
 0DC0 FB1D              adc R31,R11
 0DC2 2081              ldd R18,z+0
 0DC4 3181              ldd R19,z+1
 0DC6 2063              ori R18,48
 0DC8 062F              mov R16,R22
 0DCA 0E940000          xcall _lcd_write_char_con
 0DCE                   .dbline 515
 0DCE           ;                lcd_write_str_con(i,": ");
 0DCE 20E0              ldi R18,<L190
 0DD0 30E0              ldi R19,>L190
 0DD2 062F              mov R16,R22
 0DD4 0E940000          xcall _lcd_write_str_con
 0DD8                   .dbline 516
 0DD8           ;            lcd_write_char_con(i,0x30 | *(dataCach+(++beginCur)));
 0DD8 CA01              movw R24,R20
 0DDA 0196              adiw R24,1
 0DDC AC01              movw R20,R24
 0DDE FC01              movw R30,R24
 0DE0 EE0F              lsl R30
 0DE2 FF1F              rol R31
 0DE4 EA0D              add R30,R10
 0DE6 FB1D              adc R31,R11
 0DE8 2081              ldd R18,z+0
 0DEA 3181              ldd R19,z+1
 0DEC 2063              ori R18,48
 0DEE 062F              mov R16,R22
 0DF0 0E940000          xcall _lcd_write_char_con
 0DF4                   .dbline 517
 0DF4           ;                lcd_write_char_con(i,0x30 | *(dataCach+(++beginCur)));
 0DF4 CA01              movw R24,R20
 0DF6 0196              adiw R24,1
 0DF8 AC01              movw R20,R24
 0DFA FC01              movw R30,R24
 0DFC EE0F              lsl R30
 0DFE FF1F              rol R31
 0E00 EA0D              add R30,R10
 0E02 FB1D              adc R31,R11
 0E04 2081              ldd R18,z+0
 0E06 3181              ldd R19,z+1
 0E08 2063              ori R18,48
 0E0A 062F              mov R16,R22
 0E0C 0E940000          xcall _lcd_write_char_con
 0E10                   .dbline 519
 0E10           ;                
 0E10           ;                lcd_write_char(7,i,0x30 | *(dataCach+(++beginCur)));
 0E10 CA01              movw R24,R20
 0E12 0196              adiw R24,1
 0E14 AC01              movw R20,R24
 0E16 FC01              movw R30,R24
 0E18 EE0F              lsl R30
 0E1A FF1F              rol R31
 0E1C EA0D              add R30,R10
 0E1E FB1D              adc R31,R11
 0E20 8081              ldd R24,z+0
 0E22 9181              ldd R25,z+1
 0E24 8063              ori R24,48
 0E26 8883              std y+0,R24
 0E28 262F              mov R18,R22
 0E2A 07E0              ldi R16,7
 0E2C 0E940000          xcall _lcd_write_char
 0E30                   .dbline 520
 0E30           ;                lcd_write_char_con(i,0x30 | *(dataCach+(++beginCur)));
 0E30 CA01              movw R24,R20
 0E32 0196              adiw R24,1
 0E34 AC01              movw R20,R24
 0E36 FC01              movw R30,R24
 0E38 EE0F              lsl R30
 0E3A FF1F              rol R31
 0E3C EA0D              add R30,R10
 0E3E FB1D              adc R31,R11
 0E40 2081              ldd R18,z+0
 0E42 3181              ldd R19,z+1
 0E44 2063              ori R18,48
 0E46 062F              mov R16,R22
 0E48 0E940000          xcall _lcd_write_char_con
 0E4C                   .dbline 521
 0E4C           ;                 lcd_write_str_con(i,": ");
 0E4C 20E0              ldi R18,<L190
 0E4E 30E0              ldi R19,>L190
 0E50 062F              mov R16,R22
 0E52 0E940000          xcall _lcd_write_str_con
 0E56                   .dbline 522
 0E56           ;                lcd_write_char_con(i,0x30 | *(dataCach+(++beginCur)));
 0E56 CA01              movw R24,R20
 0E58 0196              adiw R24,1
 0E5A AC01              movw R20,R24
 0E5C FC01              movw R30,R24
 0E5E EE0F              lsl R30
 0E60 FF1F              rol R31
 0E62 EA0D              add R30,R10
 0E64 FB1D              adc R31,R11
 0E66 2081              ldd R18,z+0
 0E68 3181              ldd R19,z+1
 0E6A 2063              ori R18,48
 0E6C 062F              mov R16,R22
 0E6E 0E940000          xcall _lcd_write_char_con
 0E72                   .dbline 523
 0E72           ;                lcd_write_char_con(i,0x30 | *(dataCach+(++beginCur)));
 0E72 CA01              movw R24,R20
 0E74 0196              adiw R24,1
 0E76 AC01              movw R20,R24
 0E78 FC01              movw R30,R24
 0E7A EE0F              lsl R30
 0E7C FF1F              rol R31
 0E7E EA0D              add R30,R10
 0E80 FB1D              adc R31,R11
 0E82 2081              ldd R18,z+0
 0E84 3181              ldd R19,z+1
 0E86 2063              ori R18,48
 0E88 062F              mov R16,R22
 0E8A 0E940000          xcall _lcd_write_char_con
 0E8E                   .dbline 525
 0E8E           ;                
 0E8E           ;                lcd_write_str(10,i," ");
 0E8E 80E0              ldi R24,<L191
 0E90 90E0              ldi R25,>L191
 0E92 9983              std y+1,R25
 0E94 8883              std y+0,R24
 0E96 262F              mov R18,R22
 0E98 0AE0              ldi R16,10
 0E9A 0E940000          xcall _lcd_write_str
 0E9E                   .dbline 526
 0E9E           ;                lcd_write_char_con(i,0x30 | *(dataCach+(++beginCur)));
 0E9E CA01              movw R24,R20
 0EA0 0196              adiw R24,1
 0EA2 AC01              movw R20,R24
 0EA4 FC01              movw R30,R24
 0EA6 EE0F              lsl R30
 0EA8 FF1F              rol R31
 0EAA EA0D              add R30,R10
 0EAC FB1D              adc R31,R11
 0EAE 2081              ldd R18,z+0
 0EB0 3181              ldd R19,z+1
 0EB2 2063              ori R18,48
 0EB4 062F              mov R16,R22
 0EB6 0E940000          xcall _lcd_write_char_con
 0EBA                   .dbline 527
 0EBA           ;                lcd_write_char_con(i,0x30 | *(dataCach+(++beginCur)));
 0EBA CA01              movw R24,R20
 0EBC 0196              adiw R24,1
 0EBE AC01              movw R20,R24
 0EC0 FC01              movw R30,R24
 0EC2 EE0F              lsl R30
 0EC4 FF1F              rol R31
 0EC6 EA0D              add R30,R10
 0EC8 FB1D              adc R31,R11
 0ECA 2081              ldd R18,z+0
 0ECC 3181              ldd R19,z+1
 0ECE 2063              ori R18,48
 0ED0 062F              mov R16,R22
 0ED2 0E940000          xcall _lcd_write_char_con
 0ED6                   .dbline 528
 0ED6           ;                lcd_write_char_con(i,0x30 | *(dataCach+(++beginCur)));
 0ED6 CA01              movw R24,R20
 0ED8 0196              adiw R24,1
 0EDA 6C01              movw R12,R24
 0EDC AC01              movw R20,R24
 0EDE FC01              movw R30,R24
 0EE0 EE0F              lsl R30
 0EE2 FF1F              rol R31
 0EE4 EA0D              add R30,R10
 0EE6 FB1D              adc R31,R11
 0EE8 2081              ldd R18,z+0
 0EEA 3181              ldd R19,z+1
 0EEC 2063              ori R18,48
 0EEE 062F              mov R16,R22
 0EF0 0E940000          xcall _lcd_write_char_con
 0EF4                   .dbline 529
 0EF4           ;         }
 0EF4           L185:
 0EF4                   .dbline 508
 0EF4 6F5F              subi R22,255  ; offset = 1
 0EF6 7F4F              sbci R23,255
 0EF8           L187:
 0EF8                   .dbline 508
 0EF8 83E0              ldi R24,3
 0EFA 90E0              ldi R25,0
 0EFC 8617              cp R24,R22
 0EFE 9707              cpc R25,R23
 0F00 08F0              brlo X113
 0F02 35CF              xjmp L184
 0F04           X113:
 0F04           X112:
 0F04                   .dbline -2
 0F04           L175:
 0F04                   .dbline 0 ; func end
 0F04 2296              adiw R28,2
 0F06 0E940000          xcall pop_xgsetF0FC
 0F0A 2496              adiw R28,4
 0F0C 0895              ret
 0F0E                   .dbsym r numL 14 i
 0F0E                   .dbsym r numH 12 i
 0F0E                   .dbsym r beginCur 20 i
 0F0E                   .dbsym r i 22 i
 0F0E                   .dbsym r dataCach 10 pi
 0F0E                   .dbsym l y 12 i
 0F0E                   .dbend
 0F0E                   .dbfunc e page4_ac _page4_ac fV
 0F0E           ;              y -> R10,R11
 0F0E           ;              x -> R22,R23
 0F0E           ;          lcd_y -> R20,R21
 0F0E           ;       dataCach -> R12,R13
 0F0E           ;         oldcur -> y+12
 0F0E           ;            cur -> y+10
                        .even
 0F0E           _page4_ac::
 0F0E 0E940000          xcall push_arg4
 0F12 0E940000          xcall push_xgsetF0FC
 0F16 CE84              ldd R12,y+14
 0F18 DF84              ldd R13,y+15
 0F1A                   .dbline -1
 0F1A                   .dbline 533
 0F1A           ;         
 0F1A           ;  }
 0F1A           ;  //传入cur做ac位置操作,判断是否翻页
 0F1A           ;  void page4_ac(uint cur,uint oldcur,uint* dataCach){
 0F1A                   .dbline 534
 0F1A           ;       uint y=cur/11;//逻辑y.从0开始
 0F1A 2BE0              ldi R18,11
 0F1C 30E0              ldi R19,0
 0F1E 0A85              ldd R16,y+10
 0F20 1B85              ldd R17,y+11
 0F22 0E940000          xcall div16u
 0F26 5801              movw R10,R16
 0F28                   .dbline 536
 0F28           ;         uint lcd_y;//显示y
 0F28           ;         uint x=cur%11;//x轴
 0F28 2BE0              ldi R18,11
 0F2A 30E0              ldi R19,0
 0F2C 0A85              ldd R16,y+10
 0F2E 1B85              ldd R17,y+11
 0F30 0E940000          xcall mod16u
 0F34 B801              movw R22,R16
 0F36                   .dbline 537
 0F36           ;         switch(y%3){
 0F36 23E0              ldi R18,3
 0F38 30E0              ldi R19,0
 0F3A 8501              movw R16,R10
 0F3C 0E940000          xcall mod16u
 0F40 7801              movw R14,R16
 0F42 0030              cpi R16,0
 0F44 0107              cpc R16,R17
 0F46 51F0              breq L196
 0F48           X114:
 0F48 C701              movw R24,R14
 0F4A 0130              cpi R16,1
 0F4C E0E0              ldi R30,0
 0F4E 1E07              cpc R17,R30
 0F50 41F0              breq L197
 0F52           X115:
 0F52 0230              cpi R16,2
 0F54 E0E0              ldi R30,0
 0F56 1E07              cpc R17,R30
 0F58 39F0              breq L198
 0F5A           X116:
 0F5A 08C0              xjmp L193
 0F5C           L196:
 0F5C                   .dbline 539
 0F5C           ;          case 0://1行
 0F5C           ;            lcd_y=1;
 0F5C 41E0              ldi R20,1
 0F5E 50E0              ldi R21,0
 0F60                   .dbline 540
 0F60           ;            break;
 0F60 05C0              xjmp L194
 0F62           L197:
 0F62                   .dbline 542
 0F62           ;          case 1://2行
 0F62           ;            lcd_y=2;
 0F62 42E0              ldi R20,2
 0F64 50E0              ldi R21,0
 0F66                   .dbline 543
 0F66           ;                break;
 0F66 02C0              xjmp L194
 0F68           L198:
 0F68                   .dbline 545
 0F68           ;          case 2://3行
 0F68           ;            lcd_y=3;
 0F68 43E0              ldi R20,3
 0F6A 50E0              ldi R21,0
 0F6C                   .dbline 546
 0F6C           ;            break;
 0F6C           L193:
 0F6C           L194:
 0F6C                   .dbline 548
 0F6C           ;         }
 0F6C           ;         switch((oldcur/11)/3){
 0F6C 2BE0              ldi R18,11
 0F6E 30E0              ldi R19,0
 0F70 0C85              ldd R16,y+12
 0F72 1D85              ldd R17,y+13
 0F74 0E940000          xcall div16u
 0F78 23E0              ldi R18,3
 0F7A 30E0              ldi R19,0
 0F7C 0E940000          xcall div16u
 0F80 7801              movw R14,R16
 0F82 0030              cpi R16,0
 0F84 0107              cpc R16,R17
 0F86 71F0              breq L202
 0F88           X117:
 0F88 C701              movw R24,R14
 0F8A 0130              cpi R16,1
 0F8C E0E0              ldi R30,0
 0F8E 1E07              cpc R17,R30
 0F90 A1F0              breq L205
 0F92           X118:
 0F92 0230              cpi R16,2
 0F94 E0E0              ldi R30,0
 0F96 1E07              cpc R17,R30
 0F98 01F1              breq L209
 0F9A           X119:
 0F9A 0330              cpi R16,3
 0F9C E0E0              ldi R30,0
 0F9E 1E07              cpc R17,R30
 0FA0 69F1              breq L213
 0FA2           X120:
 0FA2 35C0              xjmp L199
 0FA4           L202:
 0FA4                   .dbline 550
 0FA4           ;           case 0:
 0FA4           ;                if(cur>32){
 0FA4 80E2              ldi R24,32
 0FA6 90E0              ldi R25,0
 0FA8 0A84              ldd R0,y+10
 0FAA 1B84              ldd R1,y+11
 0FAC 8015              cp R24,R0
 0FAE 9105              cpc R25,R1
 0FB0 70F5              brsh L200
 0FB2           X121:
 0FB2                   .dbline 550
 0FB2                   .dbline 551
 0FB2           ;                  page4_data(y,dataCach);
 0FB2 9601              movw R18,R12
 0FB4 8501              movw R16,R10
 0FB6 07DE              xcall _page4_data
 0FB8                   .dbline 552
 0FB8           ;                }
 0FB8                   .dbline 553
 0FB8           ;                break;
 0FB8 2AC0              xjmp L200
 0FBA           L205:
 0FBA                   .dbline 555
 0FBA           ;               case 1:
 0FBA           ;                 if(cur>65 || cur<33){
 0FBA 81E4              ldi R24,65
 0FBC 90E0              ldi R25,0
 0FBE 0A84              ldd R0,y+10
 0FC0 1B84              ldd R1,y+11
 0FC2 8015              cp R24,R0
 0FC4 9105              cpc R25,R1
 0FC6 28F0              brlo L208
 0FC8           X122:
 0FC8 C001              movw R24,R0
 0FCA 8132              cpi R24,33
 0FCC E0E0              ldi R30,0
 0FCE 9E07              cpc R25,R30
 0FD0 F0F4              brsh L200
 0FD2           X123:
 0FD2           L208:
 0FD2                   .dbline 555
 0FD2                   .dbline 556
 0FD2           ;                  page4_data(y,dataCach);
 0FD2 9601              movw R18,R12
 0FD4 8501              movw R16,R10
 0FD6 F7DD              xcall _page4_data
 0FD8                   .dbline 557
 0FD8           ;                }
 0FD8                   .dbline 558
 0FD8           ;                break;
 0FD8 1AC0              xjmp L200
 0FDA           L209:
 0FDA                   .dbline 560
 0FDA           ;               case 2:
 0FDA           ;               if(cur<66 || cur>98){
 0FDA 8A85              ldd R24,y+10
 0FDC 9B85              ldd R25,y+11
 0FDE 8234              cpi R24,66
 0FE0 E0E0              ldi R30,0
 0FE2 9E07              cpc R25,R30
 0FE4 38F0              brlo L212
 0FE6           X124:
 0FE6 82E6              ldi R24,98
 0FE8 90E0              ldi R25,0
 0FEA 0A84              ldd R0,y+10
 0FEC 1B84              ldd R1,y+11
 0FEE 8015              cp R24,R0
 0FF0 9105              cpc R25,R1
 0FF2 68F4              brsh L200
 0FF4           X125:
 0FF4           L212:
 0FF4                   .dbline 560
 0FF4                   .dbline 561
 0FF4           ;                  page4_data(y,dataCach);
 0FF4 9601              movw R18,R12
 0FF6 8501              movw R16,R10
 0FF8 E6DD              xcall _page4_data
 0FFA                   .dbline 562
 0FFA           ;                }
 0FFA                   .dbline 563
 0FFA           ;                break;
 0FFA 09C0              xjmp L200
 0FFC           L213:
 0FFC                   .dbline 565
 0FFC           ;               case 3:
 0FFC           ;               if(cur<99){
 0FFC 8A85              ldd R24,y+10
 0FFE 9B85              ldd R25,y+11
 1000 8336              cpi R24,99
 1002 E0E0              ldi R30,0
 1004 9E07              cpc R25,R30
 1006 18F4              brsh L200
 1008           X126:
 1008                   .dbline 565
 1008                   .dbline 566
 1008           ;                  page4_data(y,dataCach);
 1008 9601              movw R18,R12
 100A 8501              movw R16,R10
 100C DCDD              xcall _page4_data
 100E                   .dbline 567
 100E           ;                }
 100E                   .dbline 568
 100E           ;                break;
 100E           L199:
 100E           L200:
 100E                   .dbline 570
 100E           ;         }
 100E           ;         if(lcd_y==1){
 100E 4130              cpi R20,1
 1010 E0E0              ldi R30,0
 1012 5E07              cpc R21,R30
 1014 49F4              brne L216
 1016           X127:
 1016                   .dbline 570
 1016                   .dbline 571
 1016           ;            cur_set(3);
 1016 03E0              ldi R16,3
 1018 10E0              ldi R17,0
 101A 0E940000          xcall _cur_set
 101E                   .dbline 572
 101E           ;                cur_set(4);
 101E 04E0              ldi R16,4
 1020 10E0              ldi R17,0
 1022 0E940000          xcall _cur_set
 1026                   .dbline 573
 1026           ;         }else if(lcd_y==2 || lcd_y==3){
 1026 10C0              xjmp L217
 1028           L216:
 1028                   .dbline 573
 1028 4230              cpi R20,2
 102A E0E0              ldi R30,0
 102C 5E07              cpc R21,R30
 102E 21F0              breq L220
 1030           X128:
 1030 4330              cpi R20,3
 1032 E0E0              ldi R30,0
 1034 5E07              cpc R21,R30
 1036 41F4              brne L218
 1038           X129:
 1038           L220:
 1038                   .dbline 573
 1038                   .dbline 574
 1038           ;            cur_set(0);
 1038 0027              clr R16
 103A 1127              clr R17
 103C 0E940000          xcall _cur_set
 1040                   .dbline 575
 1040           ;                cur_set(7);
 1040 07E0              ldi R16,7
 1042 10E0              ldi R17,0
 1044 0E940000          xcall _cur_set
 1048                   .dbline 576
 1048           ;         }
 1048           L218:
 1048           L217:
 1048                   .dbline 577
 1048           ;         if(x==0){
 1048 6030              cpi R22,0
 104A 6707              cpc R22,R23
 104C 29F4              brne L221
 104E           X130:
 104E                   .dbline 577
 104E                   .dbline 578
 104E           ;             lcd_write_pos(3,lcd_y);
 104E 242F              mov R18,R20
 1050 03E0              ldi R16,3
 1052 0E940000          xcall _lcd_write_pos
 1056                   .dbline 579
 1056           ;         }else if(x==2){
 1056 31C0              xjmp L192
 1058           L221:
 1058                   .dbline 579
 1058 6230              cpi R22,2
 105A E0E0              ldi R30,0
 105C 7E07              cpc R23,R30
 105E 29F4              brne L223
 1060           X131:
 1060                   .dbline 579
 1060                   .dbline 580
 1060           ;              lcd_write_pos(5,lcd_y);
 1060 242F              mov R18,R20
 1062 05E0              ldi R16,5
 1064 0E940000          xcall _lcd_write_pos
 1068                   .dbline 581
 1068           ;         }else if(x==4){
 1068 28C0              xjmp L192
 106A           L223:
 106A                   .dbline 581
 106A 6430              cpi R22,4
 106C E0E0              ldi R30,0
 106E 7E07              cpc R23,R30
 1070 29F4              brne L225
 1072           X132:
 1072                   .dbline 581
 1072                   .dbline 582
 1072           ;               lcd_write_pos(7,lcd_y);
 1072 242F              mov R18,R20
 1074 07E0              ldi R16,7
 1076 0E940000          xcall _lcd_write_pos
 107A                   .dbline 583
 107A           ;         }else if(x==6){
 107A 1FC0              xjmp L192
 107C           L225:
 107C                   .dbline 583
 107C 6630              cpi R22,6
 107E E0E0              ldi R30,0
 1080 7E07              cpc R23,R30
 1082 29F4              brne L227
 1084           X133:
 1084                   .dbline 583
 1084                   .dbline 584
 1084           ;               lcd_write_pos(9,lcd_y);
 1084 242F              mov R18,R20
 1086 09E0              ldi R16,9
 1088 0E940000          xcall _lcd_write_pos
 108C                   .dbline 585
 108C           ;         }else if(x==8){
 108C 16C0              xjmp L192
 108E           L227:
 108E                   .dbline 585
 108E 6830              cpi R22,8
 1090 E0E0              ldi R30,0
 1092 7E07              cpc R23,R30
 1094 51F4              brne L229
 1096           X134:
 1096                   .dbline 585
 1096                   .dbline 586
 1096           ;               lcd_write_pos(10,lcd_y);
 1096 242F              mov R18,R20
 1098 0AE0              ldi R16,10
 109A 0E940000          xcall _lcd_write_pos
 109E                   .dbline 587
 109E           ;                       lcd_write_str_con(lcd_y," ");
 109E 20E0              ldi R18,<L191
 10A0 30E0              ldi R19,>L191
 10A2 042F              mov R16,R20
 10A4 0E940000          xcall _lcd_write_str_con
 10A8                   .dbline 588
 10A8           ;         }else if(x==9){
 10A8 08C0              xjmp L192
 10AA           L229:
 10AA                   .dbline 588
 10AA 6930              cpi R22,9
 10AC E0E0              ldi R30,0
 10AE 7E07              cpc R23,R30
 10B0 21F4              brne L192
 10B2           X135:
 10B2                   .dbline 588
 10B2                   .dbline 589
 10B2           ;               lcd_write_pos(11,lcd_y);
 10B2 242F              mov R18,R20
 10B4 0BE0              ldi R16,11
 10B6 0E940000          xcall _lcd_write_pos
 10BA                   .dbline 590
 10BA           ;         }
 10BA                   .dbline 591
 10BA           ;         return;
 10BA                   .dbline -2
 10BA           L192:
 10BA                   .dbline 0 ; func end
 10BA 0E940000          xcall pop_xgsetF0FC
 10BE 2496              adiw R28,4
 10C0 0895              ret
 10C2                   .dbsym r y 10 i
 10C2                   .dbsym r x 22 i
 10C2                   .dbsym r lcd_y 20 i
 10C2                   .dbsym r dataCach 12 pi
 10C2                   .dbsym l oldcur 12 i
 10C2                   .dbsym l cur 10 i
 10C2                   .dbend
                        .area data(ram, con, rel)
 0000                   .dbfile E:\ICCDemo\Temp_Control\temp_control\pages.c
 0000           L234:
 0000                   .blkb 2
                        .area idata
 0000 0000              .word 0
                        .area data(ram, con, rel)
 0002                   .dbfile E:\ICCDemo\Temp_Control\temp_control\pages.c
 0002                   .blkb 260
                        .area idata
 0002 000000000000000000000000000000000000000000000000000000000000000000000000000000000000000000000000000000000000000000000000  .word 0,0,0,0,0,0,0,0,0,0,0,0,0,0,0,0,0,0,0,0,0,0,0,0,0,0,0,0,0,0
 003E 000000000000000000000000000000000000000000000000000000000000000000000000000000000000000000000000000000000000000000000000  .word 0,0,0,0,0,0,0,0,0,0,0,0,0,0,0,0,0,0,0,0,0,0,0,0,0,0,0,0,0,0
 007A 000000000000000000000000000000000000000000000000000000000000000000000000000000000000000000000000000000000000000000000000  .word 0,0,0,0,0,0,0,0,0,0,0,0,0,0,0,0,0,0,0,0,0,0,0,0,0,0,0,0,0,0
 00B6 000000000000000000000000000000000000000000000000000000000000000000000000000000000000000000000000000000000000000000000000  .word 0,0,0,0,0,0,0,0,0,0,0,0,0,0,0,0,0,0,0,0,0,0,0,0,0,0,0,0,0,0
 00F2 00000000000000000000      .word 0,0,0,0,0
 00FC 00000000000000000000      .byte 0,0,0,0,0,0,0,0,0,0
                        .area data(ram, con, rel)
 0106                   .dbfile E:\ICCDemo\Temp_Control\temp_control\pages.c
                        .area text(rom, con, rel)
 10C2                   .dbfile E:\ICCDemo\Temp_Control\temp_control\pages.c
 10C2                   .dbfunc e page4 _page4 fV
 10C2           ;           numL -> R20,R21
 10C2           ;           numH -> R20,R21
 10C2           ;         oldcur -> R22,R23
 10C2           ;       dataCach -> y+2
 10C2           ;            cur -> R20,R21
 10C2           ;           keyV -> R10
 10C2           ;              i -> R10,R11
                        .even
 10C2           _page4::
 10C2 0E940000          xcall push_xgsetF03C
 10C6 EF97              sbiw R28,63
 10C8 EF97              sbiw R28,63
 10CA EF97              sbiw R28,63
 10CC EF97              sbiw R28,63
 10CE 2C97              sbiw R28,12  ; offset = 264
 10D0                   .dbline -1
 10D0                   .dbline 593
 10D0           ;  }
 10D0           ;   void page4(void){
 10D0                   .dbline 595
 10D0           ;     //定义一个局部的结构体，从对呀温度中获得数据。暂时未写
 10D0           ;   uint numH=0xA2;
 10D0                   .dbline 596
 10D0           ;   uint numL=0xC4;//带括号的123，低位加1是1、方便操作，需要加上即可
 10D0                   .dbline 597
 10D0           ;   uint cur=0;
 10D0 4427              clr R20
 10D2 5527              clr R21
 10D4                   .dbline 598
 10D4           ;   uint oldcur=0;
 10D4 6627              clr R22
 10D6 7727              clr R23
 10D8                   .dbline 599
 10D8           ;   uint dataCach[131]={0};
 10D8 80E0              ldi R24,<L234
 10DA 90E0              ldi R25,>L234
 10DC FE01              movw R30,R28
 10DE 3296              adiw R30,2
 10E0 06E0              ldi R16,262
 10E2 11E0              ldi R17,1
 10E4 FA93              st -y,R31
 10E6 EA93              st -y,R30
 10E8 9A93              st -y,R25
 10EA 8A93              st -y,R24
 10EC 0E940000          xcall asgnblk
 10F0                   .dbline 600
 10F0           ;   uint i=0;
 10F0                   .dbline 602
 10F0           ;    uchar keyV;
 10F0           ;    lcd_write_str(0,0,"T");
 10F0 80E0              ldi R24,<L129
 10F2 90E0              ldi R25,>L129
 10F4 9983              std y+1,R25
 10F6 8883              std y+0,R24
 10F8 2227              clr R18
 10FA 0027              clr R16
 10FC 0E940000          xcall _lcd_write_str
 1100                   .dbline 603
 1100           ;    lcd_write_char_con(0,0x30 | (pageParam[0]+1));
 1100 20910000          lds R18,_pageParam
 1104 30910100          lds R19,_pageParam+1
 1108 2F5F              subi R18,255  ; offset = 1
 110A 3F4F              sbci R19,255
 110C 2063              ori R18,48
 110E 0027              clr R16
 1110 0E940000          xcall _lcd_write_char_con
 1114                   .dbline 604
 1114           ;    lcd_write_char_con(0,':');
 1114 2AE3              ldi R18,58
 1116 0027              clr R16
 1118 0E940000          xcall _lcd_write_char_con
 111C                   .dbline 606
 111C           ;    
 111C           ;    lcd_write_str(4,0,"升温");
 111C 80E0              ldi R24,<L235
 111E 90E0              ldi R25,>L235
 1120 9983              std y+1,R25
 1122 8883              std y+0,R24
 1124 2227              clr R18
 1126 04E0              ldi R16,4
 1128 0E940000          xcall _lcd_write_str
 112C                   .dbline 607
 112C           ;    lcd_write_str(7,0,"恒温");
 112C 80E0              ldi R24,<L236
 112E 90E0              ldi R25,>L236
 1130 9983              std y+1,R25
 1132 8883              std y+0,R24
 1134 2227              clr R18
 1136 07E0              ldi R16,7
 1138 0E940000          xcall _lcd_write_str
 113C                   .dbline 608
 113C           ;    lcd_write_str(10,0,"温度");
 113C 80E0              ldi R24,<L237
 113E 90E0              ldi R25,>L237
 1140 9983              std y+1,R25
 1142 8883              std y+0,R24
 1144 2227              clr R18
 1146 0AE0              ldi R16,10
 1148 0E940000          xcall _lcd_write_str
 114C                   .dbline 609
 114C           ;    lcd_write_str(0,1,"保存");
 114C 80E0              ldi R24,<L238
 114E 90E0              ldi R25,>L238
 1150 9983              std y+1,R25
 1152 8883              std y+0,R24
 1154 21E0              ldi R18,1
 1156 0027              clr R16
 1158 0E940000          xcall _lcd_write_str
 115C                   .dbline 610
 115C           ;    lcd_write_str(0,2,"取消");
 115C 80E0              ldi R24,<L110
 115E 90E0              ldi R25,>L110
 1160 9983              std y+1,R25
 1162 8883              std y+0,R24
 1164 22E0              ldi R18,2
 1166 0027              clr R16
 1168 0E940000          xcall _lcd_write_str
 116C                   .dbline 611
 116C           ;    lcd_write_str(0,3,"重置");
 116C 80E0              ldi R24,<L134
 116E 90E0              ldi R25,>L134
 1170 9983              std y+1,R25
 1172 8883              std y+0,R24
 1174 23E0              ldi R18,3
 1176 0027              clr R16
 1178 0E940000          xcall _lcd_write_str
 117C                   .dbline 613
 117C           ;   
 117C           ;   for(i=0;i<132;i++){
 117C AA24              clr R10
 117E BB24              clr R11
 1180 20C0              xjmp L242
 1182           L239:
 1182                   .dbline 613
 1182                   .dbline 614
 1182           ;     dataCach[i]=temps[pageParam[0]].temp_data[i];
 1182 1501              movw R2,R10
 1184 220C              lsl R2
 1186 331C              rol R3
 1188 2101              movw R4,R2
 118A 20910000          lds R18,_pageParam
 118E 30910100          lds R19,_pageParam+1
 1192 0AE0              ldi R16,266
 1194 11E0              ldi R17,1
 1196 0E940000          xcall empy16s
 119A 80E0              ldi R24,<_temps+2
 119C 90E0              ldi R25,>_temps+2
 119E 1801              movw R2,R16
 11A0 280E              add R2,R24
 11A2 391E              adc R3,R25
 11A4 F201              movw R30,R4
 11A6 E20D              add R30,R2
 11A8 F31D              adc R31,R3
 11AA 2080              ldd R2,z+0
 11AC 3180              ldd R3,z+1
 11AE CE01              movw R24,R28
 11B0 0296              adiw R24,2
 11B2 F201              movw R30,R4
 11B4 E80F              add R30,R24
 11B6 F91F              adc R31,R25
 11B8 3182              std z+1,R3
 11BA 2082              std z+0,R2
 11BC                   .dbline 615
 11BC           ;   }
 11BC           L240:
 11BC                   .dbline 613
 11BC C501              movw R24,R10
 11BE 0196              adiw R24,1
 11C0 5C01              movw R10,R24
 11C2           L242:
 11C2                   .dbline 613
 11C2 C501              movw R24,R10
 11C4 8438              cpi R24,132
 11C6 E0E0              ldi R30,0
 11C8 9E07              cpc R25,R30
 11CA D8F2              brlo L239
 11CC           X136:
 11CC                   .dbline 616
 11CC           ;     page4_data(0,dataCach);//调用函数填充
 11CC 9E01              movw R18,R28
 11CE 2E5F              subi R18,254  ; offset = 2
 11D0 3F4F              sbci R19,255
 11D2 0027              clr R16
 11D4 1127              clr R17
 11D6 F7DC              xcall _page4_data
 11D8                   .dbline 617
 11D8           ;    cur=0;
 11D8 4427              clr R20
 11DA 5527              clr R21
 11DC                   .dbline 618
 11DC           ;    lcd_write_pos(3,1);
 11DC 21E0              ldi R18,1
 11DE 03E0              ldi R16,3
 11E0 0E940000          xcall _lcd_write_pos
 11E4                   .dbline 619
 11E4           ;    cur_set(3);
 11E4 03E0              ldi R16,3
 11E6 10E0              ldi R17,0
 11E8 0E940000          xcall _cur_set
 11EC 2AC2              xjmp L245
 11EE           L244:
 11EE                   .dbline 622
 11EE           ;    
 11EE           ;    //Set_White(9,2,10);
 11EE           ;     while(1){
 11EE                   .dbline 623
 11EE           ;       keyV=KeyScan_once();
 11EE 0E940000          xcall _KeyScan_once
 11F2 A02E              mov R10,R16
 11F4                   .dbline 624
 11F4           ;         if(keyV=='e'){
 11F4 0536              cpi R16,101
 11F6 09F5              brne L247
 11F8           X137:
 11F8                   .dbline 624
 11F8                   .dbline 625
 11F8           ;               Set_White_off(1,1,2);
 11F8 82E0              ldi R24,2
 11FA 8883              std y+0,R24
 11FC 21E0              ldi R18,1
 11FE 01E0              ldi R16,1
 1200 0E940000          xcall _Set_White_off
 1204                   .dbline 626
 1204           ;                       Set_White_off(1,2,2);
 1204 82E0              ldi R24,2
 1206 8883              std y+0,R24
 1208 22E0              ldi R18,2
 120A 01E0              ldi R16,1
 120C 0E940000          xcall _Set_White_off
 1210                   .dbline 627
 1210           ;                       Set_White_off(1,3,2);
 1210 82E0              ldi R24,2
 1212 8883              std y+0,R24
 1214 23E0              ldi R18,3
 1216 01E0              ldi R16,1
 1218 0E940000          xcall _Set_White_off
 121C                   .dbline 628
 121C           ;                       cur_set(0);
 121C 0027              clr R16
 121E 1127              clr R17
 1220 0E940000          xcall _cur_set
 1224                   .dbline 629
 1224           ;                       cur_set(4);
 1224 04E0              ldi R16,4
 1226 10E0              ldi R17,0
 1228 0E940000          xcall _cur_set
 122C                   .dbline 630
 122C           ;                   pageNum=3;
 122C 83E0              ldi R24,3
 122E 90E0              ldi R25,0
 1230 90930100          sts _pageNum+1,R25
 1234 80930000          sts _pageNum,R24
 1238                   .dbline 631
 1238           ;                   return;
 1238 05C2              xjmp L233
 123A           L247:
 123A                   .dbline 632
 123A           ;         }else if(keyV=='u'){
 123A 8A2D              mov R24,R10
 123C 8537              cpi R24,117
 123E 09F0              breq X176
 1240 46C0              xjmp L249
 1242           X176:
 1242           X138:
 1242                   .dbline 632
 1242                   .dbline 633
 1242           ;            if(cur==133){
 1242 4538              cpi R20,133
 1244 E0E0              ldi R30,0
 1246 5E07              cpc R21,R30
 1248 79F4              brne L251
 124A           X139:
 124A                   .dbline 633
 124A                   .dbline 634
 124A           ;                   Set_White(1,1,2);
 124A 82E0              ldi R24,2
 124C 8883              std y+0,R24
 124E 21E0              ldi R18,1
 1250 01E0              ldi R16,1
 1252 0E940000          xcall _Set_White
 1256                   .dbline 635
 1256           ;                       Set_White_off(1,2,2);
 1256 82E0              ldi R24,2
 1258 8883              std y+0,R24
 125A 22E0              ldi R18,2
 125C 01E0              ldi R16,1
 125E 0E940000          xcall _Set_White_off
 1262                   .dbline 636
 1262           ;                       cur=132;
 1262 44E8              ldi R20,132
 1264 50E0              ldi R21,0
 1266                   .dbline 637
 1266           ;                }else if(cur==134){
 1266 EDC1              xjmp L250
 1268           L251:
 1268                   .dbline 637
 1268 4638              cpi R20,134
 126A E0E0              ldi R30,0
 126C 5E07              cpc R21,R30
 126E 79F4              brne L253
 1270           X140:
 1270                   .dbline 637
 1270                   .dbline 638
 1270           ;                   Set_White(1,2,2);
 1270 82E0              ldi R24,2
 1272 8883              std y+0,R24
 1274 22E0              ldi R18,2
 1276 01E0              ldi R16,1
 1278 0E940000          xcall _Set_White
 127C                   .dbline 639
 127C           ;                       Set_White_off(1,3,2);
 127C 82E0              ldi R24,2
 127E 8883              std y+0,R24
 1280 23E0              ldi R18,3
 1282 01E0              ldi R16,1
 1284 0E940000          xcall _Set_White_off
 1288                   .dbline 640
 1288           ;                       cur=133;
 1288 45E8              ldi R20,133
 128A 50E0              ldi R21,0
 128C                   .dbline 641
 128C           ;                }else if(cur>10 && cur<=131){
 128C DAC1              xjmp L250
 128E           L253:
 128E                   .dbline 641
 128E 8AE0              ldi R24,10
 1290 90E0              ldi R25,0
 1292 8417              cp R24,R20
 1294 9507              cpc R25,R21
 1296 08F0              brlo X177
 1298 D4C1              xjmp L250
 129A           X177:
 129A           X141:
 129A 83E8              ldi R24,131
 129C 8417              cp R24,R20
 129E 9507              cpc R25,R21
 12A0 08F4              brsh X178
 12A2 CFC1              xjmp L250
 12A4           X178:
 12A4           X142:
 12A4                   .dbline 641
 12A4                   .dbline 642
 12A4           ;                  oldcur=cur;
 12A4 BA01              movw R22,R20
 12A6                   .dbline 643
 12A6           ;              cur=(cur/11-1)*11;
 12A6 2BE0              ldi R18,11
 12A8 30E0              ldi R19,0
 12AA 8A01              movw R16,R20
 12AC 0E940000          xcall div16u
 12B0 9801              movw R18,R16
 12B2 2150              subi R18,1
 12B4 3040              sbci R19,0
 12B6 0BE0              ldi R16,11
 12B8 10E0              ldi R17,0
 12BA 0E940000          xcall empy16s
 12BE A801              movw R20,R16
 12C0                   .dbline 644
 12C0           ;                  page4_ac(cur,oldcur,dataCach);
 12C0 CE01              movw R24,R28
 12C2 0296              adiw R24,2
 12C4 9983              std y+1,R25
 12C6 8883              std y+0,R24
 12C8 9B01              movw R18,R22
 12CA 21DE              xcall _page4_ac
 12CC                   .dbline 645
 12CC           ;                }
 12CC                   .dbline 646
 12CC           ;         }else if(keyV=='d'){
 12CC BAC1              xjmp L250
 12CE           L249:
 12CE                   .dbline 646
 12CE 8A2D              mov R24,R10
 12D0 8436              cpi R24,100
 12D2 09F0              breq X179
 12D4 40C0              xjmp L257
 12D6           X179:
 12D6           X143:
 12D6                   .dbline 646
 12D6                   .dbline 647
 12D6           ;            if(cur==132){
 12D6 4438              cpi R20,132
 12D8 E0E0              ldi R30,0
 12DA 5E07              cpc R21,R30
 12DC 79F4              brne L259
 12DE           X144:
 12DE                   .dbline 647
 12DE                   .dbline 648
 12DE           ;                   Set_White_off(1,1,2);
 12DE 82E0              ldi R24,2
 12E0 8883              std y+0,R24
 12E2 21E0              ldi R18,1
 12E4 01E0              ldi R16,1
 12E6 0E940000          xcall _Set_White_off
 12EA                   .dbline 649
 12EA           ;                       Set_White(1,2,2);
 12EA 82E0              ldi R24,2
 12EC 8883              std y+0,R24
 12EE 22E0              ldi R18,2
 12F0 01E0              ldi R16,1
 12F2 0E940000          xcall _Set_White
 12F6                   .dbline 650
 12F6           ;                       cur=133;
 12F6 45E8              ldi R20,133
 12F8 50E0              ldi R21,0
 12FA                   .dbline 651
 12FA           ;                }else if(cur==133){
 12FA A3C1              xjmp L258
 12FC           L259:
 12FC                   .dbline 651
 12FC 4538              cpi R20,133
 12FE E0E0              ldi R30,0
 1300 5E07              cpc R21,R30
 1302 79F4              brne L261
 1304           X145:
 1304                   .dbline 651
 1304                   .dbline 652
 1304           ;                   Set_White_off(1,2,2);
 1304 82E0              ldi R24,2
 1306 8883              std y+0,R24
 1308 22E0              ldi R18,2
 130A 01E0              ldi R16,1
 130C 0E940000          xcall _Set_White_off
 1310                   .dbline 653
 1310           ;                       Set_White(1,3,2);
 1310 82E0              ldi R24,2
 1312 8883              std y+0,R24
 1314 23E0              ldi R18,3
 1316 01E0              ldi R16,1
 1318 0E940000          xcall _Set_White
 131C                   .dbline 654
 131C           ;                       cur=134;
 131C 46E8              ldi R20,134
 131E 50E0              ldi R21,0
 1320                   .dbline 655
 1320           ;                }else if(cur<121){
 1320 90C1              xjmp L258
 1322           L261:
 1322                   .dbline 655
 1322 4937              cpi R20,121
 1324 E0E0              ldi R30,0
 1326 5E07              cpc R21,R30
 1328 08F0              brlo X180
 132A 8BC1              xjmp L258
 132C           X180:
 132C           X146:
 132C                   .dbline 655
 132C                   .dbline 656
 132C           ;             oldcur=cur;
 132C BA01              movw R22,R20
 132E                   .dbline 657
 132E           ;             cur=(cur/11+1)*11;
 132E 2BE0              ldi R18,11
 1330 30E0              ldi R19,0
 1332 8A01              movw R16,R20
 1334 0E940000          xcall div16u
 1338 9801              movw R18,R16
 133A 2F5F              subi R18,255  ; offset = 1
 133C 3F4F              sbci R19,255
 133E 0BE0              ldi R16,11
 1340 10E0              ldi R17,0
 1342 0E940000          xcall empy16s
 1346 A801              movw R20,R16
 1348                   .dbline 658
 1348           ;                 page4_ac(cur,oldcur,dataCach);
 1348 CE01              movw R24,R28
 134A 0296              adiw R24,2
 134C 9983              std y+1,R25
 134E 8883              std y+0,R24
 1350 9B01              movw R18,R22
 1352 DDDD              xcall _page4_ac
 1354                   .dbline 659
 1354           ;               }
 1354                   .dbline 661
 1354           ;               
 1354           ;         }else if(keyV=='l'){
 1354 76C1              xjmp L258
 1356           L257:
 1356                   .dbline 661
 1356 8A2D              mov R24,R10
 1358 8C36              cpi R24,108
 135A 09F0              breq X181
 135C 49C0              xjmp L265
 135E           X181:
 135E           X147:
 135E                   .dbline 661
 135E                   .dbline 662
 135E           ;          oldcur=cur;
 135E BA01              movw R22,R20
 1360                   .dbline 663
 1360           ;         if(cur%11==0){
 1360 2BE0              ldi R18,11
 1362 30E0              ldi R19,0
 1364 8A01              movw R16,R20
 1366 0E940000          xcall mod16u
 136A 0030              cpi R16,0
 136C 0107              cpc R16,R17
 136E 89F4              brne L267
 1370           X148:
 1370                   .dbline 663
 1370                   .dbline 664
 1370           ;               Set_White(1,1,2);
 1370 82E0              ldi R24,2
 1372 8883              std y+0,R24
 1374 21E0              ldi R18,1
 1376 01E0              ldi R16,1
 1378 0E940000          xcall _Set_White
 137C                   .dbline 665
 137C           ;                       cur_set(0);
 137C 0027              clr R16
 137E 1127              clr R17
 1380 0E940000          xcall _cur_set
 1384                   .dbline 666
 1384           ;                       cur_set(4);
 1384 04E0              ldi R16,4
 1386 10E0              ldi R17,0
 1388 0E940000          xcall _cur_set
 138C                   .dbline 667
 138C           ;                       cur=132;
 138C 44E8              ldi R20,132
 138E 50E0              ldi R21,0
 1390                   .dbline 668
 1390           ;          }else if(cur%11==2 || cur%11==4 || cur%11==6 || cur%11==8){
 1390 58C1              xjmp L266
 1392           L267:
 1392                   .dbline 668
 1392 2BE0              ldi R18,11
 1394 30E0              ldi R19,0
 1396 8A01              movw R16,R20
 1398 0E940000          xcall mod16u
 139C 6801              movw R12,R16
 139E C601              movw R24,R12
 13A0 0230              cpi R16,2
 13A2 E0E0              ldi R30,0
 13A4 1E07              cpc R17,R30
 13A6 61F0              breq L273
 13A8           X149:
 13A8 0430              cpi R16,4
 13AA E0E0              ldi R30,0
 13AC 1E07              cpc R17,R30
 13AE 41F0              breq L273
 13B0           X150:
 13B0 0630              cpi R16,6
 13B2 E0E0              ldi R30,0
 13B4 1E07              cpc R17,R30
 13B6 21F0              breq L273
 13B8           X151:
 13B8 0830              cpi R16,8
 13BA E0E0              ldi R30,0
 13BC 1E07              cpc R17,R30
 13BE 51F4              brne L269
 13C0           X152:
 13C0           L273:
 13C0                   .dbline 668
 13C0                   .dbline 669
 13C0           ;             cur-=2;
 13C0 4250              subi R20,2
 13C2 5040              sbci R21,0
 13C4                   .dbline 670
 13C4           ;                  page4_ac(cur,oldcur,dataCach);
 13C4 CE01              movw R24,R28
 13C6 0296              adiw R24,2
 13C8 9983              std y+1,R25
 13CA 8883              std y+0,R24
 13CC 9B01              movw R18,R22
 13CE 8A01              movw R16,R20
 13D0 9EDD              xcall _page4_ac
 13D2                   .dbline 671
 13D2           ;               }else if(cur>0){
 13D2 37C1              xjmp L266
 13D4           L269:
 13D4                   .dbline 671
 13D4 4030              cpi R20,0
 13D6 4507              cpc R20,R21
 13D8 09F4              brne X182
 13DA 33C1              xjmp L266
 13DC           X182:
 13DC           X153:
 13DC                   .dbline 671
 13DC                   .dbline 672
 13DC           ;             cur--;
 13DC 4150              subi R20,1
 13DE 5040              sbci R21,0
 13E0                   .dbline 673
 13E0           ;                  page4_ac(cur,oldcur,dataCach);
 13E0 CE01              movw R24,R28
 13E2 0296              adiw R24,2
 13E4 9983              std y+1,R25
 13E6 8883              std y+0,R24
 13E8 9B01              movw R18,R22
 13EA 8A01              movw R16,R20
 13EC 90DD              xcall _page4_ac
 13EE                   .dbline 674
 13EE           ;               }
 13EE                   .dbline 676
 13EE           ;         
 13EE           ;         }else if(keyV=='r'){
 13EE 29C1              xjmp L266
 13F0           L265:
 13F0                   .dbline 676
 13F0 8A2D              mov R24,R10
 13F2 8237              cpi R24,114
 13F4 41F5              brne L276
 13F6           X154:
 13F6                   .dbline 676
 13F6                   .dbline 677
 13F6           ;         if(cur>131){
 13F6 83E8              ldi R24,131
 13F8 90E0              ldi R25,0
 13FA 8417              cp R24,R20
 13FC 9507              cpc R25,R21
 13FE A0F4              brsh L278
 1400           X155:
 1400                   .dbline 677
 1400                   .dbline 678
 1400           ;             Set_White_off(1,1,2);
 1400 82E0              ldi R24,2
 1402 8883              std y+0,R24
 1404 21E0              ldi R18,1
 1406 01E0              ldi R16,1
 1408 0E940000          xcall _Set_White_off
 140C                   .dbline 679
 140C           ;             Set_White_off(1,2,2);
 140C 82E0              ldi R24,2
 140E 8883              std y+0,R24
 1410 22E0              ldi R18,2
 1412 01E0              ldi R16,1
 1414 0E940000          xcall _Set_White_off
 1418                   .dbline 680
 1418           ;                 Set_White_off(1,3,2);
 1418 82E0              ldi R24,2
 141A 8883              std y+0,R24
 141C 23E0              ldi R18,3
 141E 01E0              ldi R16,1
 1420 0E940000          xcall _Set_White_off
 1424                   .dbline 681
 1424           ;                 cur=oldcur;
 1424 AB01              movw R20,R22
 1426                   .dbline 682
 1426           ;         }else  if(cur<131){
 1426 07C0              xjmp L279
 1428           L278:
 1428                   .dbline 682
 1428 4338              cpi R20,131
 142A E0E0              ldi R30,0
 142C 5E07              cpc R21,R30
 142E 18F4              brsh L280
 1430           X156:
 1430                   .dbline 682
 1430                   .dbline 683
 1430           ;                oldcur=cur;
 1430 BA01              movw R22,R20
 1432                   .dbline 684
 1432           ;            cur++;
 1432 4F5F              subi R20,255  ; offset = 1
 1434 5F4F              sbci R21,255
 1436                   .dbline 685
 1436           ;                }
 1436           L280:
 1436           L279:
 1436                   .dbline 686
 1436           ;           page4_ac(cur,oldcur,dataCach);
 1436 CE01              movw R24,R28
 1438 0296              adiw R24,2
 143A 9983              std y+1,R25
 143C 8883              std y+0,R24
 143E 9B01              movw R18,R22
 1440 8A01              movw R16,R20
 1442 65DD              xcall _page4_ac
 1444                   .dbline 687
 1444           ;         }else if(keyV=='t'){      
 1444 FEC0              xjmp L277
 1446           L276:
 1446                   .dbline 687
 1446 8A2D              mov R24,R10
 1448 8437              cpi R24,116
 144A 09F0              breq X183
 144C 98C0              xjmp L282
 144E           X183:
 144E           X157:
 144E                   .dbline 687
 144E                   .dbline 688
 144E           ;            if(cur==132){
 144E 4438              cpi R20,132
 1450 E0E0              ldi R30,0
 1452 5E07              cpc R21,R30
 1454 09F0              breq X184
 1456 3EC0              xjmp L284
 1458           X184:
 1458           X158:
 1458                   .dbline 688
 1458                   .dbline 689
 1458           ;                  Set_White_off(1,1,2);
 1458 82E0              ldi R24,2
 145A 8883              std y+0,R24
 145C 21E0              ldi R18,1
 145E 01E0              ldi R16,1
 1460 0E940000          xcall _Set_White_off
 1464                   .dbline 690
 1464           ;                       Set_White_off(1,2,2);
 1464 82E0              ldi R24,2
 1466 8883              std y+0,R24
 1468 22E0              ldi R18,2
 146A 01E0              ldi R16,1
 146C 0E940000          xcall _Set_White_off
 1470                   .dbline 691
 1470           ;                       Set_White_off(1,3,2);
 1470 82E0              ldi R24,2
 1472 8883              std y+0,R24
 1474 23E0              ldi R18,3
 1476 01E0              ldi R16,1
 1478 0E940000          xcall _Set_White_off
 147C                   .dbline 692
 147C           ;                  cur_set(0);
 147C 0027              clr R16
 147E 1127              clr R17
 1480 0E940000          xcall _cur_set
 1484                   .dbline 693
 1484           ;                       cur_set(4);
 1484 04E0              ldi R16,4
 1486 10E0              ldi R17,0
 1488 0E940000          xcall _cur_set
 148C                   .dbline 694
 148C           ;                       lcd_clear();
 148C 0E940000          xcall _lcd_clear
 1490                   .dbline 695
 1490           ;                       lcd_write_str(5,2,"保存中. . .");
 1490 80E0              ldi R24,<L286
 1492 90E0              ldi R25,>L286
 1494 9983              std y+1,R25
 1496 8883              std y+0,R24
 1498 22E0              ldi R18,2
 149A 05E0              ldi R16,5
 149C 0E940000          xcall _lcd_write_str
 14A0                   .dbline 696
 14A0           ;                   pageParam[1]=1;//表示是温度数据的，这里处理保存的方法，因为数据在这里。只是跳转过去，参数如果是1表示成功。2表示失败
 14A0 81E0              ldi R24,1
 14A2 90E0              ldi R25,0
 14A4 90930300          sts _pageParam+2+1,R25
 14A8 80930200          sts _pageParam+2,R24
 14AC                   .dbline 697
 14AC           ;                   prePageNum=4;
 14AC 84E0              ldi R24,4
 14AE 90930100          sts _prePageNum+1,R25
 14B2 80930000          sts _prePageNum,R24
 14B6                   .dbline 698
 14B6           ;                   pageNum=6;
 14B6 86E0              ldi R24,6
 14B8 90930100          sts _pageNum+1,R25
 14BC 80930000          sts _pageNum,R24
 14C0                   .dbline 699
 14C0           ;                       set_temp_data(pageParam[0],dataCach);//保存数据
 14C0 9E01              movw R18,R28
 14C2 2E5F              subi R18,254  ; offset = 2
 14C4 3F4F              sbci R19,255
 14C6 00910000          lds R16,_pageParam
 14CA 10910100          lds R17,_pageParam+1
 14CE 0E940000          xcall _set_temp_data
 14D2                   .dbline 700
 14D2           ;                   return;
 14D2 B8C0              xjmp L233
 14D4           L284:
 14D4                   .dbline 701
 14D4           ;                }else if(cur==133){
 14D4 4538              cpi R20,133
 14D6 E0E0              ldi R30,0
 14D8 5E07              cpc R21,R30
 14DA 09F5              brne L288
 14DC           X159:
 14DC                   .dbline 701
 14DC                   .dbline 702
 14DC           ;                   Set_White_off(1,1,2);
 14DC 82E0              ldi R24,2
 14DE 8883              std y+0,R24
 14E0 21E0              ldi R18,1
 14E2 01E0              ldi R16,1
 14E4 0E940000          xcall _Set_White_off
 14E8                   .dbline 703
 14E8           ;                       Set_White_off(1,2,2);
 14E8 82E0              ldi R24,2
 14EA 8883              std y+0,R24
 14EC 22E0              ldi R18,2
 14EE 01E0              ldi R16,1
 14F0 0E940000          xcall _Set_White_off
 14F4                   .dbline 704
 14F4           ;                       Set_White_off(1,3,2);
 14F4 82E0              ldi R24,2
 14F6 8883              std y+0,R24
 14F8 23E0              ldi R18,3
 14FA 01E0              ldi R16,1
 14FC 0E940000          xcall _Set_White_off
 1500                   .dbline 705
 1500           ;                   cur_set(0);
 1500 0027              clr R16
 1502 1127              clr R17
 1504 0E940000          xcall _cur_set
 1508                   .dbline 706
 1508           ;                       cur_set(4);
 1508 04E0              ldi R16,4
 150A 10E0              ldi R17,0
 150C 0E940000          xcall _cur_set
 1510                   .dbline 707
 1510           ;                   pageNum=3;
 1510 83E0              ldi R24,3
 1512 90E0              ldi R25,0
 1514 90930100          sts _pageNum+1,R25
 1518 80930000          sts _pageNum,R24
 151C                   .dbline 708
 151C           ;                   return;
 151C 93C0              xjmp L233
 151E           L288:
 151E                   .dbline 709
 151E           ;                }else if(cur==134){
 151E 4638              cpi R20,134
 1520 E0E0              ldi R30,0
 1522 5E07              cpc R21,R30
 1524 09F0              breq X185
 1526 8DC0              xjmp L283
 1528           X185:
 1528           X160:
 1528                   .dbline 709
 1528                   .dbline 710
 1528           ;                   Set_White_off(1,1,2);
 1528 82E0              ldi R24,2
 152A 8883              std y+0,R24
 152C 21E0              ldi R18,1
 152E 01E0              ldi R16,1
 1530 0E940000          xcall _Set_White_off
 1534                   .dbline 711
 1534           ;                       Set_White_off(1,2,2);
 1534 82E0              ldi R24,2
 1536 8883              std y+0,R24
 1538 22E0              ldi R18,2
 153A 01E0              ldi R16,1
 153C 0E940000          xcall _Set_White_off
 1540                   .dbline 712
 1540           ;                       Set_White_off(1,3,2);
 1540 82E0              ldi R24,2
 1542 8883              std y+0,R24
 1544 23E0              ldi R18,3
 1546 01E0              ldi R16,1
 1548 0E940000          xcall _Set_White_off
 154C                   .dbline 713
 154C           ;                  cur_set(0);
 154C 0027              clr R16
 154E 1127              clr R17
 1550 0E940000          xcall _cur_set
 1554                   .dbline 714
 1554           ;                       cur_set(4);
 1554 04E0              ldi R16,4
 1556 10E0              ldi R17,0
 1558 0E940000          xcall _cur_set
 155C                   .dbline 716
 155C           ;                  //重置。有提示
 155C           ;                       pageParam[2]=1;//表示重置是温度数据的
 155C 81E0              ldi R24,1
 155E 90E0              ldi R25,0
 1560 90930500          sts _pageParam+4+1,R25
 1564 80930400          sts _pageParam+4,R24
 1568                   .dbline 717
 1568           ;                       prePageNum=4;
 1568 84E0              ldi R24,4
 156A 90930100          sts _prePageNum+1,R25
 156E 80930000          sts _prePageNum,R24
 1572                   .dbline 718
 1572           ;                   pageNum=7;
 1572 87E0              ldi R24,7
 1574 90930100          sts _pageNum+1,R25
 1578 80930000          sts _pageNum,R24
 157C                   .dbline 719
 157C           ;                   return;
 157C 63C0              xjmp L233
 157E           L282:
 157E                   .dbline 722
 157E           ;                }
 157E           ;            
 157E           ;         }else if(keyV=='0' || keyV=='1' || keyV=='2' || keyV=='3' || keyV=='4' || keyV=='5' 
 157E 8A2D              mov R24,R10
 1580 8033              cpi R24,48
 1582 99F0              breq L303
 1584           X161:
 1584 8133              cpi R24,49
 1586 89F0              breq L303
 1588           X162:
 1588 8233              cpi R24,50
 158A 79F0              breq L303
 158C           X163:
 158C 8333              cpi R24,51
 158E 69F0              breq L303
 1590           X164:
 1590 8433              cpi R24,52
 1592 59F0              breq L303
 1594           X165:
 1594 8533              cpi R24,53
 1596 49F0              breq L303
 1598           X166:
 1598 8633              cpi R24,54
 159A 39F0              breq L303
 159C           X167:
 159C 8733              cpi R24,55
 159E 29F0              breq L303
 15A0           X168:
 15A0 8833              cpi R24,56
 15A2 19F0              breq L303
 15A4           X169:
 15A4 8933              cpi R24,57
 15A6 09F0              breq X186
 15A8 4CC0              xjmp L293
 15AA           X186:
 15AA           X170:
 15AA           L303:
 15AA                   .dbline 723
 15AA           ;                  || keyV=='6'  || keyV=='7' || keyV=='8' || keyV=='9'){
 15AA                   .dbline 724
 15AA           ;                         if(cur <132){//判断还在输入域
 15AA 4438              cpi R20,132
 15AC E0E0              ldi R30,0
 15AE 5E07              cpc R21,R30
 15B0 08F0              brlo X187
 15B2 47C0              xjmp L304
 15B4           X187:
 15B4           X171:
 15B4                   .dbline 724
 15B4                   .dbline 725
 15B4           ;                          if((cur/11)%3==0){
 15B4 2BE0              ldi R18,11
 15B6 30E0              ldi R19,0
 15B8 8A01              movw R16,R20
 15BA 0E940000          xcall div16u
 15BE 23E0              ldi R18,3
 15C0 30E0              ldi R19,0
 15C2 0E940000          xcall mod16u
 15C6 0030              cpi R16,0
 15C8 0107              cpc R16,R17
 15CA 31F4              brne L306
 15CC           X172:
 15CC                   .dbline 725
 15CC                   .dbline 726
 15CC           ;                             lcd_write_char_con(1,0x30 | keyV);
 15CC 2A2D              mov R18,R10
 15CE 2063              ori R18,48
 15D0 01E0              ldi R16,1
 15D2 0E940000          xcall _lcd_write_char_con
 15D6                   .dbline 727
 15D6           ;                               }else{
 15D6 05C0              xjmp L307
 15D8           L306:
 15D8                   .dbline 727
 15D8                   .dbline 728
 15D8           ;                                 lcd_write_char_con(2,0x30 | keyV);
 15D8 2A2D              mov R18,R10
 15DA 2063              ori R18,48
 15DC 02E0              ldi R16,2
 15DE 0E940000          xcall _lcd_write_char_con
 15E2                   .dbline 729
 15E2           ;                               }
 15E2           L307:
 15E2                   .dbline 730
 15E2           ;                               dataCach[cur]=keyV;
 15E2 CE01              movw R24,R28
 15E4 0296              adiw R24,2
 15E6 FA01              movw R30,R20
 15E8 EE0F              lsl R30
 15EA FF1F              rol R31
 15EC E80F              add R30,R24
 15EE F91F              adc R31,R25
 15F0 2A2C              mov R2,R10
 15F2 3324              clr R3
 15F4 3182              std z+1,R3
 15F6 2082              std z+0,R2
 15F8                   .dbline 731
 15F8           ;                               oldcur=cur;
 15F8 BA01              movw R22,R20
 15FA                   .dbline 732
 15FA           ;                               if(cur<131)
 15FA 6338              cpi R22,131
 15FC E0E0              ldi R30,0
 15FE 7E07              cpc R23,R30
 1600 50F4              brsh L308
 1602           X173:
 1602                   .dbline 733
 1602           ;                               {
 1602                   .dbline 734
 1602           ;                                 cur++;
 1602 4F5F              subi R20,255  ; offset = 1
 1604 5F4F              sbci R21,255
 1606                   .dbline 735
 1606           ;                                 page4_ac(cur,oldcur,dataCach);
 1606 CE01              movw R24,R28
 1608 0296              adiw R24,2
 160A 9983              std y+1,R25
 160C 8883              std y+0,R24
 160E 9B01              movw R18,R22
 1610 8A01              movw R16,R20
 1612 7DDC              xcall _page4_ac
 1614                   .dbline 736
 1614           ;                               }else if(cur==131){//最后一个131会在上面处理，最后一次进入这里。跳到保存
 1614 16C0              xjmp L309
 1616           L308:
 1616                   .dbline 736
 1616 4338              cpi R20,131
 1618 E0E0              ldi R30,0
 161A 5E07              cpc R21,R30
 161C 91F4              brne L310
 161E           X174:
 161E                   .dbline 736
 161E                   .dbline 737
 161E           ;                                 Set_White(1,1,2);
 161E 82E0              ldi R24,2
 1620 8883              std y+0,R24
 1622 21E0              ldi R18,1
 1624 01E0              ldi R16,1
 1626 0E940000          xcall _Set_White
 162A                   .dbline 738
 162A           ;                              cur_set(0);
 162A 0027              clr R16
 162C 1127              clr R17
 162E 0E940000          xcall _cur_set
 1632                   .dbline 739
 1632           ;                              cur_set(4);
 1632 04E0              ldi R16,4
 1634 10E0              ldi R17,0
 1636 0E940000          xcall _cur_set
 163A                   .dbline 740
 163A           ;                              cur=132;
 163A 44E8              ldi R20,132
 163C 50E0              ldi R21,0
 163E                   .dbline 741
 163E           ;                                  oldcur=99;
 163E 63E6              ldi R22,99
 1640 70E0              ldi R23,0
 1642                   .dbline 742
 1642           ;                               }
 1642           L310:
 1642           L309:
 1642                   .dbline 744
 1642           ;                               
 1642           ;                         }
 1642           L304:
 1642                   .dbline 745
 1642           ;               }
 1642           L293:
 1642           L283:
 1642           L277:
 1642           L266:
 1642           L258:
 1642           L250:
 1642                   .dbline 746
 1642           ;       }
 1642           L245:
 1642                   .dbline 622
 1642 D5CD              xjmp L244
 1644           X175:
 1644                   .dbline -2
 1644           L233:
 1644                   .dbline 0 ; func end
 1644 EF96              adiw R28,63
 1646 EF96              adiw R28,63
 1648 EF96              adiw R28,63
 164A EF96              adiw R28,63
 164C 2C96              adiw R28,12  ; offset = 264
 164E 0C940000          xjmp pop_xgsetF03C
 1652                   .dbsym r numL 20 i
 1652                   .dbsym r numH 20 i
 1652                   .dbsym r oldcur 22 i
 1652                   .dbsym l dataCach 2 A[262:131]i
 1652                   .dbsym r cur 20 i
 1652                   .dbsym r keyV 10 c
 1652                   .dbsym r i 10 i
 1652                   .dbend
 1652                   .dbfunc e page5 _page5 fV
 1652           ;            cur -> R20,R21
 1652           ;           keyV -> R22
                        .even
 1652           _page5::
 1652 0E940000          xcall push_xgsetF000
 1656 2297              sbiw R28,2
 1658                   .dbline -1
 1658                   .dbline 749
 1658           ;  }
 1658           ;  
 1658           ;  void page5(void){
 1658                   .dbline 750
 1658           ;   uint cur=0;
 1658                   .dbline 752
 1658           ;    uchar keyV;
 1658           ;    lcd_write_str(4,0,"断电自动重置");
 1658 80E0              ldi R24,<L313
 165A 90E0              ldi R25,>L313
 165C 9983              std y+1,R25
 165E 8883              std y+0,R24
 1660 2227              clr R18
 1662 04E0              ldi R16,4
 1664 0E940000          xcall _lcd_write_str
 1668                   .dbline 753
 1668           ;    lcd_write_str(4,1,"设置时间");
 1668 80E0              ldi R24,<L314
 166A 90E0              ldi R25,>L314
 166C 9983              std y+1,R25
 166E 8883              std y+0,R24
 1670 21E0              ldi R18,1
 1672 04E0              ldi R16,4
 1674 0E940000          xcall _lcd_write_str
 1678                   .dbline 754
 1678           ;    lcd_write_str(4,2,"重置系统");
 1678 80E0              ldi R24,<L315
 167A 90E0              ldi R25,>L315
 167C 9983              std y+1,R25
 167E 8883              std y+0,R24
 1680 22E0              ldi R18,2
 1682 04E0              ldi R16,4
 1684 0E940000          xcall _lcd_write_str
 1688                   .dbline 755
 1688           ;    lcd_write_char(3,0,0xA1);
 1688 81EA              ldi R24,161
 168A 8883              std y+0,R24
 168C 2227              clr R18
 168E 03E0              ldi R16,3
 1690 0E940000          xcall _lcd_write_char
 1694                   .dbline 756
 1694           ;    lcd_write_char_con(0,0xC1);
 1694 21EC              ldi R18,193
 1696 0027              clr R16
 1698 0E940000          xcall _lcd_write_char_con
 169C                   .dbline 760
 169C           ;    
 169C           ;    /* lcd_write_char(1,0,0xA1);
 169C           ;    lcd_write_char_con(0,0xCC);*/
 169C           ;    cur=0;
 169C 4427              clr R20
 169E 5527              clr R21
 16A0                   .dbline 761
 16A0           ;    Set_White(5,0,10);
 16A0 8AE0              ldi R24,10
 16A2 8883              std y+0,R24
 16A4 2227              clr R18
 16A6 05E0              ldi R16,5
 16A8 0E940000          xcall _Set_White
 16AC AFC0              xjmp L317
 16AE           L316:
 16AE                   .dbline 762
 16AE           ;    while(1){
 16AE                   .dbline 763
 16AE           ;       keyV=KeyScan_once();
 16AE 0E940000          xcall _KeyScan_once
 16B2 602F              mov R22,R16
 16B4                   .dbline 764
 16B4           ;         if(keyV=='u'){
 16B4 0537              cpi R16,117
 16B6 39F5              brne L319
 16B8           X188:
 16B8                   .dbline 764
 16B8                   .dbline 765
 16B8           ;           switch(cur){
 16B8 4130              cpi R20,1
 16BA E0E0              ldi R30,0
 16BC 5E07              cpc R21,R30
 16BE 29F0              breq L323
 16C0           X189:
 16C0 4230              cpi R20,2
 16C2 E0E0              ldi R30,0
 16C4 5E07              cpc R21,R30
 16C6 81F0              breq L324
 16C8           X190:
 16C8 A1C0              xjmp L320
 16CA           L323:
 16CA                   .dbline 767
 16CA           ;                 case 1:
 16CA           ;                  Set_White_off(5,1,8);
 16CA 88E0              ldi R24,8
 16CC 8883              std y+0,R24
 16CE 21E0              ldi R18,1
 16D0 05E0              ldi R16,5
 16D2 0E940000          xcall _Set_White_off
 16D6                   .dbline 768
 16D6           ;                  Set_White(5,0,10);
 16D6 8AE0              ldi R24,10
 16D8 8883              std y+0,R24
 16DA 2227              clr R18
 16DC 05E0              ldi R16,5
 16DE 0E940000          xcall _Set_White
 16E2                   .dbline 769
 16E2           ;                  cur=0;
 16E2 4427              clr R20
 16E4 5527              clr R21
 16E6                   .dbline 770
 16E6           ;                  break;
 16E6 92C0              xjmp L320
 16E8           L324:
 16E8                   .dbline 772
 16E8           ;                 case 2: 
 16E8           ;                  Set_White_off(5,2,8);
 16E8 88E0              ldi R24,8
 16EA 8883              std y+0,R24
 16EC 22E0              ldi R18,2
 16EE 05E0              ldi R16,5
 16F0 0E940000          xcall _Set_White_off
 16F4                   .dbline 773
 16F4           ;                  Set_White(5,1,8);
 16F4 88E0              ldi R24,8
 16F6 8883              std y+0,R24
 16F8 21E0              ldi R18,1
 16FA 05E0              ldi R16,5
 16FC 0E940000          xcall _Set_White
 1700                   .dbline 774
 1700           ;                  cur=1;
 1700 41E0              ldi R20,1
 1702 50E0              ldi R21,0
 1704                   .dbline 775
 1704           ;                  break;
 1704                   .dbline 777
 1704           ;               }
 1704           ;         }else if(keyV=='d'){
 1704 83C0              xjmp L320
 1706           L319:
 1706                   .dbline 777
 1706 6436              cpi R22,100
 1708 31F5              brne L325
 170A           X191:
 170A                   .dbline 777
 170A                   .dbline 778
 170A           ;             switch(cur){
 170A 4030              cpi R20,0
 170C 4507              cpc R20,R21
 170E 29F0              breq L329
 1710           X192:
 1710 4130              cpi R20,1
 1712 E0E0              ldi R30,0
 1714 5E07              cpc R21,R30
 1716 81F0              breq L330
 1718           X193:
 1718 79C0              xjmp L326
 171A           L329:
 171A                   .dbline 780
 171A           ;                 case 0:
 171A           ;                  Set_White_off(5,0,10);
 171A 8AE0              ldi R24,10
 171C 8883              std y+0,R24
 171E 2227              clr R18
 1720 05E0              ldi R16,5
 1722 0E940000          xcall _Set_White_off
 1726                   .dbline 781
 1726           ;                  Set_White(5,1,8);
 1726 88E0              ldi R24,8
 1728 8883              std y+0,R24
 172A 21E0              ldi R18,1
 172C 05E0              ldi R16,5
 172E 0E940000          xcall _Set_White
 1732                   .dbline 782
 1732           ;                  cur=1;
 1732 41E0              ldi R20,1
 1734 50E0              ldi R21,0
 1736                   .dbline 783
 1736           ;                  break;
 1736 6AC0              xjmp L326
 1738           L330:
 1738                   .dbline 785
 1738           ;                 case 1: 
 1738           ;                  Set_White_off(5,1,8);
 1738 88E0              ldi R24,8
 173A 8883              std y+0,R24
 173C 21E0              ldi R18,1
 173E 05E0              ldi R16,5
 1740 0E940000          xcall _Set_White_off
 1744                   .dbline 786
 1744           ;                  Set_White(5,2,8);
 1744 88E0              ldi R24,8
 1746 8883              std y+0,R24
 1748 22E0              ldi R18,2
 174A 05E0              ldi R16,5
 174C 0E940000          xcall _Set_White
 1750                   .dbline 787
 1750           ;                  cur=2;
 1750 42E0              ldi R20,2
 1752 50E0              ldi R21,0
 1754                   .dbline 788
 1754           ;                  break;
 1754                   .dbline 790
 1754           ;               }
 1754           ;         }else if(keyV=='e'){
 1754 5BC0              xjmp L326
 1756           L325:
 1756                   .dbline 790
 1756 6536              cpi R22,101
 1758 39F5              brne L331
 175A           X194:
 175A                   .dbline 790
 175A                   .dbline 791
 175A           ;            switch(cur){
 175A 4030              cpi R20,0
 175C 4507              cpc R20,R21
 175E 49F0              breq L335
 1760           X195:
 1760 4130              cpi R20,1
 1762 E0E0              ldi R30,0
 1764 5E07              cpc R21,R30
 1766 61F0              breq L336
 1768           X196:
 1768 4230              cpi R20,2
 176A E0E0              ldi R30,0
 176C 5E07              cpc R21,R30
 176E 79F0              breq L337
 1770           X197:
 1770 14C0              xjmp L334
 1772           L335:
 1772                   .dbline 793
 1772           ;                case 0: 
 1772           ;                  Set_White_off(5,0,10);
 1772 8AE0              ldi R24,10
 1774 8883              std y+0,R24
 1776 2227              clr R18
 1778 05E0              ldi R16,5
 177A 0E940000          xcall _Set_White_off
 177E                   .dbline 794
 177E           ;                   break;
 177E 0DC0              xjmp L334
 1780           L336:
 1780                   .dbline 796
 1780           ;                case 1:
 1780           ;                  Set_White_off(5,1,8);
 1780 88E0              ldi R24,8
 1782 8883              std y+0,R24
 1784 21E0              ldi R18,1
 1786 05E0              ldi R16,5
 1788 0E940000          xcall _Set_White_off
 178C                   .dbline 797
 178C           ;                  break;
 178C 06C0              xjmp L334
 178E           L337:
 178E                   .dbline 799
 178E           ;                case 2:
 178E           ;                 Set_White_off(5,2,8);
 178E 88E0              ldi R24,8
 1790 8883              std y+0,R24
 1792 22E0              ldi R18,2
 1794 05E0              ldi R16,5
 1796 0E940000          xcall _Set_White_off
 179A                   .dbline 800
 179A           ;                 break;
 179A                   .dbline 803
 179A           ;       
 179A           ;                 default:
 179A           ;                  break;
 179A           L334:
 179A                   .dbline 805
 179A           ;                }
 179A           ;           pageNum=1;
 179A 81E0              ldi R24,1
 179C 90E0              ldi R25,0
 179E 90930100          sts _pageNum+1,R25
 17A2 80930000          sts _pageNum,R24
 17A6                   .dbline 806
 17A6           ;               return;
 17A6 33C0              xjmp L312
 17A8           L331:
 17A8                   .dbline 807
 17A8           ;         }else if(keyV=='t'){
 17A8 6437              cpi R22,116
 17AA 81F5              brne L338
 17AC           X198:
 17AC                   .dbline 807
 17AC                   .dbline 808
 17AC           ;           switch(cur){
 17AC 4030              cpi R20,0
 17AE 4507              cpc R20,R21
 17B0 69F1              breq L341
 17B2           X199:
 17B2 4130              cpi R20,1
 17B4 E0E0              ldi R30,0
 17B6 5E07              cpc R21,R30
 17B8 29F0              breq L343
 17BA           X200:
 17BA 4230              cpi R20,2
 17BC E0E0              ldi R30,0
 17BE 5E07              cpc R21,R30
 17C0 69F0              breq L344
 17C2           X201:
 17C2 24C0              xjmp L340
 17C4           L343:
 17C4                   .dbline 813
 17C4           ;                 case 0:
 17C4           ;                    //执行EEPROM操作
 17C4           ;                   break;
 17C4           ;                 case 1:
 17C4           ;                  pageNum=8;
 17C4 88E0              ldi R24,8
 17C6 90E0              ldi R25,0
 17C8 90930100          sts _pageNum+1,R25
 17CC 80930000          sts _pageNum,R24
 17D0                   .dbline 814
 17D0           ;                  Set_White_off(5,1,8);
 17D0 8883              std y+0,R24
 17D2 21E0              ldi R18,1
 17D4 05E0              ldi R16,5
 17D6 0E940000          xcall _Set_White_off
 17DA                   .dbline 815
 17DA           ;                  return;
 17DA 19C0              xjmp L312
 17DC           L344:
 17DC                   .dbline 818
 17DC           ;                 
 17DC           ;                 case 2://重置系统
 17DC           ;                   prePageNum=5;
 17DC 85E0              ldi R24,5
 17DE 90E0              ldi R25,0
 17E0 90930100          sts _prePageNum+1,R25
 17E4 80930000          sts _prePageNum,R24
 17E8                   .dbline 819
 17E8           ;                   pageNum=7;
 17E8 87E0              ldi R24,7
 17EA 90930100          sts _pageNum+1,R25
 17EE 80930000          sts _pageNum,R24
 17F2                   .dbline 820
 17F2           ;                       pageParam[2]=0;
 17F2 2224              clr R2
 17F4 3324              clr R3
 17F6 30920500          sts _pageParam+4+1,R3
 17FA 20920400          sts _pageParam+4,R2
 17FE                   .dbline 821
 17FE           ;                   Set_White_off(5,2,8);
 17FE 88E0              ldi R24,8
 1800 8883              std y+0,R24
 1802 22E0              ldi R18,2
 1804 05E0              ldi R16,5
 1806 0E940000          xcall _Set_White_off
 180A                   .dbline 822
 180A           ;                  return;
 180A 01C0              xjmp L312
 180C           L340:
 180C           L341:
 180C                   .dbline 825
 180C           ;               }
 180C           ;           
 180C           ;         }
 180C           L338:
 180C           L326:
 180C           L320:
 180C                   .dbline 826
 180C           ;    }
 180C           L317:
 180C                   .dbline 762
 180C 50CF              xjmp L316
 180E           X202:
 180E                   .dbline -2
 180E           L312:
 180E                   .dbline 0 ; func end
 180E 2296              adiw R28,2
 1810 0C940000          xjmp pop_xgsetF000
 1814                   .dbsym r cur 20 i
 1814                   .dbsym r keyV 22 c
 1814                   .dbend
 1814                   .dbfunc e page6 _page6 fV
                        .even
 1814           _page6::
 1814 2297              sbiw R28,2
 1816                   .dbline -1
 1816                   .dbline 829
 1816           ;    
 1816           ;  }
 1816           ;  void page6(void){//复用的方法
 1816                   .dbline 830
 1816           ;  if(pageParam[1]==0){
 1816 20900200          lds R2,_pageParam+2
 181A 30900300          lds R3,_pageParam+2+1
 181E 2220              tst R2
 1820 59F4              brne L347
 1822 3320              tst R3
 1824 49F4              brne L347
 1826           X203:
 1826                   .dbline 830
 1826                   .dbline 831
 1826           ;      lcd_write_str(4,1,"时间保存成功！");
 1826 80E0              ldi R24,<L350
 1828 90E0              ldi R25,>L350
 182A 9983              std y+1,R25
 182C 8883              std y+0,R24
 182E 21E0              ldi R18,1
 1830 04E0              ldi R16,4
 1832 0E940000          xcall _lcd_write_str
 1836                   .dbline 832
 1836           ;    }else if(pageParam[1]==1){
 1836 21C0              xjmp L348
 1838           L347:
 1838                   .dbline 832
 1838 80910200          lds R24,_pageParam+2
 183C 90910300          lds R25,_pageParam+2+1
 1840 8130              cpi R24,1
 1842 E0E0              ldi R30,0
 1844 9E07              cpc R25,R30
 1846 49F4              brne L351
 1848           X204:
 1848                   .dbline 832
 1848                   .dbline 833
 1848           ;      lcd_write_str(4,1,"温度保存成功！");
 1848 80E0              ldi R24,<L354
 184A 90E0              ldi R25,>L354
 184C 9983              std y+1,R25
 184E 8883              std y+0,R24
 1850 21E0              ldi R18,1
 1852 04E0              ldi R16,4
 1854 0E940000          xcall _lcd_write_str
 1858                   .dbline 834
 1858           ;    }else if(pageParam[1]==2){
 1858 10C0              xjmp L352
 185A           L351:
 185A                   .dbline 834
 185A 80910200          lds R24,_pageParam+2
 185E 90910300          lds R25,_pageParam+2+1
 1862 8230              cpi R24,2
 1864 E0E0              ldi R30,0
 1866 9E07              cpc R25,R30
 1868 41F4              brne L355
 186A           X205:
 186A                   .dbline 834
 186A                   .dbline 835
 186A           ;      lcd_write_str(4,1,"温度保存失败！");
 186A 80E0              ldi R24,<L358
 186C 90E0              ldi R25,>L358
 186E 9983              std y+1,R25
 1870 8883              std y+0,R24
 1872 21E0              ldi R18,1
 1874 04E0              ldi R16,4
 1876 0E940000          xcall _lcd_write_str
 187A                   .dbline 836
 187A           ;    }
 187A           L355:
 187A           L352:
 187A           L348:
 187A                   .dbline 837
 187A           ;    delay_ms(500);
 187A 04EF              ldi R16,500
 187C 11E0              ldi R17,1
 187E 0E940000          xcall _delay_ms
 1882                   .dbline 838
 1882           ;    pageNum=prePageNum;
 1882 20900000          lds R2,_prePageNum
 1886 30900100          lds R3,_prePageNum+1
 188A 30920100          sts _pageNum+1,R3
 188E 20920000          sts _pageNum,R2
 1892                   .dbline -2
 1892           L346:
 1892                   .dbline 0 ; func end
 1892 2296              adiw R28,2
 1894 0895              ret
 1896                   .dbend
 1896                   .dbfunc e page7 _page7 fV
 1896           ;            cur -> R20,R21
 1896           ;           keyV -> R10
                        .even
 1896           _page7::
 1896 0E940000          xcall push_xgsetF00C
 189A 2297              sbiw R28,2
 189C                   .dbline -1
 189C                   .dbline 840
 189C           ;  }
 189C           ;  void page7(void){
 189C                   .dbline 841
 189C           ;    uint cur=1;
 189C 41E0              ldi R20,1
 189E 50E0              ldi R21,0
 18A0                   .dbline 843
 18A0           ;    uchar keyV;
 18A0           ;    lcd_write_str(2,0,"是否重置");
 18A0 80E0              ldi R24,<L360
 18A2 90E0              ldi R25,>L360
 18A4 9983              std y+1,R25
 18A6 8883              std y+0,R24
 18A8 2227              clr R18
 18AA 02E0              ldi R16,2
 18AC 0E940000          xcall _lcd_write_str
 18B0                   .dbline 844
 18B0           ;    lcd_write_str(2,2,"确认");
 18B0 80E0              ldi R24,<L361
 18B2 90E0              ldi R25,>L361
 18B4 9983              std y+1,R25
 18B6 8883              std y+0,R24
 18B8 22E0              ldi R18,2
 18BA 02E0              ldi R16,2
 18BC 0E940000          xcall _lcd_write_str
 18C0                   .dbline 845
 18C0           ;    lcd_write_str(8,2,"取消");
 18C0 80E0              ldi R24,<L110
 18C2 90E0              ldi R25,>L110
 18C4 9983              std y+1,R25
 18C6 8883              std y+0,R24
 18C8 22E0              ldi R18,2
 18CA 08E0              ldi R16,8
 18CC 0E940000          xcall _lcd_write_str
 18D0                   .dbline 846
 18D0           ;    Set_White(9,2,10);
 18D0 8AE0              ldi R24,10
 18D2 8883              std y+0,R24
 18D4 22E0              ldi R18,2
 18D6 09E0              ldi R16,9
 18D8 0E940000          xcall _Set_White
 18DC 78C0              xjmp L363
 18DE           L362:
 18DE                   .dbline 847
 18DE           ;     while(1){
 18DE                   .dbline 848
 18DE           ;       keyV=KeyScan_once();
 18DE 0E940000          xcall _KeyScan_once
 18E2 A02E              mov R10,R16
 18E4                   .dbline 849
 18E4           ;         switch(keyV){
 18E4 6A2D              mov R22,R10
 18E6 7727              clr R23
 18E8 6C36              cpi R22,108
 18EA E0E0              ldi R30,0
 18EC 7E07              cpc R23,R30
 18EE A1F0              breq L368
 18F0           X206:
 18F0 8CE6              ldi R24,108
 18F2 90E0              ldi R25,0
 18F4 8617              cp R24,R22
 18F6 9707              cpc R25,R23
 18F8 34F0              brlt L379
 18FA           X207:
 18FA           L378:
 18FA 6536              cpi R22,101
 18FC E0E0              ldi R30,0
 18FE 7E07              cpc R23,R30
 1900 09F4              brne X215
 1902 50C0              xjmp L377
 1904           X215:
 1904           X208:
 1904 64C0              xjmp L365
 1906           L379:
 1906 6237              cpi R22,114
 1908 E0E0              ldi R30,0
 190A 7E07              cpc R23,R30
 190C C9F0              breq L371
 190E           X209:
 190E 6437              cpi R22,116
 1910 E0E0              ldi R30,0
 1912 7E07              cpc R23,R30
 1914 41F1              breq L374
 1916           X210:
 1916 5BC0              xjmp L365
 1918           L368:
 1918                   .dbline 851
 1918           ;           case 'l':
 1918           ;                  if(cur==1){
 1918 4130              cpi R20,1
 191A E0E0              ldi R30,0
 191C 5E07              cpc R21,R30
 191E 09F0              breq X216
 1920 56C0              xjmp L366
 1922           X216:
 1922           X211:
 1922                   .dbline 851
 1922                   .dbline 852
 1922           ;                     Set_White_off(9,2,10);
 1922 8AE0              ldi R24,10
 1924 8883              std y+0,R24
 1926 22E0              ldi R18,2
 1928 09E0              ldi R16,9
 192A 0E940000          xcall _Set_White_off
 192E                   .dbline 853
 192E           ;                     Set_White(3,2,4);
 192E 84E0              ldi R24,4
 1930 8883              std y+0,R24
 1932 22E0              ldi R18,2
 1934 03E0              ldi R16,3
 1936 0E940000          xcall _Set_White
 193A                   .dbline 854
 193A           ;                         cur=0;
 193A 4427              clr R20
 193C 5527              clr R21
 193E                   .dbline 855
 193E           ;                  }
 193E                   .dbline 856
 193E           ;                  break;
 193E 47C0              xjmp L366
 1940           L371:
 1940                   .dbline 858
 1940           ;               case 'r':
 1940           ;                  if(cur==0){
 1940 4030              cpi R20,0
 1942 4507              cpc R20,R21
 1944 09F0              breq X217
 1946 43C0              xjmp L366
 1948           X217:
 1948           X212:
 1948                   .dbline 858
 1948                   .dbline 859
 1948           ;                     Set_White_off(3,2,4);
 1948 84E0              ldi R24,4
 194A 8883              std y+0,R24
 194C 22E0              ldi R18,2
 194E 03E0              ldi R16,3
 1950 0E940000          xcall _Set_White_off
 1954                   .dbline 860
 1954           ;                     Set_White(9,2,10);
 1954 8AE0              ldi R24,10
 1956 8883              std y+0,R24
 1958 22E0              ldi R18,2
 195A 09E0              ldi R16,9
 195C 0E940000          xcall _Set_White
 1960                   .dbline 861
 1960           ;                         cur=1;
 1960 41E0              ldi R20,1
 1962 50E0              ldi R21,0
 1964                   .dbline 862
 1964           ;                  }
 1964                   .dbline 863
 1964           ;                 break;
 1964 34C0              xjmp L366
 1966           L374:
 1966                   .dbline 866
 1966           ;               case 't':
 1966           ;                 //执行相关操作          
 1966           ;                 if(cur==0){
 1966 4030              cpi R20,0
 1968 4507              cpc R20,R21
 196A 69F4              brne L375
 196C           X213:
 196C                   .dbline 866
 196C                   .dbline 867
 196C           ;                    Set_White_off(3,2,4);
 196C 84E0              ldi R24,4
 196E 8883              std y+0,R24
 1970 22E0              ldi R18,2
 1972 03E0              ldi R16,3
 1974 0E940000          xcall _Set_White_off
 1978                   .dbline 869
 1978           ;                      //进入重置画面。在Page9启动看门狗重置系统、不喂狗。数据重置对呀操作不同
 1978           ;                      pageNum=9;
 1978 89E0              ldi R24,9
 197A 90E0              ldi R25,0
 197C 90930100          sts _pageNum+1,R25
 1980 80930000          sts _pageNum,R24
 1984                   .dbline 870
 1984           ;                 }else {
 1984 25C0              xjmp L359
 1986           L375:
 1986                   .dbline 870
 1986                   .dbline 871
 1986           ;                     Set_White_off(9,2,10);
 1986 8AE0              ldi R24,10
 1988 8883              std y+0,R24
 198A 22E0              ldi R18,2
 198C 09E0              ldi R16,9
 198E 0E940000          xcall _Set_White_off
 1992                   .dbline 872
 1992           ;                      pageNum=prePageNum;
 1992 20900000          lds R2,_prePageNum
 1996 30900100          lds R3,_prePageNum+1
 199A 30920100          sts _pageNum+1,R3
 199E 20920000          sts _pageNum,R2
 19A2                   .dbline 873
 19A2           ;                 }
 19A2                   .dbline 874
 19A2           ;                 return;
 19A2 16C0              xjmp L359
 19A4           L377:
 19A4                   .dbline 876
 19A4           ;                case 'e':
 19A4           ;                   Set_White_off(3,2,4);
 19A4 84E0              ldi R24,4
 19A6 8883              std y+0,R24
 19A8 22E0              ldi R18,2
 19AA 03E0              ldi R16,3
 19AC 0E940000          xcall _Set_White_off
 19B0                   .dbline 877
 19B0           ;                   Set_White_off(9,2,10);
 19B0 8AE0              ldi R24,10
 19B2 8883              std y+0,R24
 19B4 22E0              ldi R18,2
 19B6 09E0              ldi R16,9
 19B8 0E940000          xcall _Set_White_off
 19BC                   .dbline 878
 19BC           ;                   pageNum=prePageNum;
 19BC 20900000          lds R2,_prePageNum
 19C0 30900100          lds R3,_prePageNum+1
 19C4 30920100          sts _pageNum+1,R3
 19C8 20920000          sts _pageNum,R2
 19CC                   .dbline 879
 19CC           ;                   return;
 19CC 01C0              xjmp L359
 19CE           L365:
 19CE           L366:
 19CE                   .dbline 881
 19CE           ;         }
 19CE           ;       }
 19CE           L363:
 19CE                   .dbline 847
 19CE 87CF              xjmp L362
 19D0           X214:
 19D0                   .dbline -2
 19D0           L359:
 19D0                   .dbline 0 ; func end
 19D0 2296              adiw R28,2
 19D2 0C940000          xjmp pop_xgsetF00C
 19D6                   .dbsym r cur 20 i
 19D6                   .dbsym r keyV 10 c
 19D6                   .dbend
                        .area data(ram, con, rel)
 0106                   .dbfile E:\ICCDemo\Temp_Control\temp_control\pages.c
 0106           L381:
 0106                   .blkb 2
                        .area idata
 0106 0100              .word 1
                        .area data(ram, con, rel)
 0108                   .dbfile E:\ICCDemo\Temp_Control\temp_control\pages.c
 0108                   .blkb 2
                        .area idata
 0108 0200              .word 2
                        .area data(ram, con, rel)
 010A                   .dbfile E:\ICCDemo\Temp_Control\temp_control\pages.c
 010A                   .blkb 2
                        .area idata
 010A 0300              .word 3
                        .area data(ram, con, rel)
 010C                   .dbfile E:\ICCDemo\Temp_Control\temp_control\pages.c
 010C                   .blkb 2
                        .area idata
 010C 0400              .word 4
                        .area data(ram, con, rel)
 010E                   .dbfile E:\ICCDemo\Temp_Control\temp_control\pages.c
 010E                   .blkb 2
                        .area idata
 010E 0600              .word 6
                        .area data(ram, con, rel)
 0110                   .dbfile E:\ICCDemo\Temp_Control\temp_control\pages.c
 0110                   .blkb 2
                        .area idata
 0110 0700              .word 7
                        .area data(ram, con, rel)
 0112                   .dbfile E:\ICCDemo\Temp_Control\temp_control\pages.c
 0112                   .blkb 2
                        .area idata
 0112 0900              .word 9
                        .area data(ram, con, rel)
 0114                   .dbfile E:\ICCDemo\Temp_Control\temp_control\pages.c
 0114                   .blkb 2
                        .area idata
 0114 0A00              .word 10
                        .area data(ram, con, rel)
 0116                   .dbfile E:\ICCDemo\Temp_Control\temp_control\pages.c
 0116                   .blkb 2
                        .area idata
 0116 0200              .word 2
                        .area data(ram, con, rel)
 0118                   .dbfile E:\ICCDemo\Temp_Control\temp_control\pages.c
 0118                   .blkb 2
                        .area idata
 0118 0300              .word 3
                        .area data(ram, con, rel)
 011A                   .dbfile E:\ICCDemo\Temp_Control\temp_control\pages.c
 011A                   .blkb 2
                        .area idata
 011A 0500              .word 5
                        .area data(ram, con, rel)
 011C                   .dbfile E:\ICCDemo\Temp_Control\temp_control\pages.c
 011C                   .blkb 2
                        .area idata
 011C 0600              .word 6
                        .area data(ram, con, rel)
 011E                   .dbfile E:\ICCDemo\Temp_Control\temp_control\pages.c
 011E                   .blkb 2
                        .area idata
 011E 0800              .word 8
                        .area data(ram, con, rel)
 0120                   .dbfile E:\ICCDemo\Temp_Control\temp_control\pages.c
 0120                   .blkb 2
                        .area idata
 0120 0900              .word 9
                        .area data(ram, con, rel)
 0122                   .dbfile E:\ICCDemo\Temp_Control\temp_control\pages.c
                        .area text(rom, con, rel)
 19D6                   .dbfile E:\ICCDemo\Temp_Control\temp_control\pages.c
 19D6                   .dbfunc e page8 _page8 fV
 19D6           ;         dateAc -> y+17
 19D6           ;           keyV -> R22
 19D6           ;            cur -> R20,R21
 19D6           ;           date -> y+2
 19D6           ;              i -> R22,R23
                        .even
 19D6           _page8::
 19D6 0E940000          xcall push_xgsetF000
 19DA AD97              sbiw R28,45
 19DC                   .dbline -1
 19DC                   .dbline 884
 19DC           ;  }
 19DC           ;  //由于使用DS1307，暂时不做读取和保存时间的。等实时时钟模块买来
 19DC           ;  void page8(void){
 19DC                   .dbline 885
 19DC           ;    uint cur=0;
 19DC 4427              clr R20
 19DE 5527              clr R21
 19E0                   .dbline 889
 19E0           ;    uchar keyV;
 19E0           ;    uchar date[15];
 19E0           ;    uint i;
 19E0           ;     uint dateAc[14]={1,2,3,4,6,7,9,10,2,3,5,6,8,9};
 19E0 80E0              ldi R24,<L381
 19E2 90E0              ldi R25,>L381
 19E4 FE01              movw R30,R28
 19E6 7196              adiw R30,17
 19E8 0CE1              ldi R16,28
 19EA 10E0              ldi R17,0
 19EC FA93              st -y,R31
 19EE EA93              st -y,R30
 19F0 9A93              st -y,R25
 19F2 8A93              st -y,R24
 19F4 0E940000          xcall asgnblk
 19F8                   .dbline 891
 19F8           ;       
 19F8           ;    date[0]=2;
 19F8 82E0              ldi R24,2
 19FA 8A83              std y+2,R24
 19FC                   .dbline 892
 19FC           ;    date[1]=0;
 19FC 2224              clr R2
 19FE 2B82              std y+3,R2
 1A00                   .dbline 893
 1A00           ;    date[2]=1;
 1A00 81E0              ldi R24,1
 1A02 8C83              std y+4,R24
 1A04                   .dbline 894
 1A04           ;    date[3]=5;
 1A04 85E0              ldi R24,5
 1A06 8D83              std y+5,R24
 1A08                   .dbline 895
 1A08           ;    date[4]=1;
 1A08 81E0              ldi R24,1
 1A0A 8E83              std y+6,R24
 1A0C                   .dbline 896
 1A0C           ;    date[5]=2;
 1A0C 82E0              ldi R24,2
 1A0E 8F83              std y+7,R24
 1A10                   .dbline 897
 1A10           ;    date[6]=2;
 1A10 8887              std y+8,R24
 1A12                   .dbline 898
 1A12           ;    date[7]=5;
 1A12 85E0              ldi R24,5
 1A14 8987              std y+9,R24
 1A16                   .dbline 899
 1A16           ;    date[8]=1;
 1A16 81E0              ldi R24,1
 1A18 8A87              std y+10,R24
 1A1A                   .dbline 900
 1A1A           ;    date[9]=2;
 1A1A 82E0              ldi R24,2
 1A1C 8B87              std y+11,R24
 1A1E                   .dbline 901
 1A1E           ;    date[10]=3;
 1A1E 83E0              ldi R24,3
 1A20 8C87              std y+12,R24
 1A22                   .dbline 902
 1A22           ;    date[11]=0;
 1A22 2D86              std y+13,R2
 1A24                   .dbline 903
 1A24           ;    date[12]=5;
 1A24 85E0              ldi R24,5
 1A26 8E87              std y+14,R24
 1A28                   .dbline 904
 1A28           ;    date[13]=0;
 1A28 2F86              std y+15,R2
 1A2A                   .dbline 905
 1A2A           ;     lcd_write_pos(1,0);
 1A2A 2227              clr R18
 1A2C 01E0              ldi R16,1
 1A2E 0E940000          xcall _lcd_write_pos
 1A32                   .dbline 906
 1A32           ;   for(i=0;i<8;i++){
 1A32 6627              clr R22
 1A34 7727              clr R23
 1A36 1DC0              xjmp L398
 1A38           L395:
 1A38                   .dbline 906
 1A38                   .dbline 907
 1A38           ;    lcd_write_char_con(0,0x30 | date[i]);
 1A38 CE01              movw R24,R28
 1A3A 0296              adiw R24,2
 1A3C FB01              movw R30,R22
 1A3E E80F              add R30,R24
 1A40 F91F              adc R31,R25
 1A42 2081              ldd R18,z+0
 1A44 2063              ori R18,48
 1A46 0027              clr R16
 1A48 0E940000          xcall _lcd_write_char_con
 1A4C                   .dbline 908
 1A4C           ;     lcd_write_char_con(0,' ');
 1A4C 20E2              ldi R18,32
 1A4E 0027              clr R16
 1A50 0E940000          xcall _lcd_write_char_con
 1A54                   .dbline 909
 1A54           ;       if(i==3 || i==5){
 1A54 6330              cpi R22,3
 1A56 E0E0              ldi R30,0
 1A58 7E07              cpc R23,R30
 1A5A 21F0              breq L401
 1A5C           X218:
 1A5C 6530              cpi R22,5
 1A5E E0E0              ldi R30,0
 1A60 7E07              cpc R23,R30
 1A62 29F4              brne L399
 1A64           X219:
 1A64           L401:
 1A64                   .dbline 909
 1A64                   .dbline 910
 1A64           ;         lcd_write_str_con(0,"- ");
 1A64 20E0              ldi R18,<L402
 1A66 30E0              ldi R19,>L402
 1A68 0027              clr R16
 1A6A 0E940000          xcall _lcd_write_str_con
 1A6E                   .dbline 911
 1A6E           ;       }
 1A6E           L399:
 1A6E                   .dbline 912
 1A6E           ;   }
 1A6E           L396:
 1A6E                   .dbline 906
 1A6E 6F5F              subi R22,255  ; offset = 1
 1A70 7F4F              sbci R23,255
 1A72           L398:
 1A72                   .dbline 906
 1A72 6830              cpi R22,8
 1A74 E0E0              ldi R30,0
 1A76 7E07              cpc R23,R30
 1A78 F8F2              brlo L395
 1A7A           X220:
 1A7A                   .dbline 913
 1A7A           ;    lcd_write_pos(2,1);
 1A7A 21E0              ldi R18,1
 1A7C 02E0              ldi R16,2
 1A7E 0E940000          xcall _lcd_write_pos
 1A82                   .dbline 914
 1A82           ;    for(i=8;i<14;i++){
 1A82 68E0              ldi R22,8
 1A84 70E0              ldi R23,0
 1A86 1DC0              xjmp L406
 1A88           L403:
 1A88                   .dbline 914
 1A88                   .dbline 915
 1A88           ;    lcd_write_char_con(1,0x30 | date[i]);
 1A88 CE01              movw R24,R28
 1A8A 0296              adiw R24,2
 1A8C FB01              movw R30,R22
 1A8E E80F              add R30,R24
 1A90 F91F              adc R31,R25
 1A92 2081              ldd R18,z+0
 1A94 2063              ori R18,48
 1A96 01E0              ldi R16,1
 1A98 0E940000          xcall _lcd_write_char_con
 1A9C                   .dbline 916
 1A9C           ;    lcd_write_char_con(0,' ');
 1A9C 20E2              ldi R18,32
 1A9E 0027              clr R16
 1AA0 0E940000          xcall _lcd_write_char_con
 1AA4                   .dbline 917
 1AA4           ;    if(i==9 || i==11){
 1AA4 6930              cpi R22,9
 1AA6 E0E0              ldi R30,0
 1AA8 7E07              cpc R23,R30
 1AAA 21F0              breq L409
 1AAC           X221:
 1AAC 6B30              cpi R22,11
 1AAE E0E0              ldi R30,0
 1AB0 7E07              cpc R23,R30
 1AB2 29F4              brne L407
 1AB4           X222:
 1AB4           L409:
 1AB4                   .dbline 917
 1AB4                   .dbline 918
 1AB4           ;        lcd_write_str_con(0,": ");
 1AB4 20E0              ldi R18,<L190
 1AB6 30E0              ldi R19,>L190
 1AB8 0027              clr R16
 1ABA 0E940000          xcall _lcd_write_str_con
 1ABE                   .dbline 919
 1ABE           ;    }
 1ABE           L407:
 1ABE                   .dbline 920
 1ABE           ;   } 
 1ABE           L404:
 1ABE                   .dbline 914
 1ABE 6F5F              subi R22,255  ; offset = 1
 1AC0 7F4F              sbci R23,255
 1AC2           L406:
 1AC2                   .dbline 914
 1AC2 6E30              cpi R22,14
 1AC4 E0E0              ldi R30,0
 1AC6 7E07              cpc R23,R30
 1AC8 F8F2              brlo L403
 1ACA           X223:
 1ACA                   .dbline 921
 1ACA           ;    lcd_write_str(3,2,"保存");
 1ACA 80E0              ldi R24,<L238
 1ACC 90E0              ldi R25,>L238
 1ACE 9983              std y+1,R25
 1AD0 8883              std y+0,R24
 1AD2 22E0              ldi R18,2
 1AD4 03E0              ldi R16,3
 1AD6 0E940000          xcall _lcd_write_str
 1ADA                   .dbline 922
 1ADA           ;    lcd_write_str(8,2,"取消");
 1ADA 80E0              ldi R24,<L110
 1ADC 90E0              ldi R25,>L110
 1ADE 9983              std y+1,R25
 1AE0 8883              std y+0,R24
 1AE2 22E0              ldi R18,2
 1AE4 08E0              ldi R16,8
 1AE6 0E940000          xcall _lcd_write_str
 1AEA                   .dbline 925
 1AEA           ;    //初始化date
 1AEA           ;   
 1AEA           ;    cur=0;
 1AEA 4427              clr R20
 1AEC 5527              clr R21
 1AEE                   .dbline 926
 1AEE           ;    lcd_write_pos(1,0);//初始游标位置
 1AEE 2227              clr R18
 1AF0 01E0              ldi R16,1
 1AF2 0E940000          xcall _lcd_write_pos
 1AF6                   .dbline 927
 1AF6           ;    cur_set(3);//上半屏幕游标设置
 1AF6 03E0              ldi R16,3
 1AF8 10E0              ldi R17,0
 1AFA 0E940000          xcall _cur_set
 1AFE 8AC1              xjmp L411
 1B00           L410:
 1B00                   .dbline 928
 1B00           ;    while(1){
 1B00                   .dbline 929
 1B00           ;      pageTime(3);//
 1B00 03E0              ldi R16,3
 1B02 10E0              ldi R17,0
 1B04 0E940000          xcall _pageTime
 1B08                   .dbline 930
 1B08           ;        keyV=KeyScan_once();
 1B08 0E940000          xcall _KeyScan_once
 1B0C 602F              mov R22,R16
 1B0E                   .dbline 931
 1B0E           ;        if(keyV=='u'){
 1B0E 0537              cpi R16,117
 1B10 71F5              brne L413
 1B12           X224:
 1B12                   .dbline 931
 1B12                   .dbline 932
 1B12           ;          if(cur>13){//调到时间第一个
 1B12 8DE0              ldi R24,13
 1B14 90E0              ldi R25,0
 1B16 8417              cp R24,R20
 1B18 9507              cpc R25,R21
 1B1A B8F4              brsh L415
 1B1C           X225:
 1B1C                   .dbline 932
 1B1C                   .dbline 933
 1B1C           ;               Set_White_off(4,2,5);
 1B1C 85E0              ldi R24,5
 1B1E 8883              std y+0,R24
 1B20 22E0              ldi R18,2
 1B22 04E0              ldi R16,4
 1B24 0E940000          xcall _Set_White_off
 1B28                   .dbline 934
 1B28           ;                       Set_White_off(9,2,10);
 1B28 8AE0              ldi R24,10
 1B2A 8883              std y+0,R24
 1B2C 22E0              ldi R18,2
 1B2E 09E0              ldi R16,9
 1B30 0E940000          xcall _Set_White_off
 1B34                   .dbline 935
 1B34           ;               lcd_write_pos(2,1);
 1B34 21E0              ldi R18,1
 1B36 02E0              ldi R16,2
 1B38 0E940000          xcall _lcd_write_pos
 1B3C                   .dbline 936
 1B3C           ;                   cur_set(3);
 1B3C 03E0              ldi R16,3
 1B3E 10E0              ldi R17,0
 1B40 0E940000          xcall _cur_set
 1B44                   .dbline 937
 1B44           ;                       cur=8; 
 1B44 48E0              ldi R20,8
 1B46 50E0              ldi R21,0
 1B48                   .dbline 938
 1B48           ;                  }else if(cur>7 && cur <14){//调到日期第一个
 1B48 65C1              xjmp L414
 1B4A           L415:
 1B4A                   .dbline 938
 1B4A 87E0              ldi R24,7
 1B4C 90E0              ldi R25,0
 1B4E 8417              cp R24,R20
 1B50 9507              cpc R25,R21
 1B52 08F0              brlo X264
 1B54 5FC1              xjmp L414
 1B56           X264:
 1B56           X226:
 1B56 4E30              cpi R20,14
 1B58 E0E0              ldi R30,0
 1B5A 5E07              cpc R21,R30
 1B5C 08F0              brlo X265
 1B5E 5AC1              xjmp L414
 1B60           X265:
 1B60           X227:
 1B60                   .dbline 938
 1B60                   .dbline 939
 1B60           ;                   lcd_write_pos(1,0);
 1B60 2227              clr R18
 1B62 01E0              ldi R16,1
 1B64 0E940000          xcall _lcd_write_pos
 1B68                   .dbline 940
 1B68           ;                       cur=0; 
 1B68 4427              clr R20
 1B6A 5527              clr R21
 1B6C                   .dbline 941
 1B6C           ;                  }
 1B6C                   .dbline 942
 1B6C           ;        }else if(keyV=='d'){
 1B6C 53C1              xjmp L414
 1B6E           L413:
 1B6E                   .dbline 942
 1B6E 6436              cpi R22,100
 1B70 19F5              brne L419
 1B72           X228:
 1B72                   .dbline 942
 1B72                   .dbline 943
 1B72           ;            if(cur>7 && cur <14){//在时间上，第三行，默认要保存，所以调到保存上
 1B72 87E0              ldi R24,7
 1B74 90E0              ldi R25,0
 1B76 8417              cp R24,R20
 1B78 9507              cpc R25,R21
 1B7A 88F4              brsh L421
 1B7C           X229:
 1B7C 4E30              cpi R20,14
 1B7E E0E0              ldi R30,0
 1B80 5E07              cpc R21,R30
 1B82 68F4              brsh L421
 1B84           X230:
 1B84                   .dbline 943
 1B84                   .dbline 944
 1B84           ;                     cur_set(0);//关下半屏幕游标
 1B84 0027              clr R16
 1B86 1127              clr R17
 1B88 0E940000          xcall _cur_set
 1B8C                   .dbline 945
 1B8C           ;                         Set_White(4,2,5);
 1B8C 85E0              ldi R24,5
 1B8E 8883              std y+0,R24
 1B90 22E0              ldi R18,2
 1B92 04E0              ldi R16,4
 1B94 0E940000          xcall _Set_White
 1B98                   .dbline 946
 1B98           ;                         cur=14;
 1B98 4EE0              ldi R20,14
 1B9A 50E0              ldi R21,0
 1B9C                   .dbline 947
 1B9C           ;                }else if(cur<=7){ //调到时间第一个
 1B9C 3BC1              xjmp L420
 1B9E           L421:
 1B9E                   .dbline 947
 1B9E 87E0              ldi R24,7
 1BA0 90E0              ldi R25,0
 1BA2 8417              cp R24,R20
 1BA4 9507              cpc R25,R21
 1BA6 08F4              brsh X266
 1BA8 35C1              xjmp L420
 1BAA           X266:
 1BAA           X231:
 1BAA                   .dbline 947
 1BAA                   .dbline 948
 1BAA           ;                   lcd_write_pos(2,1);
 1BAA 21E0              ldi R18,1
 1BAC 02E0              ldi R16,2
 1BAE 0E940000          xcall _lcd_write_pos
 1BB2                   .dbline 949
 1BB2           ;                       cur=8; 
 1BB2 48E0              ldi R20,8
 1BB4 50E0              ldi R21,0
 1BB6                   .dbline 950
 1BB6           ;                }
 1BB6                   .dbline 951
 1BB6           ;        }else if(keyV=='l'){
 1BB6 2EC1              xjmp L420
 1BB8           L419:
 1BB8                   .dbline 951
 1BB8 6C36              cpi R22,108
 1BBA 09F0              breq X267
 1BBC 43C0              xjmp L425
 1BBE           X267:
 1BBE           X232:
 1BBE                   .dbline 951
 1BBE                   .dbline 952
 1BBE           ;                       if(cur<=8 && cur>0){
 1BBE 88E0              ldi R24,8
 1BC0 90E0              ldi R25,0
 1BC2 8417              cp R24,R20
 1BC4 9507              cpc R25,R21
 1BC6 90F0              brlo L427
 1BC8           X233:
 1BC8 4030              cpi R20,0
 1BCA 4507              cpc R20,R21
 1BCC 79F0              breq L427
 1BCE           X234:
 1BCE                   .dbline 952
 1BCE                   .dbline 953
 1BCE           ;                        cur--;
 1BCE 4150              subi R20,1
 1BD0 5040              sbci R21,0
 1BD2                   .dbline 954
 1BD2           ;                        lcd_write_pos(dateAc[cur],0);
 1BD2 2227              clr R18
 1BD4 CE01              movw R24,R28
 1BD6 4196              adiw R24,17
 1BD8 FA01              movw R30,R20
 1BDA EE0F              lsl R30
 1BDC FF1F              rol R31
 1BDE E80F              add R30,R24
 1BE0 F91F              adc R31,R25
 1BE2 0081              ldd R16,z+0
 1BE4 1181              ldd R17,z+1
 1BE6 0E940000          xcall _lcd_write_pos
 1BEA                   .dbline 955
 1BEA           ;                       }else if (cur>8 && cur<14){
 1BEA 14C1              xjmp L426
 1BEC           L427:
 1BEC                   .dbline 955
 1BEC 88E0              ldi R24,8
 1BEE 90E0              ldi R25,0
 1BF0 8417              cp R24,R20
 1BF2 9507              cpc R25,R21
 1BF4 98F4              brsh L429
 1BF6           X235:
 1BF6 4E30              cpi R20,14
 1BF8 E0E0              ldi R30,0
 1BFA 5E07              cpc R21,R30
 1BFC 78F4              brsh L429
 1BFE           X236:
 1BFE                   .dbline 955
 1BFE                   .dbline 956
 1BFE           ;                        cur--;
 1BFE 4150              subi R20,1
 1C00 5040              sbci R21,0
 1C02                   .dbline 957
 1C02           ;                        lcd_write_pos(dateAc[cur],1);
 1C02 21E0              ldi R18,1
 1C04 CE01              movw R24,R28
 1C06 4196              adiw R24,17
 1C08 FA01              movw R30,R20
 1C0A EE0F              lsl R30
 1C0C FF1F              rol R31
 1C0E E80F              add R30,R24
 1C10 F91F              adc R31,R25
 1C12 0081              ldd R16,z+0
 1C14 1181              ldd R17,z+1
 1C16 0E940000          xcall _lcd_write_pos
 1C1A                   .dbline 958
 1C1A           ;                       }else if (cur==15){
 1C1A FCC0              xjmp L426
 1C1C           L429:
 1C1C                   .dbline 958
 1C1C 4F30              cpi R20,15
 1C1E E0E0              ldi R30,0
 1C20 5E07              cpc R21,R30
 1C22 09F0              breq X268
 1C24 F7C0              xjmp L426
 1C26           X268:
 1C26           X237:
 1C26                   .dbline 958
 1C26                   .dbline 959
 1C26           ;                           Set_White_off(9,2,10);
 1C26 8AE0              ldi R24,10
 1C28 8883              std y+0,R24
 1C2A 22E0              ldi R18,2
 1C2C 09E0              ldi R16,9
 1C2E 0E940000          xcall _Set_White_off
 1C32                   .dbline 960
 1C32           ;                           Set_White(4,2,5);
 1C32 85E0              ldi R24,5
 1C34 8883              std y+0,R24
 1C36 22E0              ldi R18,2
 1C38 04E0              ldi R16,4
 1C3A 0E940000          xcall _Set_White
 1C3E                   .dbline 961
 1C3E           ;                               cur=14;
 1C3E 4EE0              ldi R20,14
 1C40 50E0              ldi R21,0
 1C42                   .dbline 962
 1C42           ;                       }
 1C42                   .dbline 965
 1C42           ;                       
 1C42           ;               
 1C42           ;        }else if(keyV=='r'){
 1C42 E8C0              xjmp L426
 1C44           L425:
 1C44                   .dbline 965
 1C44 6237              cpi R22,114
 1C46 09F0              breq X269
 1C48 3AC0              xjmp L433
 1C4A           X269:
 1C4A           X238:
 1C4A                   .dbline 965
 1C4A                   .dbline 966
 1C4A           ;              if(cur<7){
 1C4A 4730              cpi R20,7
 1C4C E0E0              ldi R30,0
 1C4E 5E07              cpc R21,R30
 1C50 78F4              brsh L435
 1C52           X239:
 1C52                   .dbline 966
 1C52                   .dbline 967
 1C52           ;                          cur++;
 1C52 4F5F              subi R20,255  ; offset = 1
 1C54 5F4F              sbci R21,255
 1C56                   .dbline 968
 1C56           ;                          lcd_write_pos(dateAc[cur],0);
 1C56 2227              clr R18
 1C58 CE01              movw R24,R28
 1C5A 4196              adiw R24,17
 1C5C FA01              movw R30,R20
 1C5E EE0F              lsl R30
 1C60 FF1F              rol R31
 1C62 E80F              add R30,R24
 1C64 F91F              adc R31,R25
 1C66 0081              ldd R16,z+0
 1C68 1181              ldd R17,z+1
 1C6A 0E940000          xcall _lcd_write_pos
 1C6E                   .dbline 969
 1C6E           ;                       }else if (cur<13){
 1C6E D2C0              xjmp L434
 1C70           L435:
 1C70                   .dbline 969
 1C70 4D30              cpi R20,13
 1C72 E0E0              ldi R30,0
 1C74 5E07              cpc R21,R30
 1C76 78F4              brsh L437
 1C78           X240:
 1C78                   .dbline 969
 1C78                   .dbline 970
 1C78           ;                          cur++;
 1C78 4F5F              subi R20,255  ; offset = 1
 1C7A 5F4F              sbci R21,255
 1C7C                   .dbline 971
 1C7C           ;                          lcd_write_pos(dateAc[cur],1);
 1C7C 21E0              ldi R18,1
 1C7E CE01              movw R24,R28
 1C80 4196              adiw R24,17
 1C82 FA01              movw R30,R20
 1C84 EE0F              lsl R30
 1C86 FF1F              rol R31
 1C88 E80F              add R30,R24
 1C8A F91F              adc R31,R25
 1C8C 0081              ldd R16,z+0
 1C8E 1181              ldd R17,z+1
 1C90 0E940000          xcall _lcd_write_pos
 1C94                   .dbline 972
 1C94           ;                       }else if (cur==14){
 1C94 BFC0              xjmp L434
 1C96           L437:
 1C96                   .dbline 972
 1C96 4E30              cpi R20,14
 1C98 E0E0              ldi R30,0
 1C9A 5E07              cpc R21,R30
 1C9C 09F0              breq X270
 1C9E BAC0              xjmp L434
 1CA0           X270:
 1CA0           X241:
 1CA0                   .dbline 972
 1CA0                   .dbline 973
 1CA0           ;                           Set_White_off(4,2,5);
 1CA0 85E0              ldi R24,5
 1CA2 8883              std y+0,R24
 1CA4 22E0              ldi R18,2
 1CA6 04E0              ldi R16,4
 1CA8 0E940000          xcall _Set_White_off
 1CAC                   .dbline 974
 1CAC           ;                               Set_White(9,2,10);
 1CAC 8AE0              ldi R24,10
 1CAE 8883              std y+0,R24
 1CB0 22E0              ldi R18,2
 1CB2 09E0              ldi R16,9
 1CB4 0E940000          xcall _Set_White
 1CB8                   .dbline 975
 1CB8           ;                               cur=15;
 1CB8 4FE0              ldi R20,15
 1CBA 50E0              ldi R21,0
 1CBC                   .dbline 976
 1CBC           ;                       }
 1CBC                   .dbline 977
 1CBC           ;        }else if(keyV=='e'){
 1CBC ABC0              xjmp L434
 1CBE           L433:
 1CBE                   .dbline 977
 1CBE 6536              cpi R22,101
 1CC0 B9F4              brne L441
 1CC2           X242:
 1CC2                   .dbline 977
 1CC2                   .dbline 978
 1CC2           ;            cur_set(0);//关上半屏幕游标
 1CC2 0027              clr R16
 1CC4 1127              clr R17
 1CC6 0E940000          xcall _cur_set
 1CCA                   .dbline 979
 1CCA           ;                 Set_White_off(4,2,5);
 1CCA 85E0              ldi R24,5
 1CCC 8883              std y+0,R24
 1CCE 22E0              ldi R18,2
 1CD0 04E0              ldi R16,4
 1CD2 0E940000          xcall _Set_White_off
 1CD6                   .dbline 980
 1CD6           ;                 Set_White_off(9,2,10);
 1CD6 8AE0              ldi R24,10
 1CD8 8883              std y+0,R24
 1CDA 22E0              ldi R18,2
 1CDC 09E0              ldi R16,9
 1CDE 0E940000          xcall _Set_White_off
 1CE2                   .dbline 981
 1CE2           ;                pageNum=1;
 1CE2 81E0              ldi R24,1
 1CE4 90E0              ldi R25,0
 1CE6 90930100          sts _pageNum+1,R25
 1CEA 80930000          sts _pageNum,R24
 1CEE                   .dbline 982
 1CEE           ;                return;
 1CEE 93C0              xjmp L380
 1CF0           L441:
 1CF0                   .dbline 984
 1CF0           ;            //退出界面
 1CF0           ;        }else if(keyV=='t'){
 1CF0 6437              cpi R22,116
 1CF2 91F5              brne L443
 1CF4           X243:
 1CF4                   .dbline 984
 1CF4                   .dbline 985
 1CF4           ;             if(cur==14){
 1CF4 4E30              cpi R20,14
 1CF6 E0E0              ldi R30,0
 1CF8 5E07              cpc R21,R30
 1CFA 91F4              brne L445
 1CFC           X244:
 1CFC                   .dbline 985
 1CFC                   .dbline 987
 1CFC           ;                       //保存操作
 1CFC           ;                               pageParam[1]=0;//标记是时间的保存
 1CFC 2224              clr R2
 1CFE 3324              clr R3
 1D00 30920300          sts _pageParam+2+1,R3
 1D04 20920200          sts _pageParam+2,R2
 1D08                   .dbline 988
 1D08           ;                               prePageNum=8;
 1D08 88E0              ldi R24,8
 1D0A 90E0              ldi R25,0
 1D0C 90930100          sts _prePageNum+1,R25
 1D10 80930000          sts _prePageNum,R24
 1D14                   .dbline 989
 1D14           ;                               pageNum=6;
 1D14 86E0              ldi R24,6
 1D16 90930100          sts _pageNum+1,R25
 1D1A 80930000          sts _pageNum,R24
 1D1E                   .dbline 990
 1D1E           ;                               return;
 1D1E 7BC0              xjmp L380
 1D20           L445:
 1D20                   .dbline 991
 1D20           ;                }else if(cur==15){
 1D20 4F30              cpi R20,15
 1D22 E0E0              ldi R30,0
 1D24 5E07              cpc R21,R30
 1D26 09F0              breq X271
 1D28 75C0              xjmp L444
 1D2A           X271:
 1D2A           X245:
 1D2A                   .dbline 991
 1D2A                   .dbline 993
 1D2A           ;                       //取消操作
 1D2A           ;                        cur_set(0);//关上半屏幕游标
 1D2A 0027              clr R16
 1D2C 1127              clr R17
 1D2E 0E940000          xcall _cur_set
 1D32                   .dbline 994
 1D32           ;                 Set_White_off(4,2,5);
 1D32 85E0              ldi R24,5
 1D34 8883              std y+0,R24
 1D36 22E0              ldi R18,2
 1D38 04E0              ldi R16,4
 1D3A 0E940000          xcall _Set_White_off
 1D3E                   .dbline 995
 1D3E           ;                 Set_White_off(9,2,10);
 1D3E 8AE0              ldi R24,10
 1D40 8883              std y+0,R24
 1D42 22E0              ldi R18,2
 1D44 09E0              ldi R16,9
 1D46 0E940000          xcall _Set_White_off
 1D4A                   .dbline 996
 1D4A           ;                pageNum=1;
 1D4A 81E0              ldi R24,1
 1D4C 90E0              ldi R25,0
 1D4E 90930100          sts _pageNum+1,R25
 1D52 80930000          sts _pageNum,R24
 1D56                   .dbline 997
 1D56           ;                return;
 1D56 5FC0              xjmp L380
 1D58           L443:
 1D58                   .dbline 999
 1D58           ;                }
 1D58           ;        }else if(keyV=='0' || keyV=='1' || keyV=='2' || keyV=='3' || keyV=='4' || keyV=='5' 
 1D58 6033              cpi R22,48
 1D5A 99F0              breq L460
 1D5C           X246:
 1D5C 6133              cpi R22,49
 1D5E 89F0              breq L460
 1D60           X247:
 1D60 6233              cpi R22,50
 1D62 79F0              breq L460
 1D64           X248:
 1D64 6333              cpi R22,51
 1D66 69F0              breq L460
 1D68           X249:
 1D68 6433              cpi R22,52
 1D6A 59F0              breq L460
 1D6C           X250:
 1D6C 6533              cpi R22,53
 1D6E 49F0              breq L460
 1D70           X251:
 1D70 6633              cpi R22,54
 1D72 39F0              breq L460
 1D74           X252:
 1D74 6733              cpi R22,55
 1D76 29F0              breq L460
 1D78           X253:
 1D78 6833              cpi R22,56
 1D7A 19F0              breq L460
 1D7C           X254:
 1D7C 6933              cpi R22,57
 1D7E 09F0              breq X272
 1D80 49C0              xjmp L450
 1D82           X272:
 1D82           X255:
 1D82           L460:
 1D82                   .dbline 1000
 1D82           ;                  || keyV=='6'  || keyV=='7' || keyV=='8' || keyV=='9'){
 1D82                   .dbline 1001
 1D82           ;                       if(cur<14){
 1D82 4E30              cpi R20,14
 1D84 E0E0              ldi R30,0
 1D86 5E07              cpc R21,R30
 1D88 08F0              brlo X273
 1D8A 44C0              xjmp L461
 1D8C           X273:
 1D8C           X256:
 1D8C                   .dbline 1001
 1D8C                   .dbline 1002
 1D8C           ;                        lcd_write_char_con(0,0x30 | keyV);
 1D8C 262F              mov R18,R22
 1D8E 2063              ori R18,48
 1D90 0027              clr R16
 1D92 0E940000          xcall _lcd_write_char_con
 1D96                   .dbline 1003
 1D96           ;                        lcd_write_char_con(0,' ');
 1D96 20E2              ldi R18,32
 1D98 0027              clr R16
 1D9A 0E940000          xcall _lcd_write_char_con
 1D9E                   .dbline 1004
 1D9E           ;                        date[cur]=keyV;
 1D9E CE01              movw R24,R28
 1DA0 0296              adiw R24,2
 1DA2 FA01              movw R30,R20
 1DA4 E80F              add R30,R24
 1DA6 F91F              adc R31,R25
 1DA8 6083              std z+0,R22
 1DAA                   .dbline 1005
 1DAA           ;                         if(cur==3 || cur==5){
 1DAA 4330              cpi R20,3
 1DAC E0E0              ldi R30,0
 1DAE 5E07              cpc R21,R30
 1DB0 21F0              breq L465
 1DB2           X257:
 1DB2 4530              cpi R20,5
 1DB4 E0E0              ldi R30,0
 1DB6 5E07              cpc R21,R30
 1DB8 31F4              brne L463
 1DBA           X258:
 1DBA           L465:
 1DBA                   .dbline 1005
 1DBA                   .dbline 1006
 1DBA           ;                           lcd_write_str_con(0,"- ");
 1DBA 20E0              ldi R18,<L402
 1DBC 30E0              ldi R19,>L402
 1DBE 0027              clr R16
 1DC0 0E940000          xcall _lcd_write_str_con
 1DC4                   .dbline 1007
 1DC4           ;                        }else if(cur==9 || cur==11){
 1DC4 0DC0              xjmp L464
 1DC6           L463:
 1DC6                   .dbline 1007
 1DC6 4930              cpi R20,9
 1DC8 E0E0              ldi R30,0
 1DCA 5E07              cpc R21,R30
 1DCC 21F0              breq L468
 1DCE           X259:
 1DCE 4B30              cpi R20,11
 1DD0 E0E0              ldi R30,0
 1DD2 5E07              cpc R21,R30
 1DD4 29F4              brne L466
 1DD6           X260:
 1DD6           L468:
 1DD6                   .dbline 1007
 1DD6                   .dbline 1008
 1DD6           ;                           lcd_write_str_con(0,": ");
 1DD6 20E0              ldi R18,<L190
 1DD8 30E0              ldi R19,>L190
 1DDA 0027              clr R16
 1DDC 0E940000          xcall _lcd_write_str_con
 1DE0                   .dbline 1009
 1DE0           ;                        }
 1DE0           L466:
 1DE0           L464:
 1DE0                   .dbline 1010
 1DE0           ;                        cur++;
 1DE0 4F5F              subi R20,255  ; offset = 1
 1DE2 5F4F              sbci R21,255
 1DE4                   .dbline 1011
 1DE4           ;                        if(cur==8){
 1DE4 4830              cpi R20,8
 1DE6 E0E0              ldi R30,0
 1DE8 5E07              cpc R21,R30
 1DEA 31F4              brne L469
 1DEC           X261:
 1DEC                   .dbline 1011
 1DEC                   .dbline 1012
 1DEC           ;                           lcd_write_pos(dateAc[8],1);
 1DEC 21E0              ldi R18,1
 1DEE 09A1              ldd R16,y+33
 1DF0 1AA1              ldd R17,y+34
 1DF2 0E940000          xcall _lcd_write_pos
 1DF6                   .dbline 1013
 1DF6           ;                        }else if(cur==14){
 1DF6 0EC0              xjmp L470
 1DF8           L469:
 1DF8                   .dbline 1013
 1DF8 4E30              cpi R20,14
 1DFA E0E0              ldi R30,0
 1DFC 5E07              cpc R21,R30
 1DFE 51F4              brne L472
 1E00           X262:
 1E00                   .dbline 1013
 1E00                   .dbline 1014
 1E00           ;                         cur_set(0);//关下半屏幕游标
 1E00 0027              clr R16
 1E02 1127              clr R17
 1E04 0E940000          xcall _cur_set
 1E08                   .dbline 1015
 1E08           ;                         Set_White(4,2,5);
 1E08 85E0              ldi R24,5
 1E0A 8883              std y+0,R24
 1E0C 22E0              ldi R18,2
 1E0E 04E0              ldi R16,4
 1E10 0E940000          xcall _Set_White
 1E14                   .dbline 1016
 1E14           ;                        }
 1E14           L472:
 1E14           L470:
 1E14                   .dbline 1017
 1E14           ;                       }
 1E14           L461:
 1E14                   .dbline 1018
 1E14           ;        }
 1E14           L450:
 1E14           L444:
 1E14           L434:
 1E14           L426:
 1E14           L420:
 1E14           L414:
 1E14                   .dbline 1019
 1E14           ;    }
 1E14           L411:
 1E14                   .dbline 928
 1E14 75CE              xjmp L410
 1E16           X263:
 1E16                   .dbline -2
 1E16           L380:
 1E16                   .dbline 0 ; func end
 1E16 AD96              adiw R28,45
 1E18 0C940000          xjmp pop_xgsetF000
 1E1C                   .dbsym l dateAc 17 A[28:14]i
 1E1C                   .dbsym r keyV 22 c
 1E1C                   .dbsym r cur 20 i
 1E1C                   .dbsym l date 2 A[15:15]c
 1E1C                   .dbsym r i 22 i
 1E1C                   .dbend
 1E1C                   .dbfunc e page9 _page9 fV
                        .even
 1E1C           _page9::
 1E1C 2297              sbiw R28,2
 1E1E                   .dbline -1
 1E1E                   .dbline 1021
 1E1E           ;  }
 1E1E           ; void page9(void){//复用的方法
 1E1E                   .dbline 1022
 1E1E           ;   if(pageParam[2]==0){
 1E1E 20900400          lds R2,_pageParam+4
 1E22 30900500          lds R3,_pageParam+4+1
 1E26 2220              tst R2
 1E28 59F4              brne L475
 1E2A 3320              tst R3
 1E2C 49F4              brne L475
 1E2E           X274:
 1E2E                   .dbline 1022
 1E2E                   .dbline 1023
 1E2E           ;      lcd_write_str(4,1,"系统重置中。。。");
 1E2E 80E0              ldi R24,<L478
 1E30 90E0              ldi R25,>L478
 1E32 9983              std y+1,R25
 1E34 8883              std y+0,R24
 1E36 21E0              ldi R18,1
 1E38 04E0              ldi R16,4
 1E3A 0E940000          xcall _lcd_write_str
 1E3E                   .dbline 1024
 1E3E           ;    }else if(pageParam[2]==1){
 1E3E 16C0              xjmp L476
 1E40           L475:
 1E40                   .dbline 1024
 1E40 80910400          lds R24,_pageParam+4
 1E44 90910500          lds R25,_pageParam+4+1
 1E48 8130              cpi R24,1
 1E4A E0E0              ldi R30,0
 1E4C 9E07              cpc R25,R30
 1E4E 71F4              brne L479
 1E50           X275:
 1E50                   .dbline 1024
 1E50                   .dbline 1025
 1E50           ;      lcd_write_str(4,1,"数据重置中。。。");
 1E50 80E0              ldi R24,<L482
 1E52 90E0              ldi R25,>L482
 1E54 9983              std y+1,R25
 1E56 8883              std y+0,R24
 1E58 21E0              ldi R18,1
 1E5A 04E0              ldi R16,4
 1E5C 0E940000          xcall _lcd_write_str
 1E60                   .dbline 1026
 1E60           ;        reset_temp_data(pageParam[0]);
 1E60 00910000          lds R16,_pageParam
 1E64 10910100          lds R17,_pageParam+1
 1E68 0E940000          xcall _reset_temp_data
 1E6C                   .dbline 1027
 1E6C           ;    }
 1E6C           L479:
 1E6C           L476:
 1E6C                   .dbline 1028
 1E6C           ;    delay_ms(500);
 1E6C 04EF              ldi R16,500
 1E6E 11E0              ldi R17,1
 1E70 0E940000          xcall _delay_ms
 1E74                   .dbline 1029
 1E74           ;    pageNum=prePageNum;
 1E74 20900000          lds R2,_prePageNum
 1E78 30900100          lds R3,_prePageNum+1
 1E7C 30920100          sts _pageNum+1,R3
 1E80 20920000          sts _pageNum,R2
 1E84                   .dbline -2
 1E84           L474:
 1E84                   .dbline 0 ; func end
 1E84 2296              adiw R28,2
 1E86 0895              ret
 1E88                   .dbend
 1E88                   .dbfunc e dispatchPages _dispatchPages fV
                        .even
 1E88           _dispatchPages::
 1E88                   .dbline -1
 1E88                   .dbline 1032
 1E88           ;  }
 1E88           ; //分发Pages
 1E88           ; void dispatchPages(void){
 1E88                   .dbline 1033
 1E88           ;       lcd_clear();//清屏幕
 1E88 0E940000          xcall _lcd_clear
 1E8C                   .dbline 1034
 1E8C           ;       if(pageNum==1){
 1E8C 80910000          lds R24,_pageNum
 1E90 90910100          lds R25,_pageNum+1
 1E94 8130              cpi R24,1
 1E96 E0E0              ldi R30,0
 1E98 9E07              cpc R25,R30
 1E9A 19F4              brne L484
 1E9C           X276:
 1E9C                   .dbline 1034
 1E9C                   .dbline 1035
 1E9C           ;           page1();
 1E9C 0E941C00          xcall _page1
 1EA0                   .dbline 1036
 1EA0           ;         }else if(pageNum==2){
 1EA0 51C0              xjmp L485
 1EA2           L484:
 1EA2                   .dbline 1036
 1EA2 80910000          lds R24,_pageNum
 1EA6 90910100          lds R25,_pageNum+1
 1EAA 8230              cpi R24,2
 1EAC E0E0              ldi R30,0
 1EAE 9E07              cpc R25,R30
 1EB0 19F4              brne L486
 1EB2           X277:
 1EB2                   .dbline 1036
 1EB2                   .dbline 1037
 1EB2           ;           page2();
 1EB2 0E949603          xcall _page2
 1EB6                   .dbline 1038
 1EB6           ;         }else if(pageNum==3){
 1EB6 46C0              xjmp L487
 1EB8           L486:
 1EB8                   .dbline 1038
 1EB8 80910000          lds R24,_pageNum
 1EBC 90910100          lds R25,_pageNum+1
 1EC0 8330              cpi R24,3
 1EC2 E0E0              ldi R30,0
 1EC4 9E07              cpc R25,R30
 1EC6 19F4              brne L488
 1EC8           X278:
 1EC8                   .dbline 1038
 1EC8                   .dbline 1039
 1EC8           ;           page3();
 1EC8 0E942104          xcall _page3
 1ECC                   .dbline 1040
 1ECC           ;         }else if(pageNum==4){
 1ECC 3BC0              xjmp L489
 1ECE           L488:
 1ECE                   .dbline 1040
 1ECE 80910000          lds R24,_pageNum
 1ED2 90910100          lds R25,_pageNum+1
 1ED6 8430              cpi R24,4
 1ED8 E0E0              ldi R30,0
 1EDA 9E07              cpc R25,R30
 1EDC 11F4              brne L490
 1EDE           X279:
 1EDE                   .dbline 1040
 1EDE                   .dbline 1041
 1EDE           ;           page4();
 1EDE F1D8              xcall _page4
 1EE0                   .dbline 1042
 1EE0           ;         }else if(pageNum==5){
 1EE0 31C0              xjmp L491
 1EE2           L490:
 1EE2                   .dbline 1042
 1EE2 80910000          lds R24,_pageNum
 1EE6 90910100          lds R25,_pageNum+1
 1EEA 8530              cpi R24,5
 1EEC E0E0              ldi R30,0
 1EEE 9E07              cpc R25,R30
 1EF0 11F4              brne L492
 1EF2           X280:
 1EF2                   .dbline 1042
 1EF2                   .dbline 1043
 1EF2           ;           page5();
 1EF2 AFDB              xcall _page5
 1EF4                   .dbline 1044
 1EF4           ;         }else if(pageNum==6){
 1EF4 27C0              xjmp L493
 1EF6           L492:
 1EF6                   .dbline 1044
 1EF6 80910000          lds R24,_pageNum
 1EFA 90910100          lds R25,_pageNum+1
 1EFE 8630              cpi R24,6
 1F00 E0E0              ldi R30,0
 1F02 9E07              cpc R25,R30
 1F04 11F4              brne L494
 1F06           X281:
 1F06                   .dbline 1044
 1F06                   .dbline 1045
 1F06           ;           page6();
 1F06 86DC              xcall _page6
 1F08                   .dbline 1046
 1F08           ;         }else if(pageNum==7){
 1F08 1DC0              xjmp L495
 1F0A           L494:
 1F0A                   .dbline 1046
 1F0A 80910000          lds R24,_pageNum
 1F0E 90910100          lds R25,_pageNum+1
 1F12 8730              cpi R24,7
 1F14 E0E0              ldi R30,0
 1F16 9E07              cpc R25,R30
 1F18 11F4              brne L496
 1F1A           X282:
 1F1A                   .dbline 1046
 1F1A                   .dbline 1047
 1F1A           ;           page7();
 1F1A BDDC              xcall _page7
 1F1C                   .dbline 1048
 1F1C           ;         }else if(pageNum==8){
 1F1C 13C0              xjmp L497
 1F1E           L496:
 1F1E                   .dbline 1048
 1F1E 80910000          lds R24,_pageNum
 1F22 90910100          lds R25,_pageNum+1
 1F26 8830              cpi R24,8
 1F28 E0E0              ldi R30,0
 1F2A 9E07              cpc R25,R30
 1F2C 11F4              brne L498
 1F2E           X283:
 1F2E                   .dbline 1048
 1F2E                   .dbline 1049
 1F2E           ;           page8();
 1F2E 53DD              xcall _page8
 1F30                   .dbline 1050
 1F30           ;         }else if(pageNum==9){
 1F30 09C0              xjmp L499
 1F32           L498:
 1F32                   .dbline 1050
 1F32 80910000          lds R24,_pageNum
 1F36 90910100          lds R25,_pageNum+1
 1F3A 8930              cpi R24,9
 1F3C E0E0              ldi R30,0
 1F3E 9E07              cpc R25,R30
 1F40 09F4              brne L500
 1F42           X284:
 1F42                   .dbline 1050
 1F42                   .dbline 1051
 1F42           ;           page9();
 1F42 6CDF              xcall _page9
 1F44                   .dbline 1052
 1F44           ;         }
 1F44           L500:
 1F44           L499:
 1F44           L497:
 1F44           L495:
 1F44           L493:
 1F44           L491:
 1F44           L489:
 1F44           L487:
 1F44           L485:
 1F44                   .dbline -2
 1F44           L483:
 1F44                   .dbline 0 ; func end
 1F44 0895              ret
 1F46                   .dbend
                        .area data(ram, con, rel)
 0122                   .dbfile E:\ICCDemo\Temp_Control\temp_control\pages.c
 0122           L482:
 0122                   .blkb 17
                        .area idata
 0122 CAFDBEDDD6D8D6C3D6D0A1A3A1A3A1A3  .byte 202,253,190,221,214,216,214,195,214,208,161,163,161,163,161,163
 0132 00                .byte 0
                        .area data(ram, con, rel)
 0133                   .dbfile E:\ICCDemo\Temp_Control\temp_control\pages.c
 0133           L478:
 0133                   .blkb 17
                        .area idata
 0133 CFB5CDB3D6D8D6C3D6D0A1A3A1A3A1A3  .byte 207,181,205,179,214,216,214,195,214,208,161,163,161,163,161,163
 0143 00                .byte 0
                        .area data(ram, con, rel)
 0144                   .dbfile E:\ICCDemo\Temp_Control\temp_control\pages.c
 0144           L402:
 0144                   .blkb 3
                        .area idata
 0144 2D2000            .byte 45,32,0
                        .area data(ram, con, rel)
 0147                   .dbfile E:\ICCDemo\Temp_Control\temp_control\pages.c
 0147           L361:
 0147                   .blkb 5
                        .area idata
 0147 C8B7C8CF00        .byte 200,183,200,207,0
                        .area data(ram, con, rel)
 014C                   .dbfile E:\ICCDemo\Temp_Control\temp_control\pages.c
 014C           L360:
 014C                   .blkb 9
                        .area idata
 014C CAC7B7F1D6D8D6C300        .byte 202,199,183,241,214,216,214,195,0
                        .area data(ram, con, rel)
 0155                   .dbfile E:\ICCDemo\Temp_Control\temp_control\pages.c
 0155           L358:
 0155                   .blkb 15
                        .area idata
 0155 CEC2B6C8B1A3B4E6CAA7B0DCA3A100    .byte 206,194,182,200,177,163,180,230,202,167,176,220,163,161,0
                        .area data(ram, con, rel)
 0164                   .dbfile E:\ICCDemo\Temp_Control\temp_control\pages.c
 0164           L354:
 0164                   .blkb 15
                        .area idata
 0164 CEC2B6C8B1A3B4E6B3C9B9A6A3A100    .byte 206,194,182,200,177,163,180,230,179,201,185,166,163,161,0
                        .area data(ram, con, rel)
 0173                   .dbfile E:\ICCDemo\Temp_Control\temp_control\pages.c
 0173           L350:
 0173                   .blkb 15
                        .area idata
 0173 CAB1BCE4B1A3B4E6B3C9B9A6A3A100    .byte 202,177,188,228,177,163,180,230,179,201,185,166,163,161,0
                        .area data(ram, con, rel)
 0182                   .dbfile E:\ICCDemo\Temp_Control\temp_control\pages.c
 0182           L315:
 0182                   .blkb 9
                        .area idata
 0182 D6D8D6C3CFB5CDB300        .byte 214,216,214,195,207,181,205,179,0
                        .area data(ram, con, rel)
 018B                   .dbfile E:\ICCDemo\Temp_Control\temp_control\pages.c
 018B           L314:
 018B                   .blkb 9
                        .area idata
 018B C9E8D6C3CAB1BCE400        .byte 201,232,214,195,202,177,188,228,0
                        .area data(ram, con, rel)
 0194                   .dbfile E:\ICCDemo\Temp_Control\temp_control\pages.c
 0194           L313:
 0194                   .blkb 13
                        .area idata
 0194 B6CFB5E7D7D4B6AFD6D8D6C300        .byte 182,207,181,231,215,212,182,175,214,216,214,195,0
                        .area data(ram, con, rel)
 01A1                   .dbfile E:\ICCDemo\Temp_Control\temp_control\pages.c
 01A1           L286:
 01A1                   .blkb 12
                        .area idata
 01A1 B1A3B4E6D6D02E202E202E00  .byte 177,163,180,230,214,208,46,32,46,32,46,0
                        .area data(ram, con, rel)
 01AD                   .dbfile E:\ICCDemo\Temp_Control\temp_control\pages.c
 01AD           L238:
 01AD                   .blkb 5
                        .area idata
 01AD B1A3B4E600        .byte 177,163,180,230,0
                        .area data(ram, con, rel)
 01B2                   .dbfile E:\ICCDemo\Temp_Control\temp_control\pages.c
 01B2           L237:
 01B2                   .blkb 5
                        .area idata
 01B2 CEC2B6C800        .byte 206,194,182,200,0
                        .area data(ram, con, rel)
 01B7                   .dbfile E:\ICCDemo\Temp_Control\temp_control\pages.c
 01B7           L236:
 01B7                   .blkb 5
                        .area idata
 01B7 BAE3CEC200        .byte 186,227,206,194,0
                        .area data(ram, con, rel)
 01BC                   .dbfile E:\ICCDemo\Temp_Control\temp_control\pages.c
 01BC           L235:
 01BC                   .blkb 5
                        .area idata
 01BC C9FDCEC200        .byte 201,253,206,194,0
                        .area data(ram, con, rel)
 01C1                   .dbfile E:\ICCDemo\Temp_Control\temp_control\pages.c
 01C1           L191:
 01C1                   .blkb 2
                        .area idata
 01C1 2000              .byte 32,0
                        .area data(ram, con, rel)
 01C3                   .dbfile E:\ICCDemo\Temp_Control\temp_control\pages.c
 01C3           L190:
 01C3                   .blkb 3
                        .area idata
 01C3 3A2000            .byte 58,32,0
                        .area data(ram, con, rel)
 01C6                   .dbfile E:\ICCDemo\Temp_Control\temp_control\pages.c
 01C6           L134:
 01C6                   .blkb 5
                        .area idata
 01C6 D6D8D6C300        .byte 214,216,214,195,0
                        .area data(ram, con, rel)
 01CB                   .dbfile E:\ICCDemo\Temp_Control\temp_control\pages.c
 01CB           L133:
 01CB                   .blkb 5
                        .area idata
 01CB D4CBD0D000        .byte 212,203,208,208,0
                        .area data(ram, con, rel)
 01D0                   .dbfile E:\ICCDemo\Temp_Control\temp_control\pages.c
 01D0           L132:
 01D0                   .blkb 5
                        .area idata
 01D0 B1E0BCAD00        .byte 177,224,188,173,0
                        .area data(ram, con, rel)
 01D5                   .dbfile E:\ICCDemo\Temp_Control\temp_control\pages.c
 01D5           L131:
 01D5                   .blkb 6
                        .area idata
 01D5 D7B4CCAC3A00      .byte 215,180,204,172,58,0
                        .area data(ram, con, rel)
 01DB                   .dbfile E:\ICCDemo\Temp_Control\temp_control\pages.c
 01DB           L130:
 01DB                   .blkb 6
                        .area idata
 01DB CEC2B6C83A00      .byte 206,194,182,200,58,0
                        .area data(ram, con, rel)
 01E1                   .dbfile E:\ICCDemo\Temp_Control\temp_control\pages.c
 01E1           L129:
 01E1                   .blkb 2
                        .area idata
 01E1 5400              .byte 'T,0
                        .area data(ram, con, rel)
 01E3                   .dbfile E:\ICCDemo\Temp_Control\temp_control\pages.c
 01E3           L126:
 01E3                   .blkb 12
                        .area idata
 01E3 BBD6B8B4D6D02E202E202E00  .byte 187,214,184,180,214,208,46,32,46,32,46,0
                        .area data(ram, con, rel)
 01EF                   .dbfile E:\ICCDemo\Temp_Control\temp_control\pages.c
 01EF           L110:
 01EF                   .blkb 5
                        .area idata
 01EF C8A1CFFB00        .byte 200,161,207,251,0
                        .area data(ram, con, rel)
 01F4                   .dbfile E:\ICCDemo\Temp_Control\temp_control\pages.c
 01F4           L109:
 01F4                   .blkb 5
                        .area idata
 01F4 BBD6B8B400        .byte 187,214,184,180,0
                        .area data(ram, con, rel)
 01F9                   .dbfile E:\ICCDemo\Temp_Control\temp_control\pages.c
 01F9           L108:
 01F9                   .blkb 17
                        .area idata
 01F9 CAC7B7F1BBD6B8B4C9CFB4CEB9A4D7F7  .byte 202,199,183,241,187,214,184,180,201,207,180,206,185,164,215,247
 0209 00                .byte 0
                        .area data(ram, con, rel)
 020A                   .dbfile E:\ICCDemo\Temp_Control\temp_control\pages.c
 020A           L41:
 020A                   .blkb 5
                        .area idata
 020A B5C8B4FD00        .byte 181,200,180,253,0
                        .area data(ram, con, rel)
 020F                   .dbfile E:\ICCDemo\Temp_Control\temp_control\pages.c
 020F           L39:
 020F                   .blkb 5
                        .area idata
 020F BDE1CAF800        .byte 189,225,202,248,0
                        .area data(ram, con, rel)
 0214                   .dbfile E:\ICCDemo\Temp_Control\temp_control\pages.c
 0214           L37:
 0214                   .blkb 5
                        .area idata
 0214 D4DDCDA300        .byte 212,221,205,163,0
                        .area data(ram, con, rel)
 0219                   .dbfile E:\ICCDemo\Temp_Control\temp_control\pages.c
 0219           L35:
 0219                   .blkb 5
                        .area idata
 0219 B9CAD5CF00        .byte 185,202,213,207,0
                        .area data(ram, con, rel)
 021E                   .dbfile E:\ICCDemo\Temp_Control\temp_control\pages.c
 021E           L33:
 021E                   .blkb 4
                        .area idata
 021E 31353000          .byte 49,53,48,0
                        .area data(ram, con, rel)
 0222                   .dbfile E:\ICCDemo\Temp_Control\temp_control\pages.c
 0222           L31:
 0222                   .blkb 5
                        .area idata
 0222 CDA3D6B900        .byte 205,163,214,185,0
                        .area data(ram, con, rel)
 0227                   .dbfile E:\ICCDemo\Temp_Control\temp_control\pages.c
 0227           L11:
 0227                   .blkb 5
                        .area idata
 0227 C9E8D6C300        .byte 201,232,214,195,0
                        .area data(ram, con, rel)
 022C                   .dbfile E:\ICCDemo\Temp_Control\temp_control\pages.c
 022C           L10:
 022C                   .blkb 9
                        .area idata
 022C CDA3D6B92020202000        .byte 205,163,214,185,32,32,32,32,0
                        .area data(ram, con, rel)
 0235                   .dbfile E:\ICCDemo\Temp_Control\temp_control\pages.c
 0235           L9:
 0235                   .blkb 9
                        .area idata
 0235 BFAACABC2020202000        .byte 191,170,202,188,32,32,32,32,0
                        .area data(ram, con, rel)
 023E                   .dbfile E:\ICCDemo\Temp_Control\temp_control\pages.c
 023E           L8:
 023E                   .blkb 5
                        .area idata
 023E 2054343A00        .byte 32,'T,52,58,0
                        .area data(ram, con, rel)
 0243                   .dbfile E:\ICCDemo\Temp_Control\temp_control\pages.c
 0243           L7:
 0243                   .blkb 5
                        .area idata
 0243 2054333A00        .byte 32,'T,51,58,0
                        .area data(ram, con, rel)
 0248                   .dbfile E:\ICCDemo\Temp_Control\temp_control\pages.c
 0248           L6:
 0248                   .blkb 5
                        .area idata
 0248 2054323A00        .byte 32,'T,50,58,0
                        .area data(ram, con, rel)
 024D                   .dbfile E:\ICCDemo\Temp_Control\temp_control\pages.c
 024D           L5:
 024D                   .blkb 5
                        .area idata
 024D 2054313A00        .byte 32,'T,49,58,0
                        .area data(ram, con, rel)
 0252                   .dbfile E:\ICCDemo\Temp_Control\temp_control\pages.c
 0252           L2:
 0252                   .blkb 6
                        .area idata
 0252 CAB1BCE43A00      .byte 202,177,188,228,58,0
                        .area data(ram, con, rel)
 0258                   .dbfile E:\ICCDemo\Temp_Control\temp_control\pages.c
 0258           ;                
 0258           ; }
