                        .module pages.c
                        .area text(rom, con, rel)
 0000                   .dbfile pages.c
 0000                   .dbfile E:\ICCDemo\Temp_Control\temp_control\pages.c
 0000                   .dbfunc e pageTime _pageTime fV
 0000           ;              y -> R10,R11
                        .even
 0000           _pageTime::
 0000 AA92              st -y,R10
 0002 BA92              st -y,R11
 0004 5801              movw R10,R16
 0006 2297              sbiw R28,2
 0008                   .dbline -1
 0008                   .dbline 22
 0008           ; #include<iom128v.h>
 0008           ; #include "main.h"
 0008           ; #include "lcd.h"
 0008           ; #include "time1307.h"
 0008           ; #include "timertask.h"
 0008           ; #include "key.h"
 0008           ; #include "delay.h"
 0008           ; #include "temp.h"
 0008           ; #include "eeprom.h"
 0008           ; //下面这个头文件里包含WDR();喂狗的方法
 0008           ; //#include <AVRdef.h>
 0008           ; 
 0008           ; //************************
 0008           ; // 所有界面信息在这里,用到全局变量， 
 0008           ; // unsigned int pageNum;//当前页面，如需跳转改变这个值就行
 0008           ; // unsigned int pageParam[5];//传递参数。界面间参数暂存
 0008           ; // unsigned int prePageNum;
 0008           ; //************************
 0008           ; 
 0008           ; //用于显第一行日期信息，其中Page1、Page3 、Page8使用，
 0008           ; //由定时器触发该函数，进入这三个界面是启动定时器，退出时关闭
 0008           ; void pageTime(uint y){
 0008                   .dbline 24
 0008           ;                 //关定时器
 0008           ;    lcd_write_str(0,y,"时间:");
 0008 80E0              ldi R24,<L2
 000A 90E0              ldi R25,>L2
 000C 9983              std y+1,R25
 000E 8883              std y+0,R24
 0010 2A2D              mov R18,R10
 0012 0027              clr R16
 0014 0E940000          xcall _lcd_write_str
 0018                   .dbline 25
 0018           ;    showTime_page(y);
 0018 8501              movw R16,R10
 001A 0E940000          xcall _showTime_page
 001E                   .dbline -2
 001E           L1:
 001E                   .dbline 0 ; func end
 001E 2296              adiw R28,2
 0020 B990              ld R11,y+
 0022 A990              ld R10,y+
 0024 0895              ret
 0026                   .dbsym r y 10 i
 0026                   .dbend
 0026                   .dbfunc e pageTime2 _pageTime2 fV
 0026           ;              y -> R10,R11
                        .even
 0026           _pageTime2::
 0026 AA92              st -y,R10
 0028 BA92              st -y,R11
 002A 5801              movw R10,R16
 002C                   .dbline -1
 002C                   .dbline 28
 002C           ;                  //开定时器 
 002C           ; }
 002C           ; void pageTime2(uint y){
 002C                   .dbline 31
 002C           ;                 //关定时器
 002C           ;    //lcd_write_str(0,y,"时间:");
 002C           ;    showTime_page(y);
 002C 8501              movw R16,R10
 002E 0E940000          xcall _showTime_page
 0032                   .dbline -2
 0032           L3:
 0032                   .dbline 0 ; func end
 0032 B990              ld R11,y+
 0034 A990              ld R10,y+
 0036 0895              ret
 0038                   .dbsym r y 10 i
 0038                   .dbend
 0038                   .dbfunc e page1 _page1 fV
 0038           ;            cur -> R20,R21
 0038           ;           keyV -> R10
 0038           ;              y -> R22,R23
 0038           ;              i -> R10,R11
                        .even
 0038           _page1::
 0038 0E940000          xcall push_xgsetF03C
 003C 2297              sbiw R28,2
 003E                   .dbline -1
 003E                   .dbline 35
 003E           ;                  //开定时器 
 003E           ; }
 003E           ; //page1,首页的界面
 003E           ; void page1(void){
 003E                   .dbline 36
 003E           ;    uint cur=0;
 003E                   .dbline 40
 003E           ;    uchar keyV;
 003E           ;    uint i;//用于循环
 003E           ;    uint y;//确定是那个半屏幕
 003E           ;    prePageNum=1;//首页不会再有上一界面，这里设置。虽然违反规则
 003E 81E0              ldi R24,1
 0040 90E0              ldi R25,0
 0042 90930100          sts _prePageNum+1,R25
 0046 80930000          sts _prePageNum,R24
 004A                   .dbline 42
 004A           ;    //初始化起始选择
 004A           ;     lcd_write_str(1,1," T1:");
 004A 80E0              ldi R24,<L5
 004C 90E0              ldi R25,>L5
 004E 9983              std y+1,R25
 0050 8883              std y+0,R24
 0052 21E0              ldi R18,1
 0054 01E0              ldi R16,1
 0056 0E940000          xcall _lcd_write_str
 005A                   .dbline 43
 005A           ;     lcd_write_str(6,1," T2:");
 005A 80E0              ldi R24,<L6
 005C 90E0              ldi R25,>L6
 005E 9983              std y+1,R25
 0060 8883              std y+0,R24
 0062 21E0              ldi R18,1
 0064 06E0              ldi R16,6
 0066 0E940000          xcall _lcd_write_str
 006A                   .dbline 44
 006A           ;     lcd_write_str(1,2," T3:");
 006A 80E0              ldi R24,<L7
 006C 90E0              ldi R25,>L7
 006E 9983              std y+1,R25
 0070 8883              std y+0,R24
 0072 22E0              ldi R18,2
 0074 01E0              ldi R16,1
 0076 0E940000          xcall _lcd_write_str
 007A                   .dbline 45
 007A           ;     lcd_write_str(6,2," T4:");
 007A 80E0              ldi R24,<L8
 007C 90E0              ldi R25,>L8
 007E 9983              std y+1,R25
 0080 8883              std y+0,R24
 0082 22E0              ldi R18,2
 0084 06E0              ldi R16,6
 0086 0E940000          xcall _lcd_write_str
 008A                   .dbline 48
 008A           ; 
 008A           ;       
 008A           ;       lcd_write_str(1,3,"开始    ");
 008A 80E0              ldi R24,<L9
 008C 90E0              ldi R25,>L9
 008E 9983              std y+1,R25
 0090 8883              std y+0,R24
 0092 23E0              ldi R18,3
 0094 01E0              ldi R16,1
 0096 0E940000          xcall _lcd_write_str
 009A                   .dbline 49
 009A           ;     lcd_write_str_con(3,"停止    ");
 009A 20E0              ldi R18,<L10
 009C 30E0              ldi R19,>L10
 009E 03E0              ldi R16,3
 00A0 0E940000          xcall _lcd_write_str_con
 00A4                   .dbline 50
 00A4           ;       lcd_write_str_con(3,"设置");
 00A4 20E0              ldi R18,<L11
 00A6 30E0              ldi R19,>L11
 00A8 03E0              ldi R16,3
 00AA 0E940000          xcall _lcd_write_str_con
 00AE                   .dbline 51
 00AE           ;       lcd_write_str(1,3,"开始    ");
 00AE 80E0              ldi R24,<L9
 00B0 90E0              ldi R25,>L9
 00B2 9983              std y+1,R25
 00B4 8883              std y+0,R24
 00B6 23E0              ldi R18,3
 00B8 01E0              ldi R16,1
 00BA 0E940000          xcall _lcd_write_str
 00BE                   .dbline 52
 00BE           ;     lcd_write_str_con(3,"停止    ");
 00BE 20E0              ldi R18,<L10
 00C0 30E0              ldi R19,>L10
 00C2 03E0              ldi R16,3
 00C4 0E940000          xcall _lcd_write_str_con
 00C8                   .dbline 53
 00C8           ;       lcd_write_str_con(3,"设置"); 
 00C8 20E0              ldi R18,<L11
 00CA 30E0              ldi R19,>L11
 00CC 03E0              ldi R16,3
 00CE 0E940000          xcall _lcd_write_str_con
 00D2                   .dbline 54
 00D2           ;       cur=0;
 00D2 4427              clr R20
 00D4 5527              clr R21
 00D6                   .dbline 55
 00D6           ;       Set_White(2,1,3);
 00D6 83E0              ldi R24,3
 00D8 8883              std y+0,R24
 00DA 21E0              ldi R18,1
 00DC 02E0              ldi R16,2
 00DE 0E940000          xcall _Set_White
 00E2 7EC3              xjmp L13
 00E4           L12:
 00E4                   .dbline 56
 00E4           ;       while(1){
 00E4                   .dbline 57
 00E4           ;        pageTime(0);
 00E4 0027              clr R16
 00E6 1127              clr R17
 00E8 8BDF              xcall _pageTime
 00EA                   .dbline 58
 00EA           ;       for(i=0;i<4;i++){
 00EA AA24              clr R10
 00EC BB24              clr R11
 00EE DFC0              xjmp L18
 00F0           L15:
 00F0                   .dbline 58
 00F0                   .dbline 59
 00F0           ;         if(i==0){
 00F0 AA20              tst R10
 00F2 49F4              brne L19
 00F4 BB20              tst R11
 00F6 39F4              brne L19
 00F8           X0:
 00F8                   .dbline 59
 00F8                   .dbline 60
 00F8           ;           y=1;
 00F8 61E0              ldi R22,1
 00FA 70E0              ldi R23,0
 00FC                   .dbline 61
 00FC           ;           lcd_write_pos(3,1);
 00FC 21E0              ldi R18,1
 00FE 03E0              ldi R16,3
 0100 0E940000          xcall _lcd_write_pos
 0104                   .dbline 62
 0104           ;         }else if(i==1){
 0104 23C0              xjmp L20
 0106           L19:
 0106                   .dbline 62
 0106 C501              movw R24,R10
 0108 8130              cpi R24,1
 010A E0E0              ldi R30,0
 010C 9E07              cpc R25,R30
 010E 39F4              brne L21
 0110           X1:
 0110                   .dbline 62
 0110                   .dbline 63
 0110           ;           y=1;
 0110 61E0              ldi R22,1
 0112 70E0              ldi R23,0
 0114                   .dbline 64
 0114           ;           lcd_write_pos(8,1);
 0114 21E0              ldi R18,1
 0116 08E0              ldi R16,8
 0118 0E940000          xcall _lcd_write_pos
 011C                   .dbline 65
 011C           ;         }else if(i==2){
 011C 17C0              xjmp L22
 011E           L21:
 011E                   .dbline 65
 011E C501              movw R24,R10
 0120 8230              cpi R24,2
 0122 E0E0              ldi R30,0
 0124 9E07              cpc R25,R30
 0126 39F4              brne L23
 0128           X2:
 0128                   .dbline 65
 0128                   .dbline 66
 0128           ;           y=2;
 0128 62E0              ldi R22,2
 012A 70E0              ldi R23,0
 012C                   .dbline 67
 012C           ;           lcd_write_pos(3,2);
 012C 22E0              ldi R18,2
 012E 03E0              ldi R16,3
 0130 0E940000          xcall _lcd_write_pos
 0134                   .dbline 68
 0134           ;         }else if(i==3){
 0134 0BC0              xjmp L24
 0136           L23:
 0136                   .dbline 68
 0136 C501              movw R24,R10
 0138 8330              cpi R24,3
 013A E0E0              ldi R30,0
 013C 9E07              cpc R25,R30
 013E 31F4              brne L25
 0140           X3:
 0140                   .dbline 68
 0140                   .dbline 69
 0140           ;           y=2;
 0140 62E0              ldi R22,2
 0142 70E0              ldi R23,0
 0144                   .dbline 70
 0144           ;           lcd_write_pos(8,2);
 0144 22E0              ldi R18,2
 0146 08E0              ldi R16,8
 0148 0E940000          xcall _lcd_write_pos
 014C                   .dbline 71
 014C           ;         }
 014C           L25:
 014C           L24:
 014C           L22:
 014C           L20:
 014C                   .dbline 72
 014C           ;          switch(temps[i].flag){
 014C 0AE3              ldi R16,314
 014E 11E0              ldi R17,1
 0150 9501              movw R18,R10
 0152 0E940000          xcall empy16s
 0156 80E0              ldi R24,<_temps
 0158 90E0              ldi R25,>_temps
 015A F801              movw R30,R16
 015C E80F              add R30,R24
 015E F91F              adc R31,R25
 0160 C080              ldd R12,z+0
 0162 D180              ldd R13,z+1
 0164 CC20              tst R12
 0166 11F4              brne X4
 0168 DD20              tst R13
 016A F9F0              breq L30
 016C           X4:
 016C C601              movw R24,R12
 016E 8130              cpi R24,1
 0170 E0E0              ldi R30,0
 0172 9E07              cpc R25,R30
 0174 01F1              breq L32
 0176           X5:
 0176 8230              cpi R24,2
 0178 E0E0              ldi R30,0
 017A 9E07              cpc R25,R30
 017C 09F4              brne X57
 017E 77C0              xjmp L36
 0180           X57:
 0180           X6:
 0180 8330              cpi R24,3
 0182 E0E0              ldi R30,0
 0184 9E07              cpc R25,R30
 0186 09F4              brne X58
 0188 78C0              xjmp L38
 018A           X58:
 018A           X7:
 018A 8430              cpi R24,4
 018C E0E0              ldi R30,0
 018E 9E07              cpc R25,R30
 0190 09F4              brne X59
 0192 79C0              xjmp L40
 0194           X59:
 0194           X8:
 0194 8530              cpi R24,5
 0196 E0E0              ldi R30,0
 0198 9E07              cpc R25,R30
 019A 09F4              brne X60
 019C 7AC0              xjmp L42
 019E           X60:
 019E           X9:
 019E 8630              cpi R24,6
 01A0 E0E0              ldi R30,0
 01A2 9E07              cpc R25,R30
 01A4 09F4              brne X61
 01A6 7BC0              xjmp L44
 01A8           X61:
 01A8           X10:
 01A8 7FC0              xjmp L28
 01AA           L30:
 01AA                   .dbline 74
 01AA           ;            case 0:
 01AA           ;                  lcd_write_str_con(y,"停止");
 01AA 20E0              ldi R18,<L31
 01AC 30E0              ldi R19,>L31
 01AE 062F              mov R16,R22
 01B0 0E940000          xcall _lcd_write_str_con
 01B4                   .dbline 75
 01B4           ;                  break;
 01B4 79C0              xjmp L28
 01B6           L32:
 01B6                   .dbline 77
 01B6           ;                case 1:
 01B6           ;                  lcd_write_char_con(y,0x30 | (int)temps[i].actualtemp/100);
 01B6 0AE3              ldi R16,314
 01B8 11E0              ldi R17,1
 01BA 9501              movw R18,R10
 01BC 0E940000          xcall empy16s
 01C0 80E0              ldi R24,<_temps+282
 01C2 90E0              ldi R25,>_temps+282
 01C4 F801              movw R30,R16
 01C6 E80F              add R30,R24
 01C8 F91F              adc R31,R25
 01CA 0081              ldd R16,z+0
 01CC 1181              ldd R17,z+1
 01CE 2281              ldd R18,z+2
 01D0 3381              ldd R19,z+3
 01D2 0E940000          xcall fpint
 01D6 24E6              ldi R18,100
 01D8 30E0              ldi R19,0
 01DA 0E940000          xcall div16s
 01DE 9801              movw R18,R16
 01E0 2063              ori R18,48
 01E2 062F              mov R16,R22
 01E4 0E940000          xcall _lcd_write_char_con
 01E8                   .dbline 78
 01E8           ;                  lcd_write_char_con(y,0x30 | ((int)temps[i].actualtemp/10)%10);
 01E8 0AE3              ldi R16,314
 01EA 11E0              ldi R17,1
 01EC 9501              movw R18,R10
 01EE 0E940000          xcall empy16s
 01F2 80E0              ldi R24,<_temps+282
 01F4 90E0              ldi R25,>_temps+282
 01F6 F801              movw R30,R16
 01F8 E80F              add R30,R24
 01FA F91F              adc R31,R25
 01FC 0081              ldd R16,z+0
 01FE 1181              ldd R17,z+1
 0200 2281              ldd R18,z+2
 0202 3381              ldd R19,z+3
 0204 0E940000          xcall fpint
 0208 2AE0              ldi R18,10
 020A 30E0              ldi R19,0
 020C 0E940000          xcall div16s
 0210 2AE0              ldi R18,10
 0212 30E0              ldi R19,0
 0214 0E940000          xcall mod16s
 0218 9801              movw R18,R16
 021A 2063              ori R18,48
 021C 062F              mov R16,R22
 021E 0E940000          xcall _lcd_write_char_con
 0222                   .dbline 79
 0222           ;                  lcd_write_char_con(y,0x30 | (int)temps[i].actualtemp%10);
 0222 0AE3              ldi R16,314
 0224 11E0              ldi R17,1
 0226 9501              movw R18,R10
 0228 0E940000          xcall empy16s
 022C 80E0              ldi R24,<_temps+282
 022E 90E0              ldi R25,>_temps+282
 0230 F801              movw R30,R16
 0232 E80F              add R30,R24
 0234 F91F              adc R31,R25
 0236 0081              ldd R16,z+0
 0238 1181              ldd R17,z+1
 023A 2281              ldd R18,z+2
 023C 3381              ldd R19,z+3
 023E 0E940000          xcall fpint
 0242 2AE0              ldi R18,10
 0244 30E0              ldi R19,0
 0246 0E940000          xcall mod16s
 024A 9801              movw R18,R16
 024C 2063              ori R18,48
 024E 062F              mov R16,R22
 0250 0E940000          xcall _lcd_write_char_con
 0254                   .dbline 80
 0254           ;                  lcd_write_char_con(y,' ');
 0254 20E2              ldi R18,32
 0256 062F              mov R16,R22
 0258 0E940000          xcall _lcd_write_char_con
 025C                   .dbline 81
 025C           ;                  lcd_write_char_con(y,0xA1);
 025C 21EA              ldi R18,161
 025E 062F              mov R16,R22
 0260 0E940000          xcall _lcd_write_char_con
 0264                   .dbline 82
 0264           ;           lcd_write_char_con(y,0xE6);
 0264 26EE              ldi R18,230
 0266 062F              mov R16,R22
 0268 0E940000          xcall _lcd_write_char_con
 026C                   .dbline 83
 026C           ;                  break;
 026C 1DC0              xjmp L28
 026E           L36:
 026E                   .dbline 85
 026E           ;                case 2:
 026E           ;                  lcd_write_str_con(y,"故障");
 026E 20E0              ldi R18,<L37
 0270 30E0              ldi R19,>L37
 0272 062F              mov R16,R22
 0274 0E940000          xcall _lcd_write_str_con
 0278                   .dbline 86
 0278           ;                  break;
 0278 17C0              xjmp L28
 027A           L38:
 027A                   .dbline 88
 027A           ;                case 3:
 027A           ;                  lcd_write_str_con(y,"暂停");
 027A 20E0              ldi R18,<L39
 027C 30E0              ldi R19,>L39
 027E 062F              mov R16,R22
 0280 0E940000          xcall _lcd_write_str_con
 0284                   .dbline 89
 0284           ;                  break;
 0284 11C0              xjmp L28
 0286           L40:
 0286                   .dbline 91
 0286           ;                case 4:
 0286           ;                  lcd_write_str_con(y,"结束");
 0286 20E0              ldi R18,<L41
 0288 30E0              ldi R19,>L41
 028A 062F              mov R16,R22
 028C 0E940000          xcall _lcd_write_str_con
 0290                   .dbline 92
 0290           ;                  break;
 0290 0BC0              xjmp L28
 0292           L42:
 0292                   .dbline 94
 0292           ;                case 5:
 0292           ;                  lcd_write_str_con(y,"等待");
 0292 20E0              ldi R18,<L43
 0294 30E0              ldi R19,>L43
 0296 062F              mov R16,R22
 0298 0E940000          xcall _lcd_write_str_con
 029C                   .dbline 95
 029C           ;                  break;
 029C 05C0              xjmp L28
 029E           L44:
 029E                   .dbline 97
 029E           ;                case 6:
 029E           ;                  lcd_write_str_con(y,"暂停");
 029E 20E0              ldi R18,<L39
 02A0 30E0              ldi R19,>L39
 02A2 062F              mov R16,R22
 02A4 0E940000          xcall _lcd_write_str_con
 02A8                   .dbline 98
 02A8           ;                  break;
 02A8                   .dbline 99
 02A8           ;                  break;
 02A8                   .dbline 101
 02A8           ;                default:
 02A8           ;                  break;
 02A8           L28:
 02A8                   .dbline 103
 02A8           ;          }
 02A8           ;       }
 02A8           L16:
 02A8                   .dbline 58
 02A8 C501              movw R24,R10
 02AA 0196              adiw R24,1
 02AC 5C01              movw R10,R24
 02AE           L18:
 02AE                   .dbline 58
 02AE C501              movw R24,R10
 02B0 8430              cpi R24,4
 02B2 E0E0              ldi R30,0
 02B4 9E07              cpc R25,R30
 02B6 08F4              brsh X62
 02B8 1BCF              xjmp L15
 02BA           X62:
 02BA           X11:
 02BA                   .dbline 104
 02BA           ;        keyV=KeyScan_once();
 02BA 0E940000          xcall _KeyScan_once
 02BE A02E              mov R10,R16
 02C0                   .dbline 105
 02C0           ;        if(keyV=='a'){
 02C0 0136              cpi R16,97
 02C2 09F0              breq X63
 02C4 48C0              xjmp L45
 02C6           X63:
 02C6           X12:
 02C6                   .dbline 105
 02C6                   .dbline 107
 02C6           ;             //pageNum=8;//跳转到设置时间的界面
 02C6           ;                  pageNum=8;
 02C6 88E0              ldi R24,8
 02C8 90E0              ldi R25,0
 02CA 90930100          sts _pageNum+1,R25
 02CE 80930000          sts _pageNum,R24
 02D2                   .dbline 108
 02D2           ;          switch(cur){
 02D2 4030              cpi R20,0
 02D4 4507              cpc R20,R21
 02D6 A9F0              breq L49
 02D8           X13:
 02D8 4130              cpi R20,1
 02DA E0E0              ldi R30,0
 02DC 5E07              cpc R21,R30
 02DE C1F0              breq L50
 02E0           X14:
 02E0 4230              cpi R20,2
 02E2 E0E0              ldi R30,0
 02E4 5E07              cpc R21,R30
 02E6 D9F0              breq L51
 02E8           X15:
 02E8 4330              cpi R20,3
 02EA E0E0              ldi R30,0
 02EC 5E07              cpc R21,R30
 02EE F1F0              breq L52
 02F0           X16:
 02F0 4530              cpi R20,5
 02F2 E0E0              ldi R30,0
 02F4 5E07              cpc R21,R30
 02F6 09F1              breq L53
 02F8           X17:
 02F8 4630              cpi R20,6
 02FA E0E0              ldi R30,0
 02FC 5E07              cpc R21,R30
 02FE 21F1              breq L54
 0300           X18:
 0300 70C2              xjmp L4
 0302           L49:
 0302                   .dbline 110
 0302           ;                case 0: 
 0302           ;                   Set_White_off(2,1,3);
 0302 83E0              ldi R24,3
 0304 8883              std y+0,R24
 0306 21E0              ldi R18,1
 0308 02E0              ldi R16,2
 030A 0E940000          xcall _Set_White_off
 030E                   .dbline 111
 030E           ;                   break;
 030E 69C2              xjmp L4
 0310           L50:
 0310                   .dbline 113
 0310           ;                case 1:
 0310           ;                  Set_White_off(7,1,8);
 0310 88E0              ldi R24,8
 0312 8883              std y+0,R24
 0314 21E0              ldi R18,1
 0316 07E0              ldi R16,7
 0318 0E940000          xcall _Set_White_off
 031C                   .dbline 114
 031C           ;                  break;
 031C 62C2              xjmp L4
 031E           L51:
 031E                   .dbline 116
 031E           ;                case 2:
 031E           ;                 Set_White_off(2,2,3);
 031E 83E0              ldi R24,3
 0320 8883              std y+0,R24
 0322 22E0              ldi R18,2
 0324 02E0              ldi R16,2
 0326 0E940000          xcall _Set_White_off
 032A                   .dbline 117
 032A           ;                 break;
 032A 5BC2              xjmp L4
 032C           L52:
 032C                   .dbline 119
 032C           ;                case 3:
 032C           ;                  Set_White_off(7,2,8);
 032C 88E0              ldi R24,8
 032E 8883              std y+0,R24
 0330 22E0              ldi R18,2
 0332 07E0              ldi R16,7
 0334 0E940000          xcall _Set_White_off
 0338                   .dbline 120
 0338           ;                   break;
 0338 54C2              xjmp L4
 033A           L53:
 033A                   .dbline 122
 033A           ;               case 5:
 033A           ;                   Set_White_off(6,3,7);
 033A 87E0              ldi R24,7
 033C 8883              std y+0,R24
 033E 23E0              ldi R18,3
 0340 06E0              ldi R16,6
 0342 0E940000          xcall _Set_White_off
 0346                   .dbline 123
 0346           ;                   break;
 0346 4DC2              xjmp L4
 0348           L54:
 0348                   .dbline 125
 0348           ;                case 6:
 0348           ;                  Set_White_off(10,3,11);
 0348 8BE0              ldi R24,11
 034A 8883              std y+0,R24
 034C 23E0              ldi R18,3
 034E 0AE0              ldi R16,10
 0350 0E940000          xcall _Set_White_off
 0354                   .dbline 126
 0354           ;                   break;
 0354                   .dbline 128
 0354           ;                 default:
 0354           ;                  break;
 0354                   .dbline 130
 0354           ;                }
 0354           ;          return ;
 0354 46C2              xjmp L4
 0356           L45:
 0356                   .dbline 131
 0356           ;       }else if(keyV=='d'){
 0356 8A2D              mov R24,R10
 0358 8436              cpi R24,100
 035A 09F0              breq X64
 035C 4CC0              xjmp L55
 035E           X64:
 035E           X19:
 035E                   .dbline 131
 035E                   .dbline 132
 035E           ;            switch(cur){
 035E 4030              cpi R20,0
 0360 4507              cpc R20,R21
 0362 69F0              breq L59
 0364           X20:
 0364 4130              cpi R20,1
 0366 E0E0              ldi R30,0
 0368 5E07              cpc R21,R30
 036A C1F0              breq L60
 036C           X21:
 036C 4230              cpi R20,2
 036E E0E0              ldi R30,0
 0370 5E07              cpc R21,R30
 0372 19F1              breq L61
 0374           X22:
 0374 4330              cpi R20,3
 0376 E0E0              ldi R30,0
 0378 5E07              cpc R21,R30
 037A 71F1              breq L62
 037C           X23:
 037C 31C2              xjmp L56
 037E           L59:
 037E                   .dbline 134
 037E           ;                 case 0:
 037E           ;                  Set_White_off(2,1,3);
 037E 83E0              ldi R24,3
 0380 8883              std y+0,R24
 0382 21E0              ldi R18,1
 0384 02E0              ldi R16,2
 0386 0E940000          xcall _Set_White_off
 038A                   .dbline 135
 038A           ;                  Set_White(2,2,3);
 038A 83E0              ldi R24,3
 038C 8883              std y+0,R24
 038E 22E0              ldi R18,2
 0390 02E0              ldi R16,2
 0392 0E940000          xcall _Set_White
 0396                   .dbline 136
 0396           ;                  cur=2;
 0396 42E0              ldi R20,2
 0398 50E0              ldi R21,0
 039A                   .dbline 137
 039A           ;                  break;
 039A 22C2              xjmp L56
 039C           L60:
 039C                   .dbline 139
 039C           ;                 case 1:
 039C           ;                  Set_White_off(7,1,8);
 039C 88E0              ldi R24,8
 039E 8883              std y+0,R24
 03A0 21E0              ldi R18,1
 03A2 07E0              ldi R16,7
 03A4 0E940000          xcall _Set_White_off
 03A8                   .dbline 140
 03A8           ;                  Set_White(7,2,8);
 03A8 88E0              ldi R24,8
 03AA 8883              std y+0,R24
 03AC 22E0              ldi R18,2
 03AE 07E0              ldi R16,7
 03B0 0E940000          xcall _Set_White
 03B4                   .dbline 141
 03B4           ;                  cur=3;
 03B4 43E0              ldi R20,3
 03B6 50E0              ldi R21,0
 03B8                   .dbline 142
 03B8           ;                  break;
 03B8 13C2              xjmp L56
 03BA           L61:
 03BA                   .dbline 144
 03BA           ;                 case 2:
 03BA           ;                  Set_White_off(2,2,3);
 03BA 83E0              ldi R24,3
 03BC 8883              std y+0,R24
 03BE 22E0              ldi R18,2
 03C0 02E0              ldi R16,2
 03C2 0E940000          xcall _Set_White_off
 03C6                   .dbline 145
 03C6           ;                  Set_White(2,3,3);
 03C6 83E0              ldi R24,3
 03C8 8883              std y+0,R24
 03CA 23E0              ldi R18,3
 03CC 02E0              ldi R16,2
 03CE 0E940000          xcall _Set_White
 03D2                   .dbline 146
 03D2           ;                  cur=4;
 03D2 44E0              ldi R20,4
 03D4 50E0              ldi R21,0
 03D6                   .dbline 147
 03D6           ;                  break;
 03D6 04C2              xjmp L56
 03D8           L62:
 03D8                   .dbline 149
 03D8           ;                 case 3:
 03D8           ;                  Set_White_off(7,2,8);
 03D8 88E0              ldi R24,8
 03DA 8883              std y+0,R24
 03DC 22E0              ldi R18,2
 03DE 07E0              ldi R16,7
 03E0 0E940000          xcall _Set_White_off
 03E4                   .dbline 150
 03E4           ;                  Set_White(6,3,7);
 03E4 87E0              ldi R24,7
 03E6 8883              std y+0,R24
 03E8 23E0              ldi R18,3
 03EA 06E0              ldi R16,6
 03EC 0E940000          xcall _Set_White
 03F0                   .dbline 151
 03F0           ;                  cur=5;
 03F0 45E0              ldi R20,5
 03F2 50E0              ldi R21,0
 03F4                   .dbline 152
 03F4           ;                  break;
 03F4                   .dbline 154
 03F4           ;                 default:
 03F4           ;                  break;
 03F4                   .dbline 156
 03F4           ;                }
 03F4           ;       }else if(keyV=='u'){switch(cur){
 03F4 F5C1              xjmp L56
 03F6           L55:
 03F6                   .dbline 156
 03F6 8A2D              mov R24,R10
 03F8 8537              cpi R24,117
 03FA 09F0              breq X65
 03FC 61C0              xjmp L63
 03FE           X65:
 03FE           X24:
 03FE                   .dbline 156
 03FE                   .dbline 156
 03FE 4230              cpi R20,2
 0400 E0E0              ldi R30,0
 0402 5E07              cpc R21,R30
 0404 91F0              breq L67
 0406           X25:
 0406 4330              cpi R20,3
 0408 E0E0              ldi R30,0
 040A 5E07              cpc R21,R30
 040C E9F0              breq L68
 040E           X26:
 040E 4430              cpi R20,4
 0410 E0E0              ldi R30,0
 0412 5E07              cpc R21,R30
 0414 41F1              breq L69
 0416           X27:
 0416 4530              cpi R20,5
 0418 E0E0              ldi R30,0
 041A 5E07              cpc R21,R30
 041C 99F1              breq L70
 041E           X28:
 041E 4630              cpi R20,6
 0420 E0E0              ldi R30,0
 0422 5E07              cpc R21,R30
 0424 09F4              brne X66
 0426 3DC0              xjmp L71
 0428           X66:
 0428           X29:
 0428 DBC1              xjmp L64
 042A           L67:
 042A                   .dbline 158
 042A           ;                 case 2:
 042A           ;                  Set_White_off(2,2,3);
 042A 83E0              ldi R24,3
 042C 8883              std y+0,R24
 042E 22E0              ldi R18,2
 0430 02E0              ldi R16,2
 0432 0E940000          xcall _Set_White_off
 0436                   .dbline 159
 0436           ;                  Set_White(2,1,3);
 0436 83E0              ldi R24,3
 0438 8883              std y+0,R24
 043A 21E0              ldi R18,1
 043C 02E0              ldi R16,2
 043E 0E940000          xcall _Set_White
 0442                   .dbline 160
 0442           ;                  cur=0;
 0442 4427              clr R20
 0444 5527              clr R21
 0446                   .dbline 161
 0446           ;                  break;
 0446 CCC1              xjmp L64
 0448           L68:
 0448                   .dbline 163
 0448           ;                 case 3:
 0448           ;                  Set_White_off(7,2,8);
 0448 88E0              ldi R24,8
 044A 8883              std y+0,R24
 044C 22E0              ldi R18,2
 044E 07E0              ldi R16,7
 0450 0E940000          xcall _Set_White_off
 0454                   .dbline 164
 0454           ;                  Set_White(7,1,8);
 0454 88E0              ldi R24,8
 0456 8883              std y+0,R24
 0458 21E0              ldi R18,1
 045A 07E0              ldi R16,7
 045C 0E940000          xcall _Set_White
 0460                   .dbline 165
 0460           ;                  cur=1;
 0460 41E0              ldi R20,1
 0462 50E0              ldi R21,0
 0464                   .dbline 166
 0464           ;                  break;
 0464 BDC1              xjmp L64
 0466           L69:
 0466                   .dbline 168
 0466           ;                 case 4:
 0466           ;                  Set_White_off(2,3,5);
 0466 85E0              ldi R24,5
 0468 8883              std y+0,R24
 046A 23E0              ldi R18,3
 046C 02E0              ldi R16,2
 046E 0E940000          xcall _Set_White_off
 0472                   .dbline 169
 0472           ;                  Set_White(2,2,3);
 0472 83E0              ldi R24,3
 0474 8883              std y+0,R24
 0476 22E0              ldi R18,2
 0478 02E0              ldi R16,2
 047A 0E940000          xcall _Set_White
 047E                   .dbline 170
 047E           ;                  cur=2;
 047E 42E0              ldi R20,2
 0480 50E0              ldi R21,0
 0482                   .dbline 171
 0482           ;                  break;
 0482 AEC1              xjmp L64
 0484           L70:
 0484                   .dbline 173
 0484           ;                 case 5:
 0484           ;                  Set_White_off(6,3,7);
 0484 87E0              ldi R24,7
 0486 8883              std y+0,R24
 0488 23E0              ldi R18,3
 048A 06E0              ldi R16,6
 048C 0E940000          xcall _Set_White_off
 0490                   .dbline 174
 0490           ;                  Set_White(7,2,8);
 0490 88E0              ldi R24,8
 0492 8883              std y+0,R24
 0494 22E0              ldi R18,2
 0496 07E0              ldi R16,7
 0498 0E940000          xcall _Set_White
 049C                   .dbline 175
 049C           ;                  cur=3;
 049C 43E0              ldi R20,3
 049E 50E0              ldi R21,0
 04A0                   .dbline 176
 04A0           ;                  break;
 04A0 9FC1              xjmp L64
 04A2           L71:
 04A2                   .dbline 178
 04A2           ;                 case 6:
 04A2           ;                  Set_White_off(10,3,11);
 04A2 8BE0              ldi R24,11
 04A4 8883              std y+0,R24
 04A6 23E0              ldi R18,3
 04A8 0AE0              ldi R16,10
 04AA 0E940000          xcall _Set_White_off
 04AE                   .dbline 179
 04AE           ;                  Set_White(7,2,8);
 04AE 88E0              ldi R24,8
 04B0 8883              std y+0,R24
 04B2 22E0              ldi R18,2
 04B4 07E0              ldi R16,7
 04B6 0E940000          xcall _Set_White
 04BA                   .dbline 180
 04BA           ;                  cur=3;
 04BA 43E0              ldi R20,3
 04BC 50E0              ldi R21,0
 04BE                   .dbline 181
 04BE           ;                  break;
 04BE                   .dbline 183
 04BE           ;                 default:
 04BE           ;                  break;
 04BE                   .dbline 185
 04BE           ;                }
 04BE           ;       }else if(keyV=='l'){switch(cur){
 04BE 90C1              xjmp L64
 04C0           L63:
 04C0                   .dbline 185
 04C0 8A2D              mov R24,R10
 04C2 8C36              cpi R24,108
 04C4 09F0              breq X67
 04C6 4DC0              xjmp L72
 04C8           X67:
 04C8           X30:
 04C8                   .dbline 185
 04C8                   .dbline 185
 04C8 4130              cpi R20,1
 04CA E0E0              ldi R30,0
 04CC 5E07              cpc R21,R30
 04CE 69F0              breq L76
 04D0           X31:
 04D0 4330              cpi R20,3
 04D2 E0E0              ldi R30,0
 04D4 5E07              cpc R21,R30
 04D6 C1F0              breq L77
 04D8           X32:
 04D8 4530              cpi R20,5
 04DA E0E0              ldi R30,0
 04DC 5E07              cpc R21,R30
 04DE 19F1              breq L78
 04E0           X33:
 04E0 4630              cpi R20,6
 04E2 E0E0              ldi R30,0
 04E4 5E07              cpc R21,R30
 04E6 71F1              breq L79
 04E8           X34:
 04E8 7BC1              xjmp L73
 04EA           L76:
 04EA                   .dbline 187
 04EA           ;                 case 1:
 04EA           ;                  Set_White_off(7,1,8);
 04EA 88E0              ldi R24,8
 04EC 8883              std y+0,R24
 04EE 21E0              ldi R18,1
 04F0 07E0              ldi R16,7
 04F2 0E940000          xcall _Set_White_off
 04F6                   .dbline 188
 04F6           ;                  Set_White(2,1,3);
 04F6 83E0              ldi R24,3
 04F8 8883              std y+0,R24
 04FA 21E0              ldi R18,1
 04FC 02E0              ldi R16,2
 04FE 0E940000          xcall _Set_White
 0502                   .dbline 189
 0502           ;                  cur=0;
 0502 4427              clr R20
 0504 5527              clr R21
 0506                   .dbline 190
 0506           ;                  break;
 0506 6CC1              xjmp L73
 0508           L77:
 0508                   .dbline 192
 0508           ;                 case 3:
 0508           ;                  Set_White_off(7,2,8);
 0508 88E0              ldi R24,8
 050A 8883              std y+0,R24
 050C 22E0              ldi R18,2
 050E 07E0              ldi R16,7
 0510 0E940000          xcall _Set_White_off
 0514                   .dbline 193
 0514           ;                  Set_White(2,2,3);
 0514 83E0              ldi R24,3
 0516 8883              std y+0,R24
 0518 22E0              ldi R18,2
 051A 02E0              ldi R16,2
 051C 0E940000          xcall _Set_White
 0520                   .dbline 194
 0520           ;                  cur=2;
 0520 42E0              ldi R20,2
 0522 50E0              ldi R21,0
 0524                   .dbline 195
 0524           ;                  break;
 0524 5DC1              xjmp L73
 0526           L78:
 0526                   .dbline 197
 0526           ;                 case 5:
 0526           ;                  Set_White_off(6,3,7);
 0526 87E0              ldi R24,7
 0528 8883              std y+0,R24
 052A 23E0              ldi R18,3
 052C 06E0              ldi R16,6
 052E 0E940000          xcall _Set_White_off
 0532                   .dbline 198
 0532           ;                  Set_White(2,3,3);
 0532 83E0              ldi R24,3
 0534 8883              std y+0,R24
 0536 23E0              ldi R18,3
 0538 02E0              ldi R16,2
 053A 0E940000          xcall _Set_White
 053E                   .dbline 199
 053E           ;                  cur=4;
 053E 44E0              ldi R20,4
 0540 50E0              ldi R21,0
 0542                   .dbline 200
 0542           ;                  break;
 0542 4EC1              xjmp L73
 0544           L79:
 0544                   .dbline 202
 0544           ;                 case 6:
 0544           ;                  Set_White_off(10,3,11);
 0544 8BE0              ldi R24,11
 0546 8883              std y+0,R24
 0548 23E0              ldi R18,3
 054A 0AE0              ldi R16,10
 054C 0E940000          xcall _Set_White_off
 0550                   .dbline 203
 0550           ;                  Set_White(6,3,7);
 0550 87E0              ldi R24,7
 0552 8883              std y+0,R24
 0554 23E0              ldi R18,3
 0556 06E0              ldi R16,6
 0558 0E940000          xcall _Set_White
 055C                   .dbline 204
 055C           ;                  cur=5;
 055C 45E0              ldi R20,5
 055E 50E0              ldi R21,0
 0560                   .dbline 205
 0560           ;                  break;
 0560                   .dbline 207
 0560           ;                 default:
 0560           ;                  break;
 0560                   .dbline 209
 0560           ;                }
 0560           ;       }else if(keyV=='r'){
 0560 3FC1              xjmp L73
 0562           L72:
 0562                   .dbline 209
 0562 8A2D              mov R24,R10
 0564 8237              cpi R24,114
 0566 09F0              breq X68
 0568 4CC0              xjmp L80
 056A           X68:
 056A           X35:
 056A                   .dbline 209
 056A                   .dbline 210
 056A           ;       switch(cur){
 056A 4030              cpi R20,0
 056C 4507              cpc R20,R21
 056E 69F0              breq L84
 0570           X36:
 0570 4230              cpi R20,2
 0572 E0E0              ldi R30,0
 0574 5E07              cpc R21,R30
 0576 C1F0              breq L85
 0578           X37:
 0578 4430              cpi R20,4
 057A E0E0              ldi R30,0
 057C 5E07              cpc R21,R30
 057E 19F1              breq L86
 0580           X38:
 0580 4530              cpi R20,5
 0582 E0E0              ldi R30,0
 0584 5E07              cpc R21,R30
 0586 71F1              breq L87
 0588           X39:
 0588 2BC1              xjmp L81
 058A           L84:
 058A                   .dbline 212
 058A           ;                 case 0:
 058A           ;                  Set_White_off(2,1,3);
 058A 83E0              ldi R24,3
 058C 8883              std y+0,R24
 058E 21E0              ldi R18,1
 0590 02E0              ldi R16,2
 0592 0E940000          xcall _Set_White_off
 0596                   .dbline 213
 0596           ;                  Set_White(7,1,8);
 0596 88E0              ldi R24,8
 0598 8883              std y+0,R24
 059A 21E0              ldi R18,1
 059C 07E0              ldi R16,7
 059E 0E940000          xcall _Set_White
 05A2                   .dbline 214
 05A2           ;                  cur=1;
 05A2 41E0              ldi R20,1
 05A4 50E0              ldi R21,0
 05A6                   .dbline 215
 05A6           ;                  break;
 05A6 1CC1              xjmp L81
 05A8           L85:
 05A8                   .dbline 217
 05A8           ;                 case 2:
 05A8           ;                  Set_White_off(2,2,3);
 05A8 83E0              ldi R24,3
 05AA 8883              std y+0,R24
 05AC 22E0              ldi R18,2
 05AE 02E0              ldi R16,2
 05B0 0E940000          xcall _Set_White_off
 05B4                   .dbline 218
 05B4           ;                  Set_White(7,2,8);
 05B4 88E0              ldi R24,8
 05B6 8883              std y+0,R24
 05B8 22E0              ldi R18,2
 05BA 07E0              ldi R16,7
 05BC 0E940000          xcall _Set_White
 05C0                   .dbline 219
 05C0           ;                  cur=3;
 05C0 43E0              ldi R20,3
 05C2 50E0              ldi R21,0
 05C4                   .dbline 220
 05C4           ;                  break;
 05C4 0DC1              xjmp L81
 05C6           L86:
 05C6                   .dbline 222
 05C6           ;                 case 4:
 05C6           ;                  Set_White_off(2,3,3);
 05C6 83E0              ldi R24,3
 05C8 8883              std y+0,R24
 05CA 23E0              ldi R18,3
 05CC 02E0              ldi R16,2
 05CE 0E940000          xcall _Set_White_off
 05D2                   .dbline 223
 05D2           ;                  Set_White(6,3,7);
 05D2 87E0              ldi R24,7
 05D4 8883              std y+0,R24
 05D6 23E0              ldi R18,3
 05D8 06E0              ldi R16,6
 05DA 0E940000          xcall _Set_White
 05DE                   .dbline 224
 05DE           ;                  cur=5;
 05DE 45E0              ldi R20,5
 05E0 50E0              ldi R21,0
 05E2                   .dbline 225
 05E2           ;                  break;
 05E2 FEC0              xjmp L81
 05E4           L87:
 05E4                   .dbline 227
 05E4           ;                 case 5:
 05E4           ;                  Set_White_off(6,3,7);
 05E4 87E0              ldi R24,7
 05E6 8883              std y+0,R24
 05E8 23E0              ldi R18,3
 05EA 06E0              ldi R16,6
 05EC 0E940000          xcall _Set_White_off
 05F0                   .dbline 228
 05F0           ;                  Set_White(10,3,11);
 05F0 8BE0              ldi R24,11
 05F2 8883              std y+0,R24
 05F4 23E0              ldi R18,3
 05F6 0AE0              ldi R16,10
 05F8 0E940000          xcall _Set_White
 05FC                   .dbline 229
 05FC           ;                  cur=6;
 05FC 46E0              ldi R20,6
 05FE 50E0              ldi R21,0
 0600                   .dbline 230
 0600           ;                  break;
 0600                   .dbline 232
 0600           ;                 default:
 0600           ;                  break;
 0600                   .dbline 234
 0600           ;                }
 0600           ;       }else if(keyV=='s'){
 0600 EFC0              xjmp L81
 0602           L80:
 0602                   .dbline 234
 0602 8A2D              mov R24,R10
 0604 8337              cpi R24,115
 0606 09F0              breq X69
 0608 53C0              xjmp L88
 060A           X69:
 060A           X40:
 060A                   .dbline 234
 060A                   .dbline 235
 060A           ;          pageNum=5;
 060A 85E0              ldi R24,5
 060C 90E0              ldi R25,0
 060E 90930100          sts _pageNum+1,R25
 0612 80930000          sts _pageNum,R24
 0616                   .dbline 236
 0616           ;          switch(cur){
 0616 4030              cpi R20,0
 0618 4507              cpc R20,R21
 061A C9F0              breq L92
 061C           X41:
 061C 4130              cpi R20,1
 061E E0E0              ldi R30,0
 0620 5E07              cpc R21,R30
 0622 E1F0              breq L93
 0624           X42:
 0624 4230              cpi R20,2
 0626 E0E0              ldi R30,0
 0628 5E07              cpc R21,R30
 062A F9F0              breq L94
 062C           X43:
 062C 4330              cpi R20,3
 062E E0E0              ldi R30,0
 0630 5E07              cpc R21,R30
 0632 11F1              breq L95
 0634           X44:
 0634 4430              cpi R20,4
 0636 E0E0              ldi R30,0
 0638 5E07              cpc R21,R30
 063A 29F1              breq L96
 063C           X45:
 063C 4530              cpi R20,5
 063E E0E0              ldi R30,0
 0640 5E07              cpc R21,R30
 0642 41F1              breq L97
 0644           X46:
 0644 4630              cpi R20,6
 0646 E0E0              ldi R30,0
 0648 5E07              cpc R21,R30
 064A 59F1              breq L98
 064C           X47:
 064C CAC0              xjmp L4
 064E           L92:
 064E                   .dbline 238
 064E           ;                case 0: 
 064E           ;                   Set_White_off(2,1,3);
 064E 83E0              ldi R24,3
 0650 8883              std y+0,R24
 0652 21E0              ldi R18,1
 0654 02E0              ldi R16,2
 0656 0E940000          xcall _Set_White_off
 065A                   .dbline 239
 065A           ;                   break;
 065A C3C0              xjmp L4
 065C           L93:
 065C                   .dbline 241
 065C           ;                case 1:
 065C           ;                  Set_White_off(7,1,8);
 065C 88E0              ldi R24,8
 065E 8883              std y+0,R24
 0660 21E0              ldi R18,1
 0662 07E0              ldi R16,7
 0664 0E940000          xcall _Set_White_off
 0668                   .dbline 242
 0668           ;                  break;
 0668 BCC0              xjmp L4
 066A           L94:
 066A                   .dbline 244
 066A           ;                case 2:
 066A           ;                 Set_White_off(2,2,3);
 066A 83E0              ldi R24,3
 066C 8883              std y+0,R24
 066E 22E0              ldi R18,2
 0670 02E0              ldi R16,2
 0672 0E940000          xcall _Set_White_off
 0676                   .dbline 245
 0676           ;                 break;
 0676 B5C0              xjmp L4
 0678           L95:
 0678                   .dbline 247
 0678           ;                case 3:
 0678           ;                  Set_White_off(7,2,8);
 0678 88E0              ldi R24,8
 067A 8883              std y+0,R24
 067C 22E0              ldi R18,2
 067E 07E0              ldi R16,7
 0680 0E940000          xcall _Set_White_off
 0684                   .dbline 248
 0684           ;                   break;
 0684 AEC0              xjmp L4
 0686           L96:
 0686                   .dbline 250
 0686           ;                case 4:
 0686           ;                   Set_White_off(2,3,3);
 0686 83E0              ldi R24,3
 0688 8883              std y+0,R24
 068A 23E0              ldi R18,3
 068C 02E0              ldi R16,2
 068E 0E940000          xcall _Set_White_off
 0692                   .dbline 251
 0692           ;                   break;
 0692 A7C0              xjmp L4
 0694           L97:
 0694                   .dbline 253
 0694           ;               case 5:
 0694           ;                   Set_White_off(6,3,7);
 0694 87E0              ldi R24,7
 0696 8883              std y+0,R24
 0698 23E0              ldi R18,3
 069A 06E0              ldi R16,6
 069C 0E940000          xcall _Set_White_off
 06A0                   .dbline 254
 06A0           ;                   break;
 06A0 A0C0              xjmp L4
 06A2           L98:
 06A2                   .dbline 256
 06A2           ;                case 6:
 06A2           ;                  Set_White_off(10,3,11);
 06A2 8BE0              ldi R24,11
 06A4 8883              std y+0,R24
 06A6 23E0              ldi R18,3
 06A8 0AE0              ldi R16,10
 06AA 0E940000          xcall _Set_White_off
 06AE                   .dbline 257
 06AE           ;                   break;
 06AE                   .dbline 259
 06AE           ;                 default:
 06AE           ;                  break;
 06AE                   .dbline 261
 06AE           ;                }
 06AE           ;          return ;
 06AE 99C0              xjmp L4
 06B0           L88:
 06B0                   .dbline 262
 06B0           ;       }else if(keyV=='t'){
 06B0 8A2D              mov R24,R10
 06B2 8437              cpi R24,116
 06B4 09F0              breq X70
 06B6 94C0              xjmp L99
 06B8           X70:
 06B8           X48:
 06B8                   .dbline 262
 06B8                   .dbline 263
 06B8           ;          switch(cur){
 06B8 4030              cpi R20,0
 06BA 4507              cpc R20,R21
 06BC F1F0              breq L103
 06BE           X49:
 06BE 4130              cpi R20,1
 06C0 E0E0              ldi R30,0
 06C2 5E07              cpc R21,R30
 06C4 91F1              breq L104
 06C6           X50:
 06C6 4230              cpi R20,2
 06C8 E0E0              ldi R30,0
 06CA 5E07              cpc R21,R30
 06CC 09F4              brne X71
 06CE 43C0              xjmp L105
 06D0           X71:
 06D0           X51:
 06D0 4330              cpi R20,3
 06D2 E0E0              ldi R30,0
 06D4 5E07              cpc R21,R30
 06D6 09F4              brne X72
 06D8 55C0              xjmp L106
 06DA           X72:
 06DA           X52:
 06DA 4430              cpi R20,4
 06DC E0E0              ldi R30,0
 06DE 5E07              cpc R21,R30
 06E0 09F4              brne X73
 06E2 66C0              xjmp L107
 06E4           X73:
 06E4           X53:
 06E4 4530              cpi R20,5
 06E6 E0E0              ldi R30,0
 06E8 5E07              cpc R21,R30
 06EA 09F4              brne X74
 06EC 64C0              xjmp L108
 06EE           X74:
 06EE           X54:
 06EE 4630              cpi R20,6
 06F0 E0E0              ldi R30,0
 06F2 5E07              cpc R21,R30
 06F4 09F4              brne X75
 06F6 62C0              xjmp L109
 06F8           X75:
 06F8           X55:
 06F8 73C0              xjmp L102
 06FA           L103:
 06FA                   .dbline 265
 06FA           ;                case 0: 
 06FA           ;                   Set_White_off(2,1,3);
 06FA 83E0              ldi R24,3
 06FC 8883              std y+0,R24
 06FE 21E0              ldi R18,1
 0700 02E0              ldi R16,2
 0702 0E940000          xcall _Set_White_off
 0706                   .dbline 266
 0706           ;                   prePageNum=1;
 0706 81E0              ldi R24,1
 0708 90E0              ldi R25,0
 070A 90930100          sts _prePageNum+1,R25
 070E 80930000          sts _prePageNum,R24
 0712                   .dbline 267
 0712           ;                   pageParam[0]=0;//传递使用第一个，对应不同的温度
 0712 2224              clr R2
 0714 3324              clr R3
 0716 30920100          sts _pageParam+1,R3
 071A 20920000          sts _pageParam,R2
 071E                   .dbline 268
 071E           ;                   pageNum=3;
 071E 83E0              ldi R24,3
 0720 90930100          sts _pageNum+1,R25
 0724 80930000          sts _pageNum,R24
 0728                   .dbline 269
 0728           ;                   return;
 0728 5CC0              xjmp L4
 072A           L104:
 072A                   .dbline 271
 072A           ;                case 1:
 072A           ;                  Set_White_off(7,1,8);
 072A 88E0              ldi R24,8
 072C 8883              std y+0,R24
 072E 21E0              ldi R18,1
 0730 07E0              ldi R16,7
 0732 0E940000          xcall _Set_White_off
 0736                   .dbline 272
 0736           ;                   prePageNum=1;
 0736 81E0              ldi R24,1
 0738 90E0              ldi R25,0
 073A 90930100          sts _prePageNum+1,R25
 073E 80930000          sts _prePageNum,R24
 0742                   .dbline 273
 0742           ;                  pageParam[0]=1;//传递使用第一个，对应不同的温度
 0742 90930100          sts _pageParam+1,R25
 0746 80930000          sts _pageParam,R24
 074A                   .dbline 274
 074A           ;                   pageNum=3;
 074A 83E0              ldi R24,3
 074C 90930100          sts _pageNum+1,R25
 0750 80930000          sts _pageNum,R24
 0754                   .dbline 275
 0754           ;                   return;
 0754 46C0              xjmp L4
 0756           L105:
 0756                   .dbline 277
 0756           ;                case 2:
 0756           ;                 Set_White_off(2,2,3);
 0756 83E0              ldi R24,3
 0758 8883              std y+0,R24
 075A 22E0              ldi R18,2
 075C 02E0              ldi R16,2
 075E 0E940000          xcall _Set_White_off
 0762                   .dbline 278
 0762           ;                   prePageNum=1;
 0762 81E0              ldi R24,1
 0764 90E0              ldi R25,0
 0766 90930100          sts _prePageNum+1,R25
 076A 80930000          sts _prePageNum,R24
 076E                   .dbline 279
 076E           ;                   pageParam[0]=2;//传递使用第一个，对应不同的温度
 076E 82E0              ldi R24,2
 0770 90930100          sts _pageParam+1,R25
 0774 80930000          sts _pageParam,R24
 0778                   .dbline 280
 0778           ;                  pageNum=3;
 0778 83E0              ldi R24,3
 077A 90930100          sts _pageNum+1,R25
 077E 80930000          sts _pageNum,R24
 0782                   .dbline 281
 0782           ;                  return;
 0782 2FC0              xjmp L4
 0784           L106:
 0784                   .dbline 283
 0784           ;                case 3:
 0784           ;                  Set_White_off(7,2,8);
 0784 88E0              ldi R24,8
 0786 8883              std y+0,R24
 0788 22E0              ldi R18,2
 078A 07E0              ldi R16,7
 078C 0E940000          xcall _Set_White_off
 0790                   .dbline 284
 0790           ;                    prePageNum=1;
 0790 81E0              ldi R24,1
 0792 90E0              ldi R25,0
 0794 90930100          sts _prePageNum+1,R25
 0798 80930000          sts _prePageNum,R24
 079C                   .dbline 285
 079C           ;                   pageParam[0]=3;//传递使用第一个，对应不同的温度
 079C 83E0              ldi R24,3
 079E 90930100          sts _pageParam+1,R25
 07A2 80930000          sts _pageParam,R24
 07A6                   .dbline 286
 07A6           ;                   pageNum=3;
 07A6 90930100          sts _pageNum+1,R25
 07AA 80930000          sts _pageNum,R24
 07AE                   .dbline 287
 07AE           ;                   return;
 07AE 19C0              xjmp L4
 07B0           L107:
 07B0                   .dbline 290
 07B0           ;                case 4:
 07B0           ;                   //调用函数全部开始，参数正确的
 07B0           ;                       set_all_start();
 07B0 0E940000          xcall _set_all_start
 07B4                   .dbline 291
 07B4           ;                  break;
 07B4 15C0              xjmp L102
 07B6           L108:
 07B6                   .dbline 294
 07B6           ;                case 5:
 07B6           ;                   //全部停止
 07B6           ;                       set_all_stop();
 07B6 0E940000          xcall _set_all_stop
 07BA                   .dbline 295
 07BA           ;                  break;
 07BA 12C0              xjmp L102
 07BC           L109:
 07BC                   .dbline 297
 07BC           ;                case 6://设置
 07BC           ;                  Set_White_off(10,3,11);
 07BC 8BE0              ldi R24,11
 07BE 8883              std y+0,R24
 07C0 23E0              ldi R18,3
 07C2 0AE0              ldi R16,10
 07C4 0E940000          xcall _Set_White_off
 07C8                   .dbline 298
 07C8           ;                  prePageNum=1;
 07C8 81E0              ldi R24,1
 07CA 90E0              ldi R25,0
 07CC 90930100          sts _prePageNum+1,R25
 07D0 80930000          sts _prePageNum,R24
 07D4                   .dbline 299
 07D4           ;                  pageNum=5;
 07D4 85E0              ldi R24,5
 07D6 90930100          sts _pageNum+1,R25
 07DA 80930000          sts _pageNum,R24
 07DE                   .dbline 300
 07DE           ;                   return;
 07DE 01C0              xjmp L4
 07E0           L102:
 07E0                   .dbline 305
 07E0           ;                 default:
 07E0           ;                  break;
 07E0           ;                }
 07E0           ;       
 07E0           ;       }
 07E0           L99:
 07E0           L81:
 07E0           L73:
 07E0           L64:
 07E0           L56:
 07E0                   .dbline 306
 07E0           ;   }
 07E0           L13:
 07E0                   .dbline 56
 07E0 81CC              xjmp L12
 07E2           X56:
 07E2                   .dbline -2
 07E2           L4:
 07E2                   .dbline 0 ; func end
 07E2 2296              adiw R28,2
 07E4 0C940000          xjmp pop_xgsetF03C
 07E8                   .dbsym r cur 20 i
 07E8                   .dbsym r keyV 10 c
 07E8                   .dbsym r y 22 i
 07E8                   .dbsym r i 10 i
 07E8                   .dbend
 07E8                   .dbfunc e page2 _page2 fV
 07E8           ;            ft2 -> R10,R11
 07E8           ;            ft1 -> R12,R13
 07E8           ;            ft0 -> R14,R15
 07E8           ;            ft3 -> R22,R23
 07E8           ;            cur -> R20,R21
 07E8           ;           keyV -> R10
                        .even
 07E8           _page2::
 07E8 0E940000          xcall push_xgsetF0FC
 07EC 2297              sbiw R28,2
 07EE                   .dbline -1
 07EE                   .dbline 309
 07EE           ;    return;
 07EE           ; }
 07EE           ;  void page2(void){
 07EE                   .dbline 310
 07EE           ;    uint cur=0;
 07EE 4427              clr R20
 07F0 5527              clr R21
 07F2                   .dbline 313
 07F2           ;    uchar keyV;
 07F2           ;    uint ft0,ft1,ft2,ft3;
 07F2           ;    ft0=EEPROM_read(1,0);
 07F2 2227              clr R18
 07F4 3327              clr R19
 07F6 01E0              ldi R16,1
 07F8 10E0              ldi R17,0
 07FA 0E940000          xcall _EEPROM_read
 07FE 7801              movw R14,R16
 0800                   .dbline 314
 0800           ;    ft1=EEPROM_read(2,0);
 0800 2227              clr R18
 0802 3327              clr R19
 0804 02E0              ldi R16,2
 0806 10E0              ldi R17,0
 0808 0E940000          xcall _EEPROM_read
 080C 6801              movw R12,R16
 080E                   .dbline 315
 080E           ;    ft2=EEPROM_read(3,0);
 080E 2227              clr R18
 0810 3327              clr R19
 0812 03E0              ldi R16,3
 0814 10E0              ldi R17,0
 0816 0E940000          xcall _EEPROM_read
 081A 5801              movw R10,R16
 081C                   .dbline 316
 081C           ;    ft3=EEPROM_read(4,0);
 081C 2227              clr R18
 081E 3327              clr R19
 0820 04E0              ldi R16,4
 0822 10E0              ldi R17,0
 0824 0E940000          xcall _EEPROM_read
 0828 B801              movw R22,R16
 082A                   .dbline 317
 082A           ;  if(!(ft0==0 && ft1==0 && ft2==0 && ft3==0)){//判断是否有数据，任何一个有数据就询问是否恢复
 082A EE20              tst R14
 082C 71F4              brne L115
 082E FF20              tst R15
 0830 61F4              brne L115
 0832           X76:
 0832 CC20              tst R12
 0834 51F4              brne L115
 0836 DD20              tst R13
 0838 41F4              brne L115
 083A           X77:
 083A AA20              tst R10
 083C 31F4              brne L115
 083E BB20              tst R11
 0840 21F4              brne L115
 0842           X78:
 0842 0030              cpi R16,0
 0844 0107              cpc R16,R17
 0846 09F4              brne X90
 0848 EAC0              xjmp L111
 084A           X90:
 084A           X79:
 084A           L115:
 084A                   .dbline 317
 084A                   .dbline 319
 084A           ;    //初始画面，会有读取EEPROM的判断默认操作，本次只是画界面
 084A           ;    lcd_write_str(2,0,"是否恢复上次工作");
 084A 80E0              ldi R24,<L116
 084C 90E0              ldi R25,>L116
 084E 9983              std y+1,R25
 0850 8883              std y+0,R24
 0852 2227              clr R18
 0854 02E0              ldi R16,2
 0856 0E940000          xcall _lcd_write_str
 085A                   .dbline 320
 085A           ;    lcd_write_str(2,2,"恢复");
 085A 80E0              ldi R24,<L117
 085C 90E0              ldi R25,>L117
 085E 9983              std y+1,R25
 0860 8883              std y+0,R24
 0862 22E0              ldi R18,2
 0864 02E0              ldi R16,2
 0866 0E940000          xcall _lcd_write_str
 086A                   .dbline 321
 086A           ;    lcd_write_str(8,2,"取消");
 086A 80E0              ldi R24,<L118
 086C 90E0              ldi R25,>L118
 086E 9983              std y+1,R25
 0870 8883              std y+0,R24
 0872 22E0              ldi R18,2
 0874 08E0              ldi R16,8
 0876 0E940000          xcall _lcd_write_str
 087A                   .dbline 322
 087A           ;    ft3=EEPROM_read(0,0);//复用读取首选项
 087A 2227              clr R18
 087C 3327              clr R19
 087E 0027              clr R16
 0880 1127              clr R17
 0882 0E940000          xcall _EEPROM_read
 0886 5801              movw R10,R16
 0888 B501              movw R22,R10
 088A                   .dbline 323
 088A           ;    if(ft3==1){//默认恢复
 088A 0130              cpi R16,1
 088C E0E0              ldi R30,0
 088E 1E07              cpc R17,R30
 0890 49F4              brne L119
 0892           X80:
 0892                   .dbline 323
 0892                   .dbline 324
 0892           ;      cur=0;
 0892 4427              clr R20
 0894 5527              clr R21
 0896                   .dbline 325
 0896           ;      Set_White(3,2,4);
 0896 84E0              ldi R24,4
 0898 8883              std y+0,R24
 089A 22E0              ldi R18,2
 089C 03E0              ldi R16,3
 089E 0E940000          xcall _Set_White
 08A2                   .dbline 326
 08A2           ;    }else{
 08A2 08C0              xjmp L120
 08A4           L119:
 08A4                   .dbline 326
 08A4                   .dbline 327
 08A4           ;      cur=1;
 08A4 41E0              ldi R20,1
 08A6 50E0              ldi R21,0
 08A8                   .dbline 328
 08A8           ;      Set_White(9,2,10);
 08A8 8AE0              ldi R24,10
 08AA 8883              std y+0,R24
 08AC 22E0              ldi R18,2
 08AE 09E0              ldi R16,9
 08B0 0E940000          xcall _Set_White
 08B4                   .dbline 329
 08B4           ;    }
 08B4           L120:
 08B4                   .dbline 330
 08B4           ;    Timerinit_0(0x00); //使用定时器，定时一段时间更改标记，while中读取这个标记确定是否结束while
 08B4 0027              clr R16
 08B6 0E940000          xcall _Timerinit_0
 08BA B0C0              xjmp L122
 08BC           L121:
 08BC                   .dbline 331
 08BC           ;     while(1){
 08BC                   .dbline 332
 08BC           ;       if(waitflag==1){
 08BC 80910000          lds R24,_waitflag
 08C0 90910100          lds R25,_waitflag+1
 08C4 8130              cpi R24,1
 08C6 E0E0              ldi R30,0
 08C8 9E07              cpc R25,R30
 08CA 31F5              brne L124
 08CC           X81:
 08CC                   .dbline 332
 08CC                   .dbline 334
 08CC           ;         //执行相关操作
 08CC           ;                  Set_White_off(9,2,10);
 08CC 8AE0              ldi R24,10
 08CE 8883              std y+0,R24
 08D0 22E0              ldi R18,2
 08D2 09E0              ldi R16,9
 08D4 0E940000          xcall _Set_White_off
 08D8                   .dbline 335
 08D8           ;                   Set_White_off(3,2,4);
 08D8 84E0              ldi R24,4
 08DA 8883              std y+0,R24
 08DC 22E0              ldi R18,2
 08DE 03E0              ldi R16,3
 08E0 0E940000          xcall _Set_White_off
 08E4                   .dbline 336
 08E4           ;                       if(cur==0){
 08E4 4030              cpi R20,0
 08E6 4507              cpc R20,R21
 08E8 81F4              brne L126
 08EA           X82:
 08EA                   .dbline 336
 08EA                   .dbline 337
 08EA           ;                         lcd_clear();
 08EA 0E940000          xcall _lcd_clear
 08EE                   .dbline 338
 08EE           ;                         lcd_write_str(5,2,"恢复中. . .");
 08EE 80E0              ldi R24,<L128
 08F0 90E0              ldi R25,>L128
 08F2 9983              std y+1,R25
 08F4 8883              std y+0,R24
 08F6 22E0              ldi R18,2
 08F8 05E0              ldi R16,5
 08FA 0E940000          xcall _lcd_write_str
 08FE                   .dbline 339
 08FE           ;                         data_recover();//恢复数据，可以跳转到界面后操作。暂时放在这
 08FE 0E940000          xcall _data_recover
 0902                   .dbline 340
 0902           ;                         delay_ms(200);
 0902 08EC              ldi R16,200
 0904 10E0              ldi R17,0
 0906 0E940000          xcall _delay_ms
 090A                   .dbline 341
 090A           ;                       }
 090A           L126:
 090A                   .dbline 342
 090A           ;                 pageNum=1;
 090A 81E0              ldi R24,1
 090C 90E0              ldi R25,0
 090E 90930100          sts _pageNum+1,R25
 0912 80930000          sts _pageNum,R24
 0916                   .dbline 343
 0916           ;                 return;
 0916 89C0              xjmp L110
 0918           L124:
 0918                   .dbline 345
 0918           ;         }
 0918           ;       keyV=KeyScan_once();
 0918 0E940000          xcall _KeyScan_once
 091C A02E              mov R10,R16
 091E                   .dbline 346
 091E           ;         switch(keyV){
 091E 6A2D              mov R22,R10
 0920 7727              clr R23
 0922 6C36              cpi R22,108
 0924 E0E0              ldi R30,0
 0926 7E07              cpc R23,R30
 0928 79F0              breq L132
 092A           X83:
 092A 6C36              cpi R22,108
 092C E0E0              ldi R30,0
 092E 7E07              cpc R23,R30
 0930 0CF4              brge X91
 0932 74C0              xjmp L129
 0934           X91:
 0934           X84:
 0934           L141:
 0934 6237              cpi R22,114
 0936 E0E0              ldi R30,0
 0938 7E07              cpc R23,R30
 093A 41F1              breq L135
 093C           X85:
 093C 6437              cpi R22,116
 093E E0E0              ldi R30,0
 0940 7E07              cpc R23,R30
 0942 09F4              brne X92
 0944 43C0              xjmp L138
 0946           X92:
 0946           X86:
 0946 6AC0              xjmp L129
 0948           L132:
 0948                   .dbline 348
 0948           ;           case 'l':
 0948           ;                  TCCR0=0x00;//定时器停止
 0948 2224              clr R2
 094A 23BE              out 0x33,R2
 094C                   .dbline 349
 094C           ;                  lcd_write_char(10,0,' ');
 094C 80E2              ldi R24,32
 094E 8883              std y+0,R24
 0950 2227              clr R18
 0952 0AE0              ldi R16,10
 0954 0E940000          xcall _lcd_write_char
 0958                   .dbline 350
 0958           ;              lcd_write_char(11,0,' ');        
 0958 80E2              ldi R24,32
 095A 8883              std y+0,R24
 095C 2227              clr R18
 095E 0BE0              ldi R16,11
 0960 0E940000          xcall _lcd_write_char
 0964                   .dbline 351
 0964           ;                  if(cur==1){
 0964 4130              cpi R20,1
 0966 E0E0              ldi R30,0
 0968 5E07              cpc R21,R30
 096A 09F0              breq X93
 096C 57C0              xjmp L130
 096E           X93:
 096E           X87:
 096E                   .dbline 351
 096E                   .dbline 352
 096E           ;                     Set_White_off(9,2,10);
 096E 8AE0              ldi R24,10
 0970 8883              std y+0,R24
 0972 22E0              ldi R18,2
 0974 09E0              ldi R16,9
 0976 0E940000          xcall _Set_White_off
 097A                   .dbline 353
 097A           ;                     Set_White(3,2,4);
 097A 84E0              ldi R24,4
 097C 8883              std y+0,R24
 097E 22E0              ldi R18,2
 0980 03E0              ldi R16,3
 0982 0E940000          xcall _Set_White
 0986                   .dbline 354
 0986           ;                         cur=0;
 0986 4427              clr R20
 0988 5527              clr R21
 098A                   .dbline 355
 098A           ;                  }
 098A                   .dbline 356
 098A           ;                  break;
 098A 48C0              xjmp L130
 098C           L135:
 098C                   .dbline 358
 098C           ;               case 'r':
 098C           ;                  TCCR0=0x00;//定时器停止
 098C 2224              clr R2
 098E 23BE              out 0x33,R2
 0990                   .dbline 359
 0990           ;                  lcd_write_char(10,0,' ');
 0990 80E2              ldi R24,32
 0992 8883              std y+0,R24
 0994 2227              clr R18
 0996 0AE0              ldi R16,10
 0998 0E940000          xcall _lcd_write_char
 099C                   .dbline 360
 099C           ;              lcd_write_char(11,0,' ');        
 099C 80E2              ldi R24,32
 099E 8883              std y+0,R24
 09A0 2227              clr R18
 09A2 0BE0              ldi R16,11
 09A4 0E940000          xcall _lcd_write_char
 09A8                   .dbline 361
 09A8           ;                  if(cur==0){
 09A8 4030              cpi R20,0
 09AA 4507              cpc R20,R21
 09AC B9F5              brne L130
 09AE           X88:
 09AE                   .dbline 361
 09AE                   .dbline 362
 09AE           ;                     Set_White_off(3,2,4);
 09AE 84E0              ldi R24,4
 09B0 8883              std y+0,R24
 09B2 22E0              ldi R18,2
 09B4 03E0              ldi R16,3
 09B6 0E940000          xcall _Set_White_off
 09BA                   .dbline 363
 09BA           ;                     Set_White(9,2,10);
 09BA 8AE0              ldi R24,10
 09BC 8883              std y+0,R24
 09BE 22E0              ldi R18,2
 09C0 09E0              ldi R16,9
 09C2 0E940000          xcall _Set_White
 09C6                   .dbline 364
 09C6           ;                         cur=1;
 09C6 41E0              ldi R20,1
 09C8 50E0              ldi R21,0
 09CA                   .dbline 365
 09CA           ;                  }
 09CA                   .dbline 367
 09CA           ;                  
 09CA           ;                 break;
 09CA 28C0              xjmp L130
 09CC           L138:
 09CC                   .dbline 370
 09CC           ;               case 't':
 09CC           ;                 //执行相关操作
 09CC           ;                  TCCR0=0x00;//定时器停止
 09CC 2224              clr R2
 09CE 23BE              out 0x33,R2
 09D0                   .dbline 371
 09D0           ;                  Set_White_off(9,2,10);
 09D0 8AE0              ldi R24,10
 09D2 8883              std y+0,R24
 09D4 22E0              ldi R18,2
 09D6 09E0              ldi R16,9
 09D8 0E940000          xcall _Set_White_off
 09DC                   .dbline 372
 09DC           ;                   Set_White_off(3,2,4);
 09DC 84E0              ldi R24,4
 09DE 8883              std y+0,R24
 09E0 22E0              ldi R18,2
 09E2 03E0              ldi R16,3
 09E4 0E940000          xcall _Set_White_off
 09E8                   .dbline 373
 09E8           ;                       if(cur==0){
 09E8 4030              cpi R20,0
 09EA 4507              cpc R20,R21
 09EC 81F4              brne L139
 09EE           X89:
 09EE                   .dbline 373
 09EE                   .dbline 374
 09EE           ;                         lcd_clear();
 09EE 0E940000          xcall _lcd_clear
 09F2                   .dbline 375
 09F2           ;                         lcd_write_str(5,2,"恢复中. . .");
 09F2 80E0              ldi R24,<L128
 09F4 90E0              ldi R25,>L128
 09F6 9983              std y+1,R25
 09F8 8883              std y+0,R24
 09FA 22E0              ldi R18,2
 09FC 05E0              ldi R16,5
 09FE 0E940000          xcall _lcd_write_str
 0A02                   .dbline 376
 0A02           ;                         data_recover();//恢复数据，可以跳转到界面后操作。暂时放在这
 0A02 0E940000          xcall _data_recover
 0A06                   .dbline 377
 0A06           ;                         delay_ms(200);
 0A06 08EC              ldi R16,200
 0A08 10E0              ldi R17,0
 0A0A 0E940000          xcall _delay_ms
 0A0E                   .dbline 378
 0A0E           ;                       }
 0A0E           L139:
 0A0E                   .dbline 379
 0A0E           ;                 pageNum=1;
 0A0E 81E0              ldi R24,1
 0A10 90E0              ldi R25,0
 0A12 90930100          sts _pageNum+1,R25
 0A16 80930000          sts _pageNum,R24
 0A1A                   .dbline 380
 0A1A           ;                 return;
 0A1A 07C0              xjmp L110
 0A1C           L129:
 0A1C           L130:
 0A1C                   .dbline 382
 0A1C           ;         }
 0A1C           ;       }
 0A1C           L122:
 0A1C                   .dbline 331
 0A1C 4FCF              xjmp L121
 0A1E           L111:
 0A1E                   .dbline 383
 0A1E           ;   }else{
 0A1E                   .dbline 384
 0A1E           ;      pageNum=1;
 0A1E 81E0              ldi R24,1
 0A20 90E0              ldi R25,0
 0A22 90930100          sts _pageNum+1,R25
 0A26 80930000          sts _pageNum,R24
 0A2A                   .dbline 385
 0A2A           ;      return;
 0A2A           L112:
 0A2A                   .dbline -2
 0A2A           L110:
 0A2A                   .dbline 0 ; func end
 0A2A 2296              adiw R28,2
 0A2C 0C940000          xjmp pop_xgsetF0FC
 0A30                   .dbsym r ft2 10 i
 0A30                   .dbsym r ft1 12 i
 0A30                   .dbsym r ft0 14 i
 0A30                   .dbsym r ft3 22 i
 0A30                   .dbsym r cur 20 i
 0A30                   .dbsym r keyV 10 c
 0A30                   .dbend
 0A30                   .dbfunc e page3 _page3 fV
 0A30           ;            cur -> R20,R21
 0A30           ;           keyV -> R22
                        .even
 0A30           _page3::
 0A30 0E940000          xcall push_xgsetF000
 0A34 2297              sbiw R28,2
 0A36                   .dbline -1
 0A36                   .dbline 388
 0A36           ;   }
 0A36           ;  }
 0A36           ;  void page3(void){
 0A36                   .dbline 389
 0A36           ;   uint cur=0;
 0A36 4427              clr R20
 0A38 5527              clr R21
 0A3A                   .dbline 391
 0A3A           ;    uchar keyV;
 0A3A           ;    lcd_write_str(0,0,"T");
 0A3A 80E0              ldi R24,<L143
 0A3C 90E0              ldi R25,>L143
 0A3E 9983              std y+1,R25
 0A40 8883              std y+0,R24
 0A42 2227              clr R18
 0A44 0027              clr R16
 0A46 0E940000          xcall _lcd_write_str
 0A4A                   .dbline 392
 0A4A           ;     lcd_write_char_con(0,0x30 | (pageParam[0]+1));
 0A4A 20910000          lds R18,_pageParam
 0A4E 30910100          lds R19,_pageParam+1
 0A52 2F5F              subi R18,255  ; offset = 1
 0A54 3F4F              sbci R19,255
 0A56 2063              ori R18,48
 0A58 0027              clr R16
 0A5A 0E940000          xcall _lcd_write_char_con
 0A5E                   .dbline 393
 0A5E           ;       lcd_write_char_con(0,':');
 0A5E 2AE3              ldi R18,58
 0A60 0027              clr R16
 0A62 0E940000          xcall _lcd_write_char_con
 0A66                   .dbline 394
 0A66           ;    lcd_write_str(1,1,"温度:");
 0A66 80E0              ldi R24,<L144
 0A68 90E0              ldi R25,>L144
 0A6A 9983              std y+1,R25
 0A6C 8883              std y+0,R24
 0A6E 21E0              ldi R18,1
 0A70 01E0              ldi R16,1
 0A72 0E940000          xcall _lcd_write_str
 0A76                   .dbline 395
 0A76           ;    lcd_write_str(1,2,"状态:");
 0A76 80E0              ldi R24,<L145
 0A78 90E0              ldi R25,>L145
 0A7A 9983              std y+1,R25
 0A7C 8883              std y+0,R24
 0A7E 22E0              ldi R18,2
 0A80 01E0              ldi R16,1
 0A82 0E940000          xcall _lcd_write_str
 0A86                   .dbline 396
 0A86           ;    lcd_write_str(0,3,"编辑");
 0A86 80E0              ldi R24,<L146
 0A88 90E0              ldi R25,>L146
 0A8A 9983              std y+1,R25
 0A8C 8883              std y+0,R24
 0A8E 23E0              ldi R18,3
 0A90 0027              clr R16
 0A92 0E940000          xcall _lcd_write_str
 0A96                   .dbline 397
 0A96           ;    lcd_write_str(3,3,"运行");
 0A96 80E0              ldi R24,<L147
 0A98 90E0              ldi R25,>L147
 0A9A 9983              std y+1,R25
 0A9C 8883              std y+0,R24
 0A9E 23E0              ldi R18,3
 0AA0 03E0              ldi R16,3
 0AA2 0E940000          xcall _lcd_write_str
 0AA6                   .dbline 398
 0AA6           ;    lcd_write_str(7,3,"暂停");
 0AA6 80E0              ldi R24,<L39
 0AA8 90E0              ldi R25,>L39
 0AAA 9983              std y+1,R25
 0AAC 8883              std y+0,R24
 0AAE 23E0              ldi R18,3
 0AB0 07E0              ldi R16,7
 0AB2 0E940000          xcall _lcd_write_str
 0AB6                   .dbline 399
 0AB6           ;    lcd_write_str(10,3,"重置");
 0AB6 80E0              ldi R24,<L148
 0AB8 90E0              ldi R25,>L148
 0ABA 9983              std y+1,R25
 0ABC 8883              std y+0,R24
 0ABE 23E0              ldi R18,3
 0AC0 0AE0              ldi R16,10
 0AC2 0E940000          xcall _lcd_write_str
 0AC6                   .dbline 400
 0AC6           ;    Set_White(1,3,2);
 0AC6 82E0              ldi R24,2
 0AC8 8883              std y+0,R24
 0ACA 23E0              ldi R18,3
 0ACC 01E0              ldi R16,1
 0ACE 0E940000          xcall _Set_White
 0AD2 FFC1              xjmp L150
 0AD4           L149:
 0AD4                   .dbline 402
 0AD4           ;    //Set_White(9,2,10);
 0AD4           ;     while(1){
 0AD4                   .dbline 403
 0AD4           ;       lcd_write_pos(2,0);
 0AD4 2227              clr R18
 0AD6 02E0              ldi R16,2
 0AD8 0E940000          xcall _lcd_write_pos
 0ADC                   .dbline 404
 0ADC           ;       pageTime2(0);
 0ADC 0027              clr R16
 0ADE 1127              clr R17
 0AE0 A2DA              xcall _pageTime2
 0AE2                   .dbline 406
 0AE2           ;       //写温度
 0AE2           ;       if(temps[pageParam[0]].flag!=2){
 0AE2 20910000          lds R18,_pageParam
 0AE6 30910100          lds R19,_pageParam+1
 0AEA 0AE3              ldi R16,314
 0AEC 11E0              ldi R17,1
 0AEE 0E940000          xcall empy16s
 0AF2 80E0              ldi R24,<_temps
 0AF4 90E0              ldi R25,>_temps
 0AF6 F801              movw R30,R16
 0AF8 E80F              add R30,R24
 0AFA F91F              adc R31,R25
 0AFC 8081              ldd R24,z+0
 0AFE 9181              ldd R25,z+1
 0B00 8230              cpi R24,2
 0B02 E0E0              ldi R30,0
 0B04 9E07              cpc R25,R30
 0B06 09F4              brne X119
 0B08 8BC0              xjmp L152
 0B0A           X119:
 0B0A           X94:
 0B0A                   .dbline 406
 0B0A                   .dbline 407
 0B0A           ;         lcd_write_pos(4,1);
 0B0A 21E0              ldi R18,1
 0B0C 04E0              ldi R16,4
 0B0E 0E940000          xcall _lcd_write_pos
 0B12                   .dbline 408
 0B12           ;         if(temps[pageParam[0]].actualtemp==0){
 0B12 20910000          lds R18,_pageParam
 0B16 30910100          lds R19,_pageParam+1
 0B1A 0AE3              ldi R16,314
 0B1C 11E0              ldi R17,1
 0B1E 0E940000          xcall empy16s
 0B22 80E0              ldi R24,<_temps+282
 0B24 90E0              ldi R25,>_temps+282
 0B26 F801              movw R30,R16
 0B28 E80F              add R30,R24
 0B2A F91F              adc R31,R25
 0B2C 2080              ldd R2,z+0
 0B2E 3180              ldd R3,z+1
 0B30 4280              ldd R4,z+2
 0B32 5380              ldd R5,z+3
 0B34 00E0              ldi R16,<L157
 0B36 10E0              ldi R17,>L157
 0B38 0E940000          xcall elpm32
 0B3C 3A93              st -y,R19
 0B3E 2A93              st -y,R18
 0B40 1A93              st -y,R17
 0B42 0A93              st -y,R16
 0B44 8101              movw R16,R2
 0B46 9201              movw R18,R4
 0B48 0E940000          xcall fpcmp2
 0B4C 19F4              brne L154
 0B4E           X95:
 0B4E                   .dbline 408
 0B4E                   .dbline 409
 0B4E           ;            PORTE=~0x0a;
 0B4E 85EF              ldi R24,245
 0B50 83B9              out 0x3,R24
 0B52                   .dbline 410
 0B52           ;         }else{
 0B52 02C0              xjmp L155
 0B54           L154:
 0B54                   .dbline 410
 0B54                   .dbline 411
 0B54           ;           PORTE=~0xa0;
 0B54 8FE5              ldi R24,95
 0B56 83B9              out 0x3,R24
 0B58                   .dbline 412
 0B58           ;         }
 0B58           L155:
 0B58                   .dbline 413
 0B58           ;         lcd_write_char_con(1,0x30 | ((int)temps[pageParam[0]].actualtemp)/100);
 0B58 20910000          lds R18,_pageParam
 0B5C 30910100          lds R19,_pageParam+1
 0B60 0AE3              ldi R16,314
 0B62 11E0              ldi R17,1
 0B64 0E940000          xcall empy16s
 0B68 80E0              ldi R24,<_temps+282
 0B6A 90E0              ldi R25,>_temps+282
 0B6C F801              movw R30,R16
 0B6E E80F              add R30,R24
 0B70 F91F              adc R31,R25
 0B72 0081              ldd R16,z+0
 0B74 1181              ldd R17,z+1
 0B76 2281              ldd R18,z+2
 0B78 3381              ldd R19,z+3
 0B7A 0E940000          xcall fpint
 0B7E 24E6              ldi R18,100
 0B80 30E0              ldi R19,0
 0B82 0E940000          xcall div16s
 0B86 9801              movw R18,R16
 0B88 2063              ori R18,48
 0B8A 01E0              ldi R16,1
 0B8C 0E940000          xcall _lcd_write_char_con
 0B90                   .dbline 414
 0B90           ;         lcd_write_char_con(1,0x30 | (((int)temps[pageParam[0]].actualtemp)/10)%10);
 0B90 20910000          lds R18,_pageParam
 0B94 30910100          lds R19,_pageParam+1
 0B98 0AE3              ldi R16,314
 0B9A 11E0              ldi R17,1
 0B9C 0E940000          xcall empy16s
 0BA0 80E0              ldi R24,<_temps+282
 0BA2 90E0              ldi R25,>_temps+282
 0BA4 F801              movw R30,R16
 0BA6 E80F              add R30,R24
 0BA8 F91F              adc R31,R25
 0BAA 0081              ldd R16,z+0
 0BAC 1181              ldd R17,z+1
 0BAE 2281              ldd R18,z+2
 0BB0 3381              ldd R19,z+3
 0BB2 0E940000          xcall fpint
 0BB6 2AE0              ldi R18,10
 0BB8 30E0              ldi R19,0
 0BBA 0E940000          xcall div16s
 0BBE 2AE0              ldi R18,10
 0BC0 30E0              ldi R19,0
 0BC2 0E940000          xcall mod16s
 0BC6 9801              movw R18,R16
 0BC8 2063              ori R18,48
 0BCA 01E0              ldi R16,1
 0BCC 0E940000          xcall _lcd_write_char_con
 0BD0                   .dbline 415
 0BD0           ;         lcd_write_char_con(1,0x30 | ((int)temps[pageParam[0]].actualtemp)%10);
 0BD0 20910000          lds R18,_pageParam
 0BD4 30910100          lds R19,_pageParam+1
 0BD8 0AE3              ldi R16,314
 0BDA 11E0              ldi R17,1
 0BDC 0E940000          xcall empy16s
 0BE0 80E0              ldi R24,<_temps+282
 0BE2 90E0              ldi R25,>_temps+282
 0BE4 F801              movw R30,R16
 0BE6 E80F              add R30,R24
 0BE8 F91F              adc R31,R25
 0BEA 0081              ldd R16,z+0
 0BEC 1181              ldd R17,z+1
 0BEE 2281              ldd R18,z+2
 0BF0 3381              ldd R19,z+3
 0BF2 0E940000          xcall fpint
 0BF6 2AE0              ldi R18,10
 0BF8 30E0              ldi R19,0
 0BFA 0E940000          xcall mod16s
 0BFE 9801              movw R18,R16
 0C00 2063              ori R18,48
 0C02 01E0              ldi R16,1
 0C04 0E940000          xcall _lcd_write_char_con
 0C08                   .dbline 416
 0C08           ;         lcd_write_char_con(1,' ');
 0C08 20E2              ldi R18,32
 0C0A 01E0              ldi R16,1
 0C0C 0E940000          xcall _lcd_write_char_con
 0C10                   .dbline 417
 0C10           ;         lcd_write_char_con(1,0xA1);
 0C10 21EA              ldi R18,161
 0C12 01E0              ldi R16,1
 0C14 0E940000          xcall _lcd_write_char_con
 0C18                   .dbline 418
 0C18           ;       lcd_write_char_con(1,0xE6);
 0C18 26EE              ldi R18,230
 0C1A 01E0              ldi R16,1
 0C1C 0E940000          xcall _lcd_write_char_con
 0C20                   .dbline 419
 0C20           ;       }
 0C20           L152:
 0C20                   .dbline 421
 0C20           ;       //数据需要读入
 0C20           ;       lcd_write_pos(4,2);
 0C20 22E0              ldi R18,2
 0C22 04E0              ldi R16,4
 0C24 0E940000          xcall _lcd_write_pos
 0C28                   .dbline 422
 0C28           ;       switch(temps[pageParam[0]].flag){
 0C28 20910000          lds R18,_pageParam
 0C2C 30910100          lds R19,_pageParam+1
 0C30 0AE3              ldi R16,314
 0C32 11E0              ldi R17,1
 0C34 0E940000          xcall empy16s
 0C38 80E0              ldi R24,<_temps
 0C3A 90E0              ldi R25,>_temps
 0C3C F801              movw R30,R16
 0C3E E80F              add R30,R24
 0C40 F91F              adc R31,R25
 0C42 6081              ldd R22,z+0
 0C44 7181              ldd R23,z+1
 0C46 6030              cpi R22,0
 0C48 6707              cpc R22,R23
 0C4A C9F0              breq L164
 0C4C           X96:
 0C4C 6130              cpi R22,1
 0C4E E0E0              ldi R30,0
 0C50 7E07              cpc R23,R30
 0C52 D9F0              breq L165
 0C54           X97:
 0C54 6230              cpi R22,2
 0C56 E0E0              ldi R30,0
 0C58 7E07              cpc R23,R30
 0C5A E9F0              breq L167
 0C5C           X98:
 0C5C 6330              cpi R22,3
 0C5E E0E0              ldi R30,0
 0C60 7E07              cpc R23,R30
 0C62 F9F0              breq L168
 0C64           X99:
 0C64 6430              cpi R22,4
 0C66 E0E0              ldi R30,0
 0C68 7E07              cpc R23,R30
 0C6A 09F1              breq L169
 0C6C           X100:
 0C6C 6530              cpi R22,5
 0C6E E0E0              ldi R30,0
 0C70 7E07              cpc R23,R30
 0C72 19F1              breq L170
 0C74           X101:
 0C74 6630              cpi R22,6
 0C76 E0E0              ldi R30,0
 0C78 7E07              cpc R23,R30
 0C7A 29F1              breq L171
 0C7C           X102:
 0C7C 29C0              xjmp L162
 0C7E           L164:
 0C7E                   .dbline 424
 0C7E           ;            case 0: 
 0C7E           ;                  lcd_write_str_con(2,"停止");
 0C7E 20E0              ldi R18,<L31
 0C80 30E0              ldi R19,>L31
 0C82 02E0              ldi R16,2
 0C84 0E940000          xcall _lcd_write_str_con
 0C88                   .dbline 425
 0C88           ;                  break;
 0C88 23C0              xjmp L162
 0C8A           L165:
 0C8A                   .dbline 428
 0C8A           ;                case 1:
 0C8A           ;                  //写状态
 0C8A           ;                  lcd_write_str_con(2,"写状态");
 0C8A 20E0              ldi R18,<L166
 0C8C 30E0              ldi R19,>L166
 0C8E 02E0              ldi R16,2
 0C90 0E940000          xcall _lcd_write_str_con
 0C94                   .dbline 429
 0C94           ;                  break;
 0C94 1DC0              xjmp L162
 0C96           L167:
 0C96                   .dbline 431
 0C96           ;                case 2:
 0C96           ;                  lcd_write_str_con(2,"故障");
 0C96 20E0              ldi R18,<L37
 0C98 30E0              ldi R19,>L37
 0C9A 02E0              ldi R16,2
 0C9C 0E940000          xcall _lcd_write_str_con
 0CA0                   .dbline 432
 0CA0           ;                  break;
 0CA0 17C0              xjmp L162
 0CA2           L168:
 0CA2                   .dbline 434
 0CA2           ;                case 3:
 0CA2           ;                  lcd_write_str_con(2,"暂停");
 0CA2 20E0              ldi R18,<L39
 0CA4 30E0              ldi R19,>L39
 0CA6 02E0              ldi R16,2
 0CA8 0E940000          xcall _lcd_write_str_con
 0CAC                   .dbline 435
 0CAC           ;                  break;
 0CAC 11C0              xjmp L162
 0CAE           L169:
 0CAE                   .dbline 437
 0CAE           ;                case 4:
 0CAE           ;                  lcd_write_str_con(2,"结束");
 0CAE 20E0              ldi R18,<L41
 0CB0 30E0              ldi R19,>L41
 0CB2 02E0              ldi R16,2
 0CB4 0E940000          xcall _lcd_write_str_con
 0CB8                   .dbline 438
 0CB8           ;                  break;
 0CB8 0BC0              xjmp L162
 0CBA           L170:
 0CBA                   .dbline 440
 0CBA           ;                case 5:
 0CBA           ;                  lcd_write_str_con(2,"等待");
 0CBA 20E0              ldi R18,<L43
 0CBC 30E0              ldi R19,>L43
 0CBE 02E0              ldi R16,2
 0CC0 0E940000          xcall _lcd_write_str_con
 0CC4                   .dbline 441
 0CC4           ;                  break;
 0CC4 05C0              xjmp L162
 0CC6           L171:
 0CC6                   .dbline 443
 0CC6           ;                case 6:
 0CC6           ;                  lcd_write_str_con(2,"暂停");
 0CC6 20E0              ldi R18,<L39
 0CC8 30E0              ldi R19,>L39
 0CCA 02E0              ldi R16,2
 0CCC 0E940000          xcall _lcd_write_str_con
 0CD0                   .dbline 444
 0CD0           ;                  break;
 0CD0                   .dbline 445
 0CD0           ;                  break;
 0CD0                   .dbline 447
 0CD0           ;                default:
 0CD0           ;                  break;
 0CD0           L162:
 0CD0                   .dbline 450
 0CD0           ;          }
 0CD0           ;       
 0CD0           ;       keyV=KeyScan_once();  
 0CD0 0E940000          xcall _KeyScan_once
 0CD4 602F              mov R22,R16
 0CD6                   .dbline 451
 0CD6           ;         if(keyV=='e'){
 0CD6 0536              cpi R16,101
 0CD8 F9F4              brne L172
 0CDA           X103:
 0CDA                   .dbline 451
 0CDA                   .dbline 452
 0CDA           ;             Set_White_off(1,3,2);
 0CDA 82E0              ldi R24,2
 0CDC 8883              std y+0,R24
 0CDE 23E0              ldi R18,3
 0CE0 01E0              ldi R16,1
 0CE2 0E940000          xcall _Set_White_off
 0CE6                   .dbline 453
 0CE6           ;                 Set_White_off(4,3,5);
 0CE6 85E0              ldi R24,5
 0CE8 8883              std y+0,R24
 0CEA 23E0              ldi R18,3
 0CEC 04E0              ldi R16,4
 0CEE 0E940000          xcall _Set_White_off
 0CF2                   .dbline 454
 0CF2           ;                 Set_White_off(8,3,9);
 0CF2 89E0              ldi R24,9
 0CF4 8883              std y+0,R24
 0CF6 23E0              ldi R18,3
 0CF8 08E0              ldi R16,8
 0CFA 0E940000          xcall _Set_White_off
 0CFE                   .dbline 455
 0CFE           ;                 Set_White_off(11,3,12);
 0CFE 8CE0              ldi R24,12
 0D00 8883              std y+0,R24
 0D02 23E0              ldi R18,3
 0D04 0BE0              ldi R16,11
 0D06 0E940000          xcall _Set_White_off
 0D0A                   .dbline 456
 0D0A           ;                 pageNum=1;
 0D0A 81E0              ldi R24,1
 0D0C 90E0              ldi R25,0
 0D0E 90930100          sts _pageNum+1,R25
 0D12 80930000          sts _pageNum,R24
 0D16                   .dbline 457
 0D16           ;                 return;
 0D16 DEC0              xjmp L142
 0D18           L172:
 0D18                   .dbline 458
 0D18           ;         }else if(keyV=='l'){
 0D18 6C36              cpi R22,108
 0D1A D1F5              brne L174
 0D1C           X104:
 0D1C                   .dbline 458
 0D1C                   .dbline 459
 0D1C           ;            switch(cur){
 0D1C 4130              cpi R20,1
 0D1E E0E0              ldi R30,0
 0D20 5E07              cpc R21,R30
 0D22 49F0              breq L178
 0D24           X105:
 0D24 4230              cpi R20,2
 0D26 E0E0              ldi R30,0
 0D28 5E07              cpc R21,R30
 0D2A A1F0              breq L179
 0D2C           X106:
 0D2C 4330              cpi R20,3
 0D2E E0E0              ldi R30,0
 0D30 5E07              cpc R21,R30
 0D32 F9F0              breq L180
 0D34           X107:
 0D34 CEC0              xjmp L175
 0D36           L178:
 0D36                   .dbline 461
 0D36           ;                  case 1:
 0D36           ;                    Set_White_off(4,3,5);
 0D36 85E0              ldi R24,5
 0D38 8883              std y+0,R24
 0D3A 23E0              ldi R18,3
 0D3C 04E0              ldi R16,4
 0D3E 0E940000          xcall _Set_White_off
 0D42                   .dbline 462
 0D42           ;                    Set_White(1,3,2);
 0D42 82E0              ldi R24,2
 0D44 8883              std y+0,R24
 0D46 23E0              ldi R18,3
 0D48 01E0              ldi R16,1
 0D4A 0E940000          xcall _Set_White
 0D4E                   .dbline 463
 0D4E           ;                        cur=0;
 0D4E 4427              clr R20
 0D50 5527              clr R21
 0D52                   .dbline 464
 0D52           ;                    break;
 0D52 BFC0              xjmp L175
 0D54           L179:
 0D54                   .dbline 466
 0D54           ;                  case 2:
 0D54           ;                    Set_White_off(8,3,9);
 0D54 89E0              ldi R24,9
 0D56 8883              std y+0,R24
 0D58 23E0              ldi R18,3
 0D5A 08E0              ldi R16,8
 0D5C 0E940000          xcall _Set_White_off
 0D60                   .dbline 467
 0D60           ;                    Set_White(4,3,5);
 0D60 85E0              ldi R24,5
 0D62 8883              std y+0,R24
 0D64 23E0              ldi R18,3
 0D66 04E0              ldi R16,4
 0D68 0E940000          xcall _Set_White
 0D6C                   .dbline 468
 0D6C           ;                    cur=1;
 0D6C 41E0              ldi R20,1
 0D6E 50E0              ldi R21,0
 0D70                   .dbline 469
 0D70           ;                    break;
 0D70 B0C0              xjmp L175
 0D72           L180:
 0D72                   .dbline 471
 0D72           ;                  case 3:
 0D72           ;                    Set_White_off(11,3,12);
 0D72 8CE0              ldi R24,12
 0D74 8883              std y+0,R24
 0D76 23E0              ldi R18,3
 0D78 0BE0              ldi R16,11
 0D7A 0E940000          xcall _Set_White_off
 0D7E                   .dbline 472
 0D7E           ;                    Set_White(8,3,9);
 0D7E 89E0              ldi R24,9
 0D80 8883              std y+0,R24
 0D82 23E0              ldi R18,3
 0D84 08E0              ldi R16,8
 0D86 0E940000          xcall _Set_White
 0D8A                   .dbline 473
 0D8A           ;                    cur=2;
 0D8A 42E0              ldi R20,2
 0D8C 50E0              ldi R21,0
 0D8E                   .dbline 474
 0D8E           ;                    break;
 0D8E                   .dbline 476
 0D8E           ;                }
 0D8E           ;         }else if(keyV=='r'){
 0D8E A1C0              xjmp L175
 0D90           L174:
 0D90                   .dbline 476
 0D90 6237              cpi R22,114
 0D92 C9F5              brne L181
 0D94           X108:
 0D94                   .dbline 476
 0D94                   .dbline 477
 0D94           ;              switch(cur){
 0D94 4030              cpi R20,0
 0D96 4507              cpc R20,R21
 0D98 49F0              breq L185
 0D9A           X109:
 0D9A 4130              cpi R20,1
 0D9C E0E0              ldi R30,0
 0D9E 5E07              cpc R21,R30
 0DA0 A1F0              breq L186
 0DA2           X110:
 0DA2 4230              cpi R20,2
 0DA4 E0E0              ldi R30,0
 0DA6 5E07              cpc R21,R30
 0DA8 F9F0              breq L187
 0DAA           X111:
 0DAA 93C0              xjmp L182
 0DAC           L185:
 0DAC                   .dbline 479
 0DAC           ;                  case 0:
 0DAC           ;                    Set_White(4,3,5);
 0DAC 85E0              ldi R24,5
 0DAE 8883              std y+0,R24
 0DB0 23E0              ldi R18,3
 0DB2 04E0              ldi R16,4
 0DB4 0E940000          xcall _Set_White
 0DB8                   .dbline 480
 0DB8           ;                    Set_White_off(1,3,2);
 0DB8 82E0              ldi R24,2
 0DBA 8883              std y+0,R24
 0DBC 23E0              ldi R18,3
 0DBE 01E0              ldi R16,1
 0DC0 0E940000          xcall _Set_White_off
 0DC4                   .dbline 481
 0DC4           ;                        cur=1;
 0DC4 41E0              ldi R20,1
 0DC6 50E0              ldi R21,0
 0DC8                   .dbline 482
 0DC8           ;                    break;
 0DC8 84C0              xjmp L182
 0DCA           L186:
 0DCA                   .dbline 484
 0DCA           ;                  case 1:
 0DCA           ;                    Set_White(8,3,9);
 0DCA 89E0              ldi R24,9
 0DCC 8883              std y+0,R24
 0DCE 23E0              ldi R18,3
 0DD0 08E0              ldi R16,8
 0DD2 0E940000          xcall _Set_White
 0DD6                   .dbline 485
 0DD6           ;                    Set_White_off(4,3,5);
 0DD6 85E0              ldi R24,5
 0DD8 8883              std y+0,R24
 0DDA 23E0              ldi R18,3
 0DDC 04E0              ldi R16,4
 0DDE 0E940000          xcall _Set_White_off
 0DE2                   .dbline 486
 0DE2           ;                    cur=2;
 0DE2 42E0              ldi R20,2
 0DE4 50E0              ldi R21,0
 0DE6                   .dbline 487
 0DE6           ;                    break;
 0DE6 75C0              xjmp L182
 0DE8           L187:
 0DE8                   .dbline 489
 0DE8           ;                  case 2:
 0DE8           ;                    Set_White(11,3,12);
 0DE8 8CE0              ldi R24,12
 0DEA 8883              std y+0,R24
 0DEC 23E0              ldi R18,3
 0DEE 0BE0              ldi R16,11
 0DF0 0E940000          xcall _Set_White
 0DF4                   .dbline 490
 0DF4           ;                    Set_White_off(8,3,9);
 0DF4 89E0              ldi R24,9
 0DF6 8883              std y+0,R24
 0DF8 23E0              ldi R18,3
 0DFA 08E0              ldi R16,8
 0DFC 0E940000          xcall _Set_White_off
 0E00                   .dbline 491
 0E00           ;                    cur=3;
 0E00 43E0              ldi R20,3
 0E02 50E0              ldi R21,0
 0E04                   .dbline 492
 0E04           ;                    break;
 0E04                   .dbline 494
 0E04           ;                }
 0E04           ;         }else if(keyV=='t'){
 0E04 66C0              xjmp L182
 0E06           L181:
 0E06                   .dbline 494
 0E06 6437              cpi R22,116
 0E08 09F0              breq X120
 0E0A 42C0              xjmp L188
 0E0C           X120:
 0E0C           X112:
 0E0C                   .dbline 494
 0E0C                   .dbline 495
 0E0C           ;              switch(cur){
 0E0C 4030              cpi R20,0
 0E0E 4507              cpc R20,R21
 0E10 69F0              breq L192
 0E12           X113:
 0E12 4130              cpi R20,1
 0E14 E0E0              ldi R30,0
 0E16 5E07              cpc R21,R30
 0E18 B1F0              breq L193
 0E1A           X114:
 0E1A 4230              cpi R20,2
 0E1C E0E0              ldi R30,0
 0E1E 5E07              cpc R21,R30
 0E20 C9F0              breq L194
 0E22           X115:
 0E22 4330              cpi R20,3
 0E24 E0E0              ldi R30,0
 0E26 5E07              cpc R21,R30
 0E28 E1F0              breq L195
 0E2A           X116:
 0E2A 53C0              xjmp L189
 0E2C           L192:
 0E2C                   .dbline 497
 0E2C           ;                  case 0:
 0E2C           ;                    Set_White_off(1,3,2);
 0E2C 82E0              ldi R24,2
 0E2E 8883              std y+0,R24
 0E30 23E0              ldi R18,3
 0E32 01E0              ldi R16,1
 0E34 0E940000          xcall _Set_White_off
 0E38                   .dbline 498
 0E38           ;                        pageNum=4;
 0E38 84E0              ldi R24,4
 0E3A 90E0              ldi R25,0
 0E3C 90930100          sts _pageNum+1,R25
 0E40 80930000          sts _pageNum,R24
 0E44                   .dbline 499
 0E44           ;                    return;
 0E44 47C0              xjmp L142
 0E46           L193:
 0E46                   .dbline 502
 0E46           ;                  case 1:
 0E46           ;                    //运行操作
 0E46           ;                        set_start(pageParam[0]);
 0E46 00910000          lds R16,_pageParam
 0E4A 10910100          lds R17,_pageParam+1
 0E4E 0E940000          xcall _set_start
 0E52                   .dbline 503
 0E52           ;                    break;
 0E52 3FC0              xjmp L189
 0E54           L194:
 0E54                   .dbline 506
 0E54           ;                  case 2:
 0E54           ;                    //暂停操作
 0E54           ;                        set_stop(pageParam[0]);
 0E54 00910000          lds R16,_pageParam
 0E58 10910100          lds R17,_pageParam+1
 0E5C 0E940000          xcall _set_stop
 0E60                   .dbline 507
 0E60           ;                    break;
 0E60 38C0              xjmp L189
 0E62           L195:
 0E62                   .dbline 510
 0E62           ;                 case 3:
 0E62           ;                    //重置操作
 0E62           ;                        Set_White_off(11,3,12);
 0E62 8CE0              ldi R24,12
 0E64 8883              std y+0,R24
 0E66 23E0              ldi R18,3
 0E68 0BE0              ldi R16,11
 0E6A 0E940000          xcall _Set_White_off
 0E6E                   .dbline 511
 0E6E           ;                        pageParam[2]=1;//表示重置是温度数据的
 0E6E 81E0              ldi R24,1
 0E70 90E0              ldi R25,0
 0E72 90930500          sts _pageParam+4+1,R25
 0E76 80930400          sts _pageParam+4,R24
 0E7A                   .dbline 512
 0E7A           ;                        prePageNum=3;
 0E7A 83E0              ldi R24,3
 0E7C 90930100          sts _prePageNum+1,R25
 0E80 80930000          sts _prePageNum,R24
 0E84                   .dbline 513
 0E84           ;                    pageNum=7;
 0E84 87E0              ldi R24,7
 0E86 90930100          sts _pageNum+1,R25
 0E8A 80930000          sts _pageNum,R24
 0E8E                   .dbline 514
 0E8E           ;                    return;
 0E8E 22C0              xjmp L142
 0E90           L188:
 0E90                   .dbline 516
 0E90           ;                }
 0E90           ;         }else if(keyV=='s'){
 0E90 6337              cpi R22,115
 0E92 F9F4              brne L197
 0E94           X117:
 0E94                   .dbline 516
 0E94                   .dbline 517
 0E94           ;              Set_White_off(1,3,2);
 0E94 82E0              ldi R24,2
 0E96 8883              std y+0,R24
 0E98 23E0              ldi R18,3
 0E9A 01E0              ldi R16,1
 0E9C 0E940000          xcall _Set_White_off
 0EA0                   .dbline 518
 0EA0           ;                  Set_White_off(4,3,5);
 0EA0 85E0              ldi R24,5
 0EA2 8883              std y+0,R24
 0EA4 23E0              ldi R18,3
 0EA6 04E0              ldi R16,4
 0EA8 0E940000          xcall _Set_White_off
 0EAC                   .dbline 519
 0EAC           ;                  Set_White_off(8,3,9);
 0EAC 89E0              ldi R24,9
 0EAE 8883              std y+0,R24
 0EB0 23E0              ldi R18,3
 0EB2 08E0              ldi R16,8
 0EB4 0E940000          xcall _Set_White_off
 0EB8                   .dbline 520
 0EB8           ;                  Set_White_off(11,3,12);
 0EB8 8CE0              ldi R24,12
 0EBA 8883              std y+0,R24
 0EBC 23E0              ldi R18,3
 0EBE 0BE0              ldi R16,11
 0EC0 0E940000          xcall _Set_White_off
 0EC4                   .dbline 521
 0EC4           ;                       pageNum=4;
 0EC4 84E0              ldi R24,4
 0EC6 90E0              ldi R25,0
 0EC8 90930100          sts _pageNum+1,R25
 0ECC 80930000          sts _pageNum,R24
 0ED0                   .dbline 522
 0ED0           ;                    return;
 0ED0 01C0              xjmp L142
 0ED2           L197:
 0ED2           L189:
 0ED2           L182:
 0ED2           L175:
 0ED2                   .dbline 524
 0ED2           ;         }
 0ED2           ;       }
 0ED2           L150:
 0ED2                   .dbline 402
 0ED2 00CE              xjmp L149
 0ED4           X118:
 0ED4                   .dbline -2
 0ED4           L142:
 0ED4                   .dbline 0 ; func end
 0ED4 2296              adiw R28,2
 0ED6 0C940000          xjmp pop_xgsetF000
 0EDA                   .dbsym r cur 20 i
 0EDA                   .dbsym r keyV 22 c
 0EDA                   .dbend
 0EDA                   .dbfunc e page4_data _page4_data fV
 0EDA           ;           numL -> R14,R15
 0EDA           ;           numH -> R12,R13
 0EDA           ;       beginCur -> R20,R21
 0EDA           ;              i -> R22,R23
 0EDA           ;       dataCach -> R10,R11
 0EDA           ;              y -> y+12
                        .even
 0EDA           _page4_data::
 0EDA 0E940000          xcall push_arg4
 0EDE 0E940000          xcall push_xgsetF0FC
 0EE2 5901              movw R10,R18
 0EE4 2297              sbiw R28,2
 0EE6                   .dbline -1
 0EE6                   .dbline 527
 0EE6           ;  }
 0EE6           ;  //等下调用page_ac()函数改变ac写数据
 0EE6           ;  void page4_data(uint y,uint* dataCach){
 0EE6                   .dbline 528
 0EE6           ;       uint numH=0xA2;
 0EE6 82EA              ldi R24,162
 0EE8 90E0              ldi R25,0
 0EEA 6C01              movw R12,R24
 0EEC                   .dbline 529
 0EEC           ;       uint numL=0xC4;//带括号的123，低位加1是1、方便操作，需要加上即可
 0EEC 84EC              ldi R24,196
 0EEE 7C01              movw R14,R24
 0EF0                   .dbline 530
 0EF0           ;         uint i=0;
 0EF0 6627              clr R22
 0EF2 7727              clr R23
 0EF4                   .dbline 531
 0EF4           ;         uint beginCur=0;
 0EF4 4427              clr R20
 0EF6 5527              clr R21
 0EF8                   .dbline 533
 0EF8           ;     //这个判断需要些到读取值函数中去
 0EF8           ;        if(y<3){
 0EF8 8C85              ldd R24,y+12
 0EFA 9D85              ldd R25,y+13
 0EFC 8330              cpi R24,3
 0EFE E0E0              ldi R30,0
 0F00 9E07              cpc R25,R30
 0F02 30F5              brsh L200
 0F04           X121:
 0F04                   .dbline 533
 0F04                   .dbline 534
 0F04           ;          lcd_write_char(2,1,numH);
 0F04 C882              std y+0,R12
 0F06 21E0              ldi R18,1
 0F08 02E0              ldi R16,2
 0F0A 0E940000          xcall _lcd_write_char
 0F0E                   .dbline 535
 0F0E           ;        lcd_write_char_con(1,numL+1);
 0F0E 9701              movw R18,R14
 0F10 2F5F              subi R18,255  ; offset = 1
 0F12 3F4F              sbci R19,255
 0F14 01E0              ldi R16,1
 0F16 0E940000          xcall _lcd_write_char_con
 0F1A                   .dbline 536
 0F1A           ;          lcd_write_char(2,2,numH);
 0F1A C882              std y+0,R12
 0F1C 22E0              ldi R18,2
 0F1E 02E0              ldi R16,2
 0F20 0E940000          xcall _lcd_write_char
 0F24                   .dbline 537
 0F24           ;        lcd_write_char_con(2,numL+2);
 0F24 9701              movw R18,R14
 0F26 2E5F              subi R18,254  ; offset = 2
 0F28 3F4F              sbci R19,255
 0F2A 02E0              ldi R16,2
 0F2C 0E940000          xcall _lcd_write_char_con
 0F30                   .dbline 538
 0F30           ;        lcd_write_char(2,3,numH);
 0F30 C882              std y+0,R12
 0F32 23E0              ldi R18,3
 0F34 02E0              ldi R16,2
 0F36 0E940000          xcall _lcd_write_char
 0F3A                   .dbline 539
 0F3A           ;        lcd_write_char_con(3,numL+3);
 0F3A 9701              movw R18,R14
 0F3C 2D5F              subi R18,253  ; offset = 3
 0F3E 3F4F              sbci R19,255
 0F40 03E0              ldi R16,3
 0F42 0E940000          xcall _lcd_write_char_con
 0F46                   .dbline 540
 0F46           ;          y=0;
 0F46 0024              clr R0
 0F48 1124              clr R1
 0F4A 1D86              std y+13,R1
 0F4C 0C86              std y+12,R0
 0F4E                   .dbline 541
 0F4E           ;         }else if(y>=3 && y<6){
 0F4E 8FC0              xjmp L201
 0F50           L200:
 0F50                   .dbline 541
 0F50 8C85              ldd R24,y+12
 0F52 9D85              ldd R25,y+13
 0F54 8330              cpi R24,3
 0F56 E0E0              ldi R30,0
 0F58 9E07              cpc R25,R30
 0F5A 50F1              brlo L202
 0F5C           X122:
 0F5C 8630              cpi R24,6
 0F5E E0E0              ldi R30,0
 0F60 9E07              cpc R25,R30
 0F62 30F5              brsh L202
 0F64           X123:
 0F64                   .dbline 541
 0F64                   .dbline 542
 0F64           ;          lcd_write_char(2,1,numH);
 0F64 C882              std y+0,R12
 0F66 21E0              ldi R18,1
 0F68 02E0              ldi R16,2
 0F6A 0E940000          xcall _lcd_write_char
 0F6E                   .dbline 543
 0F6E           ;        lcd_write_char_con(1,numL+4);
 0F6E 9701              movw R18,R14
 0F70 2C5F              subi R18,252  ; offset = 4
 0F72 3F4F              sbci R19,255
 0F74 01E0              ldi R16,1
 0F76 0E940000          xcall _lcd_write_char_con
 0F7A                   .dbline 544
 0F7A           ;          lcd_write_char(2,2,numH);
 0F7A C882              std y+0,R12
 0F7C 22E0              ldi R18,2
 0F7E 02E0              ldi R16,2
 0F80 0E940000          xcall _lcd_write_char
 0F84                   .dbline 545
 0F84           ;        lcd_write_char_con(2,numL+5);
 0F84 9701              movw R18,R14
 0F86 2B5F              subi R18,251  ; offset = 5
 0F88 3F4F              sbci R19,255
 0F8A 02E0              ldi R16,2
 0F8C 0E940000          xcall _lcd_write_char_con
 0F90                   .dbline 546
 0F90           ;        lcd_write_char(2,3,numH);
 0F90 C882              std y+0,R12
 0F92 23E0              ldi R18,3
 0F94 02E0              ldi R16,2
 0F96 0E940000          xcall _lcd_write_char
 0F9A                   .dbline 547
 0F9A           ;        lcd_write_char_con(3,numL+6);
 0F9A 9701              movw R18,R14
 0F9C 2A5F              subi R18,250  ; offset = 6
 0F9E 3F4F              sbci R19,255
 0FA0 03E0              ldi R16,3
 0FA2 0E940000          xcall _lcd_write_char_con
 0FA6                   .dbline 548
 0FA6           ;          y=1;
 0FA6 81E0              ldi R24,1
 0FA8 90E0              ldi R25,0
 0FAA 9D87              std y+13,R25
 0FAC 8C87              std y+12,R24
 0FAE                   .dbline 549
 0FAE           ;         }else if(y>=6 && y<9){
 0FAE 5FC0              xjmp L203
 0FB0           L202:
 0FB0                   .dbline 549
 0FB0 8C85              ldd R24,y+12
 0FB2 9D85              ldd R25,y+13
 0FB4 8630              cpi R24,6
 0FB6 E0E0              ldi R30,0
 0FB8 9E07              cpc R25,R30
 0FBA 50F1              brlo L204
 0FBC           X124:
 0FBC 8930              cpi R24,9
 0FBE E0E0              ldi R30,0
 0FC0 9E07              cpc R25,R30
 0FC2 30F5              brsh L204
 0FC4           X125:
 0FC4                   .dbline 549
 0FC4                   .dbline 550
 0FC4           ;          lcd_write_char(2,1,numH);
 0FC4 C882              std y+0,R12
 0FC6 21E0              ldi R18,1
 0FC8 02E0              ldi R16,2
 0FCA 0E940000          xcall _lcd_write_char
 0FCE                   .dbline 551
 0FCE           ;        lcd_write_char_con(1,numL+7);
 0FCE 9701              movw R18,R14
 0FD0 295F              subi R18,249  ; offset = 7
 0FD2 3F4F              sbci R19,255
 0FD4 01E0              ldi R16,1
 0FD6 0E940000          xcall _lcd_write_char_con
 0FDA                   .dbline 552
 0FDA           ;          lcd_write_char(2,2,numH);
 0FDA C882              std y+0,R12
 0FDC 22E0              ldi R18,2
 0FDE 02E0              ldi R16,2
 0FE0 0E940000          xcall _lcd_write_char
 0FE4                   .dbline 553
 0FE4           ;        lcd_write_char_con(2,numL+8);
 0FE4 9701              movw R18,R14
 0FE6 285F              subi R18,248  ; offset = 8
 0FE8 3F4F              sbci R19,255
 0FEA 02E0              ldi R16,2
 0FEC 0E940000          xcall _lcd_write_char_con
 0FF0                   .dbline 554
 0FF0           ;        lcd_write_char(2,3,numH);
 0FF0 C882              std y+0,R12
 0FF2 23E0              ldi R18,3
 0FF4 02E0              ldi R16,2
 0FF6 0E940000          xcall _lcd_write_char
 0FFA                   .dbline 555
 0FFA           ;        lcd_write_char_con(3,numL+9);
 0FFA 9701              movw R18,R14
 0FFC 275F              subi R18,247  ; offset = 9
 0FFE 3F4F              sbci R19,255
 1000 03E0              ldi R16,3
 1002 0E940000          xcall _lcd_write_char_con
 1006                   .dbline 556
 1006           ;          y=2;
 1006 82E0              ldi R24,2
 1008 90E0              ldi R25,0
 100A 9D87              std y+13,R25
 100C 8C87              std y+12,R24
 100E                   .dbline 557
 100E           ;         }else if(y>=9 && y<12){
 100E 2FC0              xjmp L205
 1010           L204:
 1010                   .dbline 557
 1010 8C85              ldd R24,y+12
 1012 9D85              ldd R25,y+13
 1014 8930              cpi R24,9
 1016 E0E0              ldi R30,0
 1018 9E07              cpc R25,R30
 101A 48F1              brlo L206
 101C           X126:
 101C 8C30              cpi R24,12
 101E E0E0              ldi R30,0
 1020 9E07              cpc R25,R30
 1022 28F5              brsh L206
 1024           X127:
 1024                   .dbline 557
 1024                   .dbline 558
 1024           ;          lcd_write_char(2,1,numH);
 1024 C882              std y+0,R12
 1026 21E0              ldi R18,1
 1028 02E0              ldi R16,2
 102A 0E940000          xcall _lcd_write_char
 102E                   .dbline 559
 102E           ;        lcd_write_char_con(1,numL+10);
 102E 9701              movw R18,R14
 1030 265F              subi R18,246  ; offset = 10
 1032 3F4F              sbci R19,255
 1034 01E0              ldi R16,1
 1036 0E940000          xcall _lcd_write_char_con
 103A                   .dbline 560
 103A           ;          lcd_write_char(2,2,numH);
 103A C882              std y+0,R12
 103C 22E0              ldi R18,2
 103E 02E0              ldi R16,2
 1040 0E940000          xcall _lcd_write_char
 1044                   .dbline 561
 1044           ;        lcd_write_char_con(2,numL+11);
 1044 9701              movw R18,R14
 1046 255F              subi R18,245  ; offset = 11
 1048 3F4F              sbci R19,255
 104A 02E0              ldi R16,2
 104C 0E940000          xcall _lcd_write_char_con
 1050                   .dbline 562
 1050           ;        lcd_write_char(2,3,numH);
 1050 C882              std y+0,R12
 1052 23E0              ldi R18,3
 1054 02E0              ldi R16,2
 1056 0E940000          xcall _lcd_write_char
 105A                   .dbline 563
 105A           ;        lcd_write_char_con(3,numL+12);
 105A 9701              movw R18,R14
 105C 245F              subi R18,244  ; offset = 12
 105E 3F4F              sbci R19,255
 1060 03E0              ldi R16,3
 1062 0E940000          xcall _lcd_write_char_con
 1066                   .dbline 564
 1066           ;          y=3;
 1066 83E0              ldi R24,3
 1068 90E0              ldi R25,0
 106A 9D87              std y+13,R25
 106C 8C87              std y+12,R24
 106E                   .dbline 565
 106E           ;         }
 106E           L206:
 106E           L205:
 106E           L203:
 106E           L201:
 106E                   .dbline 567
 106E           ;         //还要做数据读取操作
 106E           ;         beginCur=y*33;//获得首个数据
 106E 01E2              ldi R16,33
 1070 10E0              ldi R17,0
 1072 2C85              ldd R18,y+12
 1074 3D85              ldd R19,y+13
 1076 0E940000          xcall empy16s
 107A A801              movw R20,R16
 107C                   .dbline 568
 107C           ;         for(i=1;i<=3;i++){
 107C 61E0              ldi R22,1
 107E 70E0              ldi R23,0
 1080 C5C0              xjmp L211
 1082           L208:
 1082                   .dbline 568
 1082                   .dbline 569
 1082           ;           if(i==1){//第一次进入需要判断，首位写不许用++
 1082 6130              cpi R22,1
 1084 E0E0              ldi R30,0
 1086 7E07              cpc R23,R30
 1088 71F4              brne L212
 108A           X128:
 108A                   .dbline 569
 108A                   .dbline 570
 108A           ;                lcd_write_char(3,i,0x30 | *(dataCach+beginCur));
 108A FA01              movw R30,R20
 108C EE0F              lsl R30
 108E FF1F              rol R31
 1090 EA0D              add R30,R10
 1092 FB1D              adc R31,R11
 1094 8081              ldd R24,z+0
 1096 9181              ldd R25,z+1
 1098 8063              ori R24,48
 109A 8883              std y+0,R24
 109C 262F              mov R18,R22
 109E 03E0              ldi R16,3
 10A0 0E940000          xcall _lcd_write_char
 10A4                   .dbline 571
 10A4           ;               }else{
 10A4 10C0              xjmp L213
 10A6           L212:
 10A6                   .dbline 571
 10A6                   .dbline 572
 10A6           ;                lcd_write_char(3,i,0x30 | *(dataCach+(++beginCur)));
 10A6 CA01              movw R24,R20
 10A8 0196              adiw R24,1
 10AA AC01              movw R20,R24
 10AC FC01              movw R30,R24
 10AE EE0F              lsl R30
 10B0 FF1F              rol R31
 10B2 EA0D              add R30,R10
 10B4 FB1D              adc R31,R11
 10B6 8081              ldd R24,z+0
 10B8 9181              ldd R25,z+1
 10BA 8063              ori R24,48
 10BC 8883              std y+0,R24
 10BE 262F              mov R18,R22
 10C0 03E0              ldi R16,3
 10C2 0E940000          xcall _lcd_write_char
 10C6                   .dbline 573
 10C6           ;               }
 10C6           L213:
 10C6                   .dbline 574
 10C6           ;         lcd_write_char_con(i,0x30 | *(dataCach+(++beginCur)));
 10C6 CA01              movw R24,R20
 10C8 0196              adiw R24,1
 10CA AC01              movw R20,R24
 10CC FC01              movw R30,R24
 10CE EE0F              lsl R30
 10D0 FF1F              rol R31
 10D2 EA0D              add R30,R10
 10D4 FB1D              adc R31,R11
 10D6 2081              ldd R18,z+0
 10D8 3181              ldd R19,z+1
 10DA 2063              ori R18,48
 10DC 062F              mov R16,R22
 10DE 0E940000          xcall _lcd_write_char_con
 10E2                   .dbline 575
 10E2           ;                lcd_write_str_con(i,": ");
 10E2 20E0              ldi R18,<L214
 10E4 30E0              ldi R19,>L214
 10E6 062F              mov R16,R22
 10E8 0E940000          xcall _lcd_write_str_con
 10EC                   .dbline 576
 10EC           ;            lcd_write_char_con(i,0x30 | *(dataCach+(++beginCur)));
 10EC CA01              movw R24,R20
 10EE 0196              adiw R24,1
 10F0 AC01              movw R20,R24
 10F2 FC01              movw R30,R24
 10F4 EE0F              lsl R30
 10F6 FF1F              rol R31
 10F8 EA0D              add R30,R10
 10FA FB1D              adc R31,R11
 10FC 2081              ldd R18,z+0
 10FE 3181              ldd R19,z+1
 1100 2063              ori R18,48
 1102 062F              mov R16,R22
 1104 0E940000          xcall _lcd_write_char_con
 1108                   .dbline 577
 1108           ;                lcd_write_char_con(i,0x30 | *(dataCach+(++beginCur)));
 1108 CA01              movw R24,R20
 110A 0196              adiw R24,1
 110C AC01              movw R20,R24
 110E FC01              movw R30,R24
 1110 EE0F              lsl R30
 1112 FF1F              rol R31
 1114 EA0D              add R30,R10
 1116 FB1D              adc R31,R11
 1118 2081              ldd R18,z+0
 111A 3181              ldd R19,z+1
 111C 2063              ori R18,48
 111E 062F              mov R16,R22
 1120 0E940000          xcall _lcd_write_char_con
 1124                   .dbline 579
 1124           ;                
 1124           ;                lcd_write_char(7,i,0x30 | *(dataCach+(++beginCur)));
 1124 CA01              movw R24,R20
 1126 0196              adiw R24,1
 1128 AC01              movw R20,R24
 112A FC01              movw R30,R24
 112C EE0F              lsl R30
 112E FF1F              rol R31
 1130 EA0D              add R30,R10
 1132 FB1D              adc R31,R11
 1134 8081              ldd R24,z+0
 1136 9181              ldd R25,z+1
 1138 8063              ori R24,48
 113A 8883              std y+0,R24
 113C 262F              mov R18,R22
 113E 07E0              ldi R16,7
 1140 0E940000          xcall _lcd_write_char
 1144                   .dbline 580
 1144           ;                lcd_write_char_con(i,0x30 | *(dataCach+(++beginCur)));
 1144 CA01              movw R24,R20
 1146 0196              adiw R24,1
 1148 AC01              movw R20,R24
 114A FC01              movw R30,R24
 114C EE0F              lsl R30
 114E FF1F              rol R31
 1150 EA0D              add R30,R10
 1152 FB1D              adc R31,R11
 1154 2081              ldd R18,z+0
 1156 3181              ldd R19,z+1
 1158 2063              ori R18,48
 115A 062F              mov R16,R22
 115C 0E940000          xcall _lcd_write_char_con
 1160                   .dbline 581
 1160           ;                 lcd_write_str_con(i,": ");
 1160 20E0              ldi R18,<L214
 1162 30E0              ldi R19,>L214
 1164 062F              mov R16,R22
 1166 0E940000          xcall _lcd_write_str_con
 116A                   .dbline 582
 116A           ;                lcd_write_char_con(i,0x30 | *(dataCach+(++beginCur)));
 116A CA01              movw R24,R20
 116C 0196              adiw R24,1
 116E AC01              movw R20,R24
 1170 FC01              movw R30,R24
 1172 EE0F              lsl R30
 1174 FF1F              rol R31
 1176 EA0D              add R30,R10
 1178 FB1D              adc R31,R11
 117A 2081              ldd R18,z+0
 117C 3181              ldd R19,z+1
 117E 2063              ori R18,48
 1180 062F              mov R16,R22
 1182 0E940000          xcall _lcd_write_char_con
 1186                   .dbline 583
 1186           ;                lcd_write_char_con(i,0x30 | *(dataCach+(++beginCur)));
 1186 CA01              movw R24,R20
 1188 0196              adiw R24,1
 118A AC01              movw R20,R24
 118C FC01              movw R30,R24
 118E EE0F              lsl R30
 1190 FF1F              rol R31
 1192 EA0D              add R30,R10
 1194 FB1D              adc R31,R11
 1196 2081              ldd R18,z+0
 1198 3181              ldd R19,z+1
 119A 2063              ori R18,48
 119C 062F              mov R16,R22
 119E 0E940000          xcall _lcd_write_char_con
 11A2                   .dbline 585
 11A2           ;                
 11A2           ;                lcd_write_str(10,i," ");
 11A2 80E0              ldi R24,<L215
 11A4 90E0              ldi R25,>L215
 11A6 9983              std y+1,R25
 11A8 8883              std y+0,R24
 11AA 262F              mov R18,R22
 11AC 0AE0              ldi R16,10
 11AE 0E940000          xcall _lcd_write_str
 11B2                   .dbline 586
 11B2           ;                lcd_write_char_con(i,0x30 | *(dataCach+(++beginCur)));
 11B2 CA01              movw R24,R20
 11B4 0196              adiw R24,1
 11B6 AC01              movw R20,R24
 11B8 FC01              movw R30,R24
 11BA EE0F              lsl R30
 11BC FF1F              rol R31
 11BE EA0D              add R30,R10
 11C0 FB1D              adc R31,R11
 11C2 2081              ldd R18,z+0
 11C4 3181              ldd R19,z+1
 11C6 2063              ori R18,48
 11C8 062F              mov R16,R22
 11CA 0E940000          xcall _lcd_write_char_con
 11CE                   .dbline 587
 11CE           ;                lcd_write_char_con(i,0x30 | *(dataCach+(++beginCur)));
 11CE CA01              movw R24,R20
 11D0 0196              adiw R24,1
 11D2 AC01              movw R20,R24
 11D4 FC01              movw R30,R24
 11D6 EE0F              lsl R30
 11D8 FF1F              rol R31
 11DA EA0D              add R30,R10
 11DC FB1D              adc R31,R11
 11DE 2081              ldd R18,z+0
 11E0 3181              ldd R19,z+1
 11E2 2063              ori R18,48
 11E4 062F              mov R16,R22
 11E6 0E940000          xcall _lcd_write_char_con
 11EA                   .dbline 588
 11EA           ;                lcd_write_char_con(i,0x30 | *(dataCach+(++beginCur)));
 11EA CA01              movw R24,R20
 11EC 0196              adiw R24,1
 11EE 6C01              movw R12,R24
 11F0 AC01              movw R20,R24
 11F2 FC01              movw R30,R24
 11F4 EE0F              lsl R30
 11F6 FF1F              rol R31
 11F8 EA0D              add R30,R10
 11FA FB1D              adc R31,R11
 11FC 2081              ldd R18,z+0
 11FE 3181              ldd R19,z+1
 1200 2063              ori R18,48
 1202 062F              mov R16,R22
 1204 0E940000          xcall _lcd_write_char_con
 1208                   .dbline 589
 1208           ;         }
 1208           L209:
 1208                   .dbline 568
 1208 6F5F              subi R22,255  ; offset = 1
 120A 7F4F              sbci R23,255
 120C           L211:
 120C                   .dbline 568
 120C 83E0              ldi R24,3
 120E 90E0              ldi R25,0
 1210 8617              cp R24,R22
 1212 9707              cpc R25,R23
 1214 08F0              brlo X130
 1216 35CF              xjmp L208
 1218           X130:
 1218           X129:
 1218                   .dbline -2
 1218           L199:
 1218                   .dbline 0 ; func end
 1218 2296              adiw R28,2
 121A 0E940000          xcall pop_xgsetF0FC
 121E 2496              adiw R28,4
 1220 0895              ret
 1222                   .dbsym r numL 14 i
 1222                   .dbsym r numH 12 i
 1222                   .dbsym r beginCur 20 i
 1222                   .dbsym r i 22 i
 1222                   .dbsym r dataCach 10 pi
 1222                   .dbsym l y 12 i
 1222                   .dbend
 1222                   .dbfunc e page4_ac _page4_ac fV
 1222           ;              y -> R10,R11
 1222           ;              x -> R22,R23
 1222           ;          lcd_y -> R20,R21
 1222           ;       dataCach -> R12,R13
 1222           ;         oldcur -> y+12
 1222           ;            cur -> y+10
                        .even
 1222           _page4_ac::
 1222 0E940000          xcall push_arg4
 1226 0E940000          xcall push_xgsetF0FC
 122A CE84              ldd R12,y+14
 122C DF84              ldd R13,y+15
 122E                   .dbline -1
 122E                   .dbline 593
 122E           ;         
 122E           ;  }
 122E           ;  //传入cur做ac位置操作,判断是否翻页
 122E           ;  void page4_ac(uint cur,uint oldcur,uint* dataCach){
 122E                   .dbline 594
 122E           ;       uint y=cur/11;//逻辑y.从0开始
 122E 2BE0              ldi R18,11
 1230 30E0              ldi R19,0
 1232 0A85              ldd R16,y+10
 1234 1B85              ldd R17,y+11
 1236 0E940000          xcall div16u
 123A 5801              movw R10,R16
 123C                   .dbline 596
 123C           ;         uint lcd_y;//显示y
 123C           ;         uint x=cur%11;//x轴
 123C 2BE0              ldi R18,11
 123E 30E0              ldi R19,0
 1240 0A85              ldd R16,y+10
 1242 1B85              ldd R17,y+11
 1244 0E940000          xcall mod16u
 1248 B801              movw R22,R16
 124A                   .dbline 597
 124A           ;         switch(y%3){
 124A 23E0              ldi R18,3
 124C 30E0              ldi R19,0
 124E 8501              movw R16,R10
 1250 0E940000          xcall mod16u
 1254 7801              movw R14,R16
 1256 0030              cpi R16,0
 1258 0107              cpc R16,R17
 125A 51F0              breq L220
 125C           X131:
 125C C701              movw R24,R14
 125E 0130              cpi R16,1
 1260 E0E0              ldi R30,0
 1262 1E07              cpc R17,R30
 1264 41F0              breq L221
 1266           X132:
 1266 0230              cpi R16,2
 1268 E0E0              ldi R30,0
 126A 1E07              cpc R17,R30
 126C 39F0              breq L222
 126E           X133:
 126E 08C0              xjmp L217
 1270           L220:
 1270                   .dbline 599
 1270           ;          case 0://1行
 1270           ;            lcd_y=1;
 1270 41E0              ldi R20,1
 1272 50E0              ldi R21,0
 1274                   .dbline 600
 1274           ;            break;
 1274 05C0              xjmp L218
 1276           L221:
 1276                   .dbline 602
 1276           ;          case 1://2行
 1276           ;            lcd_y=2;
 1276 42E0              ldi R20,2
 1278 50E0              ldi R21,0
 127A                   .dbline 603
 127A           ;                break;
 127A 02C0              xjmp L218
 127C           L222:
 127C                   .dbline 605
 127C           ;          case 2://3行
 127C           ;            lcd_y=3;
 127C 43E0              ldi R20,3
 127E 50E0              ldi R21,0
 1280                   .dbline 606
 1280           ;            break;
 1280           L217:
 1280           L218:
 1280                   .dbline 608
 1280           ;         }
 1280           ;         switch((oldcur/11)/3){
 1280 2BE0              ldi R18,11
 1282 30E0              ldi R19,0
 1284 0C85              ldd R16,y+12
 1286 1D85              ldd R17,y+13
 1288 0E940000          xcall div16u
 128C 23E0              ldi R18,3
 128E 30E0              ldi R19,0
 1290 0E940000          xcall div16u
 1294 7801              movw R14,R16
 1296 0030              cpi R16,0
 1298 0107              cpc R16,R17
 129A 71F0              breq L226
 129C           X134:
 129C C701              movw R24,R14
 129E 0130              cpi R16,1
 12A0 E0E0              ldi R30,0
 12A2 1E07              cpc R17,R30
 12A4 A1F0              breq L229
 12A6           X135:
 12A6 0230              cpi R16,2
 12A8 E0E0              ldi R30,0
 12AA 1E07              cpc R17,R30
 12AC 01F1              breq L233
 12AE           X136:
 12AE 0330              cpi R16,3
 12B0 E0E0              ldi R30,0
 12B2 1E07              cpc R17,R30
 12B4 69F1              breq L237
 12B6           X137:
 12B6 35C0              xjmp L223
 12B8           L226:
 12B8                   .dbline 610
 12B8           ;           case 0:
 12B8           ;                if(cur>32){
 12B8 80E2              ldi R24,32
 12BA 90E0              ldi R25,0
 12BC 0A84              ldd R0,y+10
 12BE 1B84              ldd R1,y+11
 12C0 8015              cp R24,R0
 12C2 9105              cpc R25,R1
 12C4 70F5              brsh L224
 12C6           X138:
 12C6                   .dbline 610
 12C6                   .dbline 611
 12C6           ;                  page4_data(y,dataCach);
 12C6 9601              movw R18,R12
 12C8 8501              movw R16,R10
 12CA 07DE              xcall _page4_data
 12CC                   .dbline 612
 12CC           ;                }
 12CC                   .dbline 613
 12CC           ;                break;
 12CC 2AC0              xjmp L224
 12CE           L229:
 12CE                   .dbline 615
 12CE           ;               case 1:
 12CE           ;                 if(cur>65 || cur<33){
 12CE 81E4              ldi R24,65
 12D0 90E0              ldi R25,0
 12D2 0A84              ldd R0,y+10
 12D4 1B84              ldd R1,y+11
 12D6 8015              cp R24,R0
 12D8 9105              cpc R25,R1
 12DA 28F0              brlo L232
 12DC           X139:
 12DC C001              movw R24,R0
 12DE 8132              cpi R24,33
 12E0 E0E0              ldi R30,0
 12E2 9E07              cpc R25,R30
 12E4 F0F4              brsh L224
 12E6           X140:
 12E6           L232:
 12E6                   .dbline 615
 12E6                   .dbline 616
 12E6           ;                  page4_data(y,dataCach);
 12E6 9601              movw R18,R12
 12E8 8501              movw R16,R10
 12EA F7DD              xcall _page4_data
 12EC                   .dbline 617
 12EC           ;                }
 12EC                   .dbline 618
 12EC           ;                break;
 12EC 1AC0              xjmp L224
 12EE           L233:
 12EE                   .dbline 620
 12EE           ;               case 2:
 12EE           ;               if(cur<66 || cur>98){
 12EE 8A85              ldd R24,y+10
 12F0 9B85              ldd R25,y+11
 12F2 8234              cpi R24,66
 12F4 E0E0              ldi R30,0
 12F6 9E07              cpc R25,R30
 12F8 38F0              brlo L236
 12FA           X141:
 12FA 82E6              ldi R24,98
 12FC 90E0              ldi R25,0
 12FE 0A84              ldd R0,y+10
 1300 1B84              ldd R1,y+11
 1302 8015              cp R24,R0
 1304 9105              cpc R25,R1
 1306 68F4              brsh L224
 1308           X142:
 1308           L236:
 1308                   .dbline 620
 1308                   .dbline 621
 1308           ;                  page4_data(y,dataCach);
 1308 9601              movw R18,R12
 130A 8501              movw R16,R10
 130C E6DD              xcall _page4_data
 130E                   .dbline 622
 130E           ;                }
 130E                   .dbline 623
 130E           ;                break;
 130E 09C0              xjmp L224
 1310           L237:
 1310                   .dbline 625
 1310           ;               case 3:
 1310           ;               if(cur<99){
 1310 8A85              ldd R24,y+10
 1312 9B85              ldd R25,y+11
 1314 8336              cpi R24,99
 1316 E0E0              ldi R30,0
 1318 9E07              cpc R25,R30
 131A 18F4              brsh L224
 131C           X143:
 131C                   .dbline 625
 131C                   .dbline 626
 131C           ;                  page4_data(y,dataCach);
 131C 9601              movw R18,R12
 131E 8501              movw R16,R10
 1320 DCDD              xcall _page4_data
 1322                   .dbline 627
 1322           ;                }
 1322                   .dbline 628
 1322           ;                break;
 1322           L223:
 1322           L224:
 1322                   .dbline 630
 1322           ;         }
 1322           ;         if(lcd_y==1){
 1322 4130              cpi R20,1
 1324 E0E0              ldi R30,0
 1326 5E07              cpc R21,R30
 1328 49F4              brne L240
 132A           X144:
 132A                   .dbline 630
 132A                   .dbline 631
 132A           ;            cur_set(3);
 132A 03E0              ldi R16,3
 132C 10E0              ldi R17,0
 132E 0E940000          xcall _cur_set
 1332                   .dbline 632
 1332           ;                cur_set(4);
 1332 04E0              ldi R16,4
 1334 10E0              ldi R17,0
 1336 0E940000          xcall _cur_set
 133A                   .dbline 633
 133A           ;         }else if(lcd_y==2 || lcd_y==3){
 133A 10C0              xjmp L241
 133C           L240:
 133C                   .dbline 633
 133C 4230              cpi R20,2
 133E E0E0              ldi R30,0
 1340 5E07              cpc R21,R30
 1342 21F0              breq L244
 1344           X145:
 1344 4330              cpi R20,3
 1346 E0E0              ldi R30,0
 1348 5E07              cpc R21,R30
 134A 41F4              brne L242
 134C           X146:
 134C           L244:
 134C                   .dbline 633
 134C                   .dbline 634
 134C           ;            cur_set(0);
 134C 0027              clr R16
 134E 1127              clr R17
 1350 0E940000          xcall _cur_set
 1354                   .dbline 635
 1354           ;                cur_set(7);
 1354 07E0              ldi R16,7
 1356 10E0              ldi R17,0
 1358 0E940000          xcall _cur_set
 135C                   .dbline 636
 135C           ;         }
 135C           L242:
 135C           L241:
 135C                   .dbline 637
 135C           ;         if(x==0){
 135C 6030              cpi R22,0
 135E 6707              cpc R22,R23
 1360 29F4              brne L245
 1362           X147:
 1362                   .dbline 637
 1362                   .dbline 638
 1362           ;             lcd_write_pos(3,lcd_y);
 1362 242F              mov R18,R20
 1364 03E0              ldi R16,3
 1366 0E940000          xcall _lcd_write_pos
 136A                   .dbline 639
 136A           ;         }else if(x==2){
 136A 31C0              xjmp L216
 136C           L245:
 136C                   .dbline 639
 136C 6230              cpi R22,2
 136E E0E0              ldi R30,0
 1370 7E07              cpc R23,R30
 1372 29F4              brne L247
 1374           X148:
 1374                   .dbline 639
 1374                   .dbline 640
 1374           ;              lcd_write_pos(5,lcd_y);
 1374 242F              mov R18,R20
 1376 05E0              ldi R16,5
 1378 0E940000          xcall _lcd_write_pos
 137C                   .dbline 641
 137C           ;         }else if(x==4){
 137C 28C0              xjmp L216
 137E           L247:
 137E                   .dbline 641
 137E 6430              cpi R22,4
 1380 E0E0              ldi R30,0
 1382 7E07              cpc R23,R30
 1384 29F4              brne L249
 1386           X149:
 1386                   .dbline 641
 1386                   .dbline 642
 1386           ;               lcd_write_pos(7,lcd_y);
 1386 242F              mov R18,R20
 1388 07E0              ldi R16,7
 138A 0E940000          xcall _lcd_write_pos
 138E                   .dbline 643
 138E           ;         }else if(x==6){
 138E 1FC0              xjmp L216
 1390           L249:
 1390                   .dbline 643
 1390 6630              cpi R22,6
 1392 E0E0              ldi R30,0
 1394 7E07              cpc R23,R30
 1396 29F4              brne L251
 1398           X150:
 1398                   .dbline 643
 1398                   .dbline 644
 1398           ;               lcd_write_pos(9,lcd_y);
 1398 242F              mov R18,R20
 139A 09E0              ldi R16,9
 139C 0E940000          xcall _lcd_write_pos
 13A0                   .dbline 645
 13A0           ;         }else if(x==8){
 13A0 16C0              xjmp L216
 13A2           L251:
 13A2                   .dbline 645
 13A2 6830              cpi R22,8
 13A4 E0E0              ldi R30,0
 13A6 7E07              cpc R23,R30
 13A8 51F4              brne L253
 13AA           X151:
 13AA                   .dbline 645
 13AA                   .dbline 646
 13AA           ;               lcd_write_pos(10,lcd_y);
 13AA 242F              mov R18,R20
 13AC 0AE0              ldi R16,10
 13AE 0E940000          xcall _lcd_write_pos
 13B2                   .dbline 647
 13B2           ;                       lcd_write_str_con(lcd_y," ");
 13B2 20E0              ldi R18,<L215
 13B4 30E0              ldi R19,>L215
 13B6 042F              mov R16,R20
 13B8 0E940000          xcall _lcd_write_str_con
 13BC                   .dbline 648
 13BC           ;         }else if(x==9){
 13BC 08C0              xjmp L216
 13BE           L253:
 13BE                   .dbline 648
 13BE 6930              cpi R22,9
 13C0 E0E0              ldi R30,0
 13C2 7E07              cpc R23,R30
 13C4 21F4              brne L216
 13C6           X152:
 13C6                   .dbline 648
 13C6                   .dbline 649
 13C6           ;               lcd_write_pos(11,lcd_y);
 13C6 242F              mov R18,R20
 13C8 0BE0              ldi R16,11
 13CA 0E940000          xcall _lcd_write_pos
 13CE                   .dbline 650
 13CE           ;         }
 13CE                   .dbline 651
 13CE           ;         return;
 13CE                   .dbline -2
 13CE           L216:
 13CE                   .dbline 0 ; func end
 13CE 0E940000          xcall pop_xgsetF0FC
 13D2 2496              adiw R28,4
 13D4 0895              ret
 13D6                   .dbsym r y 10 i
 13D6                   .dbsym r x 22 i
 13D6                   .dbsym r lcd_y 20 i
 13D6                   .dbsym r dataCach 12 pi
 13D6                   .dbsym l oldcur 12 i
 13D6                   .dbsym l cur 10 i
 13D6                   .dbend
                        .area data(ram, con, rel)
 0000                   .dbfile E:\ICCDemo\Temp_Control\temp_control\pages.c
 0000           L258:
 0000                   .blkb 2
                        .area idata
 0000 0000              .word 0
                        .area data(ram, con, rel)
 0002                   .dbfile E:\ICCDemo\Temp_Control\temp_control\pages.c
 0002                   .blkb 260
                        .area idata
 0002 000000000000000000000000000000000000000000000000000000000000000000000000000000000000000000000000000000000000000000000000  .word 0,0,0,0,0,0,0,0,0,0,0,0,0,0,0,0,0,0,0,0,0,0,0,0,0,0,0,0,0,0
 003E 000000000000000000000000000000000000000000000000000000000000000000000000000000000000000000000000000000000000000000000000  .word 0,0,0,0,0,0,0,0,0,0,0,0,0,0,0,0,0,0,0,0,0,0,0,0,0,0,0,0,0,0
 007A 000000000000000000000000000000000000000000000000000000000000000000000000000000000000000000000000000000000000000000000000  .word 0,0,0,0,0,0,0,0,0,0,0,0,0,0,0,0,0,0,0,0,0,0,0,0,0,0,0,0,0,0
 00B6 000000000000000000000000000000000000000000000000000000000000000000000000000000000000000000000000000000000000000000000000  .word 0,0,0,0,0,0,0,0,0,0,0,0,0,0,0,0,0,0,0,0,0,0,0,0,0,0,0,0,0,0
 00F2 00000000000000000000      .word 0,0,0,0,0
 00FC 00000000000000000000      .byte 0,0,0,0,0,0,0,0,0,0
                        .area data(ram, con, rel)
 0106                   .dbfile E:\ICCDemo\Temp_Control\temp_control\pages.c
                        .area text(rom, con, rel)
 13D6                   .dbfile E:\ICCDemo\Temp_Control\temp_control\pages.c
 13D6                   .dbfunc e page4 _page4 fV
 13D6           ;           numL -> R20,R21
 13D6           ;           numH -> R20,R21
 13D6           ;         oldcur -> R22,R23
 13D6           ;       dataCach -> y+2
 13D6           ;            cur -> R20,R21
 13D6           ;           keyV -> R10
 13D6           ;              i -> R10,R11
                        .even
 13D6           _page4::
 13D6 0E940000          xcall push_xgsetF03C
 13DA EF97              sbiw R28,63
 13DC EF97              sbiw R28,63
 13DE EF97              sbiw R28,63
 13E0 EF97              sbiw R28,63
 13E2 2C97              sbiw R28,12  ; offset = 264
 13E4                   .dbline -1
 13E4                   .dbline 653
 13E4           ;  }
 13E4           ;   void page4(void){
 13E4                   .dbline 655
 13E4           ;     //定义一个局部的结构体，从对呀温度中获得数据。暂时未写
 13E4           ;   uint numH=0xA2;
 13E4                   .dbline 656
 13E4           ;   uint numL=0xC4;//带括号的123，低位加1是1、方便操作，需要加上即可
 13E4                   .dbline 657
 13E4           ;   uint cur=0;
 13E4 4427              clr R20
 13E6 5527              clr R21
 13E8                   .dbline 658
 13E8           ;   uint oldcur=0;
 13E8 6627              clr R22
 13EA 7727              clr R23
 13EC                   .dbline 659
 13EC           ;   uint dataCach[131]={0};
 13EC 80E0              ldi R24,<L258
 13EE 90E0              ldi R25,>L258
 13F0 FE01              movw R30,R28
 13F2 3296              adiw R30,2
 13F4 06E0              ldi R16,262
 13F6 11E0              ldi R17,1
 13F8 FA93              st -y,R31
 13FA EA93              st -y,R30
 13FC 9A93              st -y,R25
 13FE 8A93              st -y,R24
 1400 0E940000          xcall asgnblk
 1404                   .dbline 660
 1404           ;   uint i=0;
 1404                   .dbline 662
 1404           ;    uchar keyV;
 1404           ;    lcd_write_str(0,0,"T");
 1404 80E0              ldi R24,<L143
 1406 90E0              ldi R25,>L143
 1408 9983              std y+1,R25
 140A 8883              std y+0,R24
 140C 2227              clr R18
 140E 0027              clr R16
 1410 0E940000          xcall _lcd_write_str
 1414                   .dbline 663
 1414           ;    lcd_write_char_con(0,0x30 | (pageParam[0]+1));
 1414 20910000          lds R18,_pageParam
 1418 30910100          lds R19,_pageParam+1
 141C 2F5F              subi R18,255  ; offset = 1
 141E 3F4F              sbci R19,255
 1420 2063              ori R18,48
 1422 0027              clr R16
 1424 0E940000          xcall _lcd_write_char_con
 1428                   .dbline 664
 1428           ;    lcd_write_char_con(0,':');
 1428 2AE3              ldi R18,58
 142A 0027              clr R16
 142C 0E940000          xcall _lcd_write_char_con
 1430                   .dbline 666
 1430           ;    
 1430           ;    lcd_write_str(4,0,"升温");
 1430 80E0              ldi R24,<L259
 1432 90E0              ldi R25,>L259
 1434 9983              std y+1,R25
 1436 8883              std y+0,R24
 1438 2227              clr R18
 143A 04E0              ldi R16,4
 143C 0E940000          xcall _lcd_write_str
 1440                   .dbline 667
 1440           ;    lcd_write_str(7,0,"恒温");
 1440 80E0              ldi R24,<L260
 1442 90E0              ldi R25,>L260
 1444 9983              std y+1,R25
 1446 8883              std y+0,R24
 1448 2227              clr R18
 144A 07E0              ldi R16,7
 144C 0E940000          xcall _lcd_write_str
 1450                   .dbline 668
 1450           ;    lcd_write_str(10,0,"温度");
 1450 80E0              ldi R24,<L261
 1452 90E0              ldi R25,>L261
 1454 9983              std y+1,R25
 1456 8883              std y+0,R24
 1458 2227              clr R18
 145A 0AE0              ldi R16,10
 145C 0E940000          xcall _lcd_write_str
 1460                   .dbline 669
 1460           ;    lcd_write_str(0,1,"保存");
 1460 80E0              ldi R24,<L262
 1462 90E0              ldi R25,>L262
 1464 9983              std y+1,R25
 1466 8883              std y+0,R24
 1468 21E0              ldi R18,1
 146A 0027              clr R16
 146C 0E940000          xcall _lcd_write_str
 1470                   .dbline 670
 1470           ;    lcd_write_str(0,2,"取消");
 1470 80E0              ldi R24,<L118
 1472 90E0              ldi R25,>L118
 1474 9983              std y+1,R25
 1476 8883              std y+0,R24
 1478 22E0              ldi R18,2
 147A 0027              clr R16
 147C 0E940000          xcall _lcd_write_str
 1480                   .dbline 671
 1480           ;    lcd_write_str(0,3,"重置");
 1480 80E0              ldi R24,<L148
 1482 90E0              ldi R25,>L148
 1484 9983              std y+1,R25
 1486 8883              std y+0,R24
 1488 23E0              ldi R18,3
 148A 0027              clr R16
 148C 0E940000          xcall _lcd_write_str
 1490                   .dbline 673
 1490           ;   
 1490           ;   for(i=0;i<132;i++){
 1490 AA24              clr R10
 1492 BB24              clr R11
 1494 20C0              xjmp L266
 1496           L263:
 1496                   .dbline 673
 1496                   .dbline 674
 1496           ;     dataCach[i]=temps[pageParam[0]].temp_data[i];
 1496 1501              movw R2,R10
 1498 220C              lsl R2
 149A 331C              rol R3
 149C 2101              movw R4,R2
 149E 20910000          lds R18,_pageParam
 14A2 30910100          lds R19,_pageParam+1
 14A6 0AE3              ldi R16,314
 14A8 11E0              ldi R17,1
 14AA 0E940000          xcall empy16s
 14AE 80E0              ldi R24,<_temps+2
 14B0 90E0              ldi R25,>_temps+2
 14B2 1801              movw R2,R16
 14B4 280E              add R2,R24
 14B6 391E              adc R3,R25
 14B8 F201              movw R30,R4
 14BA E20D              add R30,R2
 14BC F31D              adc R31,R3
 14BE 2080              ldd R2,z+0
 14C0 3180              ldd R3,z+1
 14C2 CE01              movw R24,R28
 14C4 0296              adiw R24,2
 14C6 F201              movw R30,R4
 14C8 E80F              add R30,R24
 14CA F91F              adc R31,R25
 14CC 3182              std z+1,R3
 14CE 2082              std z+0,R2
 14D0                   .dbline 675
 14D0           ;   }
 14D0           L264:
 14D0                   .dbline 673
 14D0 C501              movw R24,R10
 14D2 0196              adiw R24,1
 14D4 5C01              movw R10,R24
 14D6           L266:
 14D6                   .dbline 673
 14D6 C501              movw R24,R10
 14D8 8438              cpi R24,132
 14DA E0E0              ldi R30,0
 14DC 9E07              cpc R25,R30
 14DE D8F2              brlo L263
 14E0           X153:
 14E0                   .dbline 676
 14E0           ;     page4_data(0,dataCach);//调用函数填充
 14E0 9E01              movw R18,R28
 14E2 2E5F              subi R18,254  ; offset = 2
 14E4 3F4F              sbci R19,255
 14E6 0027              clr R16
 14E8 1127              clr R17
 14EA F7DC              xcall _page4_data
 14EC                   .dbline 677
 14EC           ;    cur=0;
 14EC 4427              clr R20
 14EE 5527              clr R21
 14F0                   .dbline 678
 14F0           ;    lcd_write_pos(3,1);
 14F0 21E0              ldi R18,1
 14F2 03E0              ldi R16,3
 14F4 0E940000          xcall _lcd_write_pos
 14F8                   .dbline 679
 14F8           ;    cur_set(3);
 14F8 03E0              ldi R16,3
 14FA 10E0              ldi R17,0
 14FC 0E940000          xcall _cur_set
 1500 2AC2              xjmp L269
 1502           L268:
 1502                   .dbline 682
 1502           ;    
 1502           ;    //Set_White(9,2,10);
 1502           ;     while(1){
 1502                   .dbline 683
 1502           ;       keyV=KeyScan_once();
 1502 0E940000          xcall _KeyScan_once
 1506 A02E              mov R10,R16
 1508                   .dbline 684
 1508           ;         if(keyV=='e'){
 1508 0536              cpi R16,101
 150A 09F5              brne L271
 150C           X154:
 150C                   .dbline 684
 150C                   .dbline 685
 150C           ;               Set_White_off(1,1,2);
 150C 82E0              ldi R24,2
 150E 8883              std y+0,R24
 1510 21E0              ldi R18,1
 1512 01E0              ldi R16,1
 1514 0E940000          xcall _Set_White_off
 1518                   .dbline 686
 1518           ;                       Set_White_off(1,2,2);
 1518 82E0              ldi R24,2
 151A 8883              std y+0,R24
 151C 22E0              ldi R18,2
 151E 01E0              ldi R16,1
 1520 0E940000          xcall _Set_White_off
 1524                   .dbline 687
 1524           ;                       Set_White_off(1,3,2);
 1524 82E0              ldi R24,2
 1526 8883              std y+0,R24
 1528 23E0              ldi R18,3
 152A 01E0              ldi R16,1
 152C 0E940000          xcall _Set_White_off
 1530                   .dbline 688
 1530           ;                       cur_set(0);
 1530 0027              clr R16
 1532 1127              clr R17
 1534 0E940000          xcall _cur_set
 1538                   .dbline 689
 1538           ;                       cur_set(4);
 1538 04E0              ldi R16,4
 153A 10E0              ldi R17,0
 153C 0E940000          xcall _cur_set
 1540                   .dbline 690
 1540           ;                   pageNum=3;
 1540 83E0              ldi R24,3
 1542 90E0              ldi R25,0
 1544 90930100          sts _pageNum+1,R25
 1548 80930000          sts _pageNum,R24
 154C                   .dbline 691
 154C           ;                   return;
 154C 05C2              xjmp L257
 154E           L271:
 154E                   .dbline 692
 154E           ;         }else if(keyV=='u'){
 154E 8A2D              mov R24,R10
 1550 8537              cpi R24,117
 1552 09F0              breq X193
 1554 46C0              xjmp L273
 1556           X193:
 1556           X155:
 1556                   .dbline 692
 1556                   .dbline 693
 1556           ;            if(cur==133){
 1556 4538              cpi R20,133
 1558 E0E0              ldi R30,0
 155A 5E07              cpc R21,R30
 155C 79F4              brne L275
 155E           X156:
 155E                   .dbline 693
 155E                   .dbline 694
 155E           ;                   Set_White(1,1,2);
 155E 82E0              ldi R24,2
 1560 8883              std y+0,R24
 1562 21E0              ldi R18,1
 1564 01E0              ldi R16,1
 1566 0E940000          xcall _Set_White
 156A                   .dbline 695
 156A           ;                       Set_White_off(1,2,2);
 156A 82E0              ldi R24,2
 156C 8883              std y+0,R24
 156E 22E0              ldi R18,2
 1570 01E0              ldi R16,1
 1572 0E940000          xcall _Set_White_off
 1576                   .dbline 696
 1576           ;                       cur=132;
 1576 44E8              ldi R20,132
 1578 50E0              ldi R21,0
 157A                   .dbline 697
 157A           ;                }else if(cur==134){
 157A EDC1              xjmp L274
 157C           L275:
 157C                   .dbline 697
 157C 4638              cpi R20,134
 157E E0E0              ldi R30,0
 1580 5E07              cpc R21,R30
 1582 79F4              brne L277
 1584           X157:
 1584                   .dbline 697
 1584                   .dbline 698
 1584           ;                   Set_White(1,2,2);
 1584 82E0              ldi R24,2
 1586 8883              std y+0,R24
 1588 22E0              ldi R18,2
 158A 01E0              ldi R16,1
 158C 0E940000          xcall _Set_White
 1590                   .dbline 699
 1590           ;                       Set_White_off(1,3,2);
 1590 82E0              ldi R24,2
 1592 8883              std y+0,R24
 1594 23E0              ldi R18,3
 1596 01E0              ldi R16,1
 1598 0E940000          xcall _Set_White_off
 159C                   .dbline 700
 159C           ;                       cur=133;
 159C 45E8              ldi R20,133
 159E 50E0              ldi R21,0
 15A0                   .dbline 701
 15A0           ;                }else if(cur>10 && cur<=131){
 15A0 DAC1              xjmp L274
 15A2           L277:
 15A2                   .dbline 701
 15A2 8AE0              ldi R24,10
 15A4 90E0              ldi R25,0
 15A6 8417              cp R24,R20
 15A8 9507              cpc R25,R21
 15AA 08F0              brlo X194
 15AC D4C1              xjmp L274
 15AE           X194:
 15AE           X158:
 15AE 83E8              ldi R24,131
 15B0 8417              cp R24,R20
 15B2 9507              cpc R25,R21
 15B4 08F4              brsh X195
 15B6 CFC1              xjmp L274
 15B8           X195:
 15B8           X159:
 15B8                   .dbline 701
 15B8                   .dbline 702
 15B8           ;                  oldcur=cur;
 15B8 BA01              movw R22,R20
 15BA                   .dbline 703
 15BA           ;              cur=(cur/11-1)*11;
 15BA 2BE0              ldi R18,11
 15BC 30E0              ldi R19,0
 15BE 8A01              movw R16,R20
 15C0 0E940000          xcall div16u
 15C4 9801              movw R18,R16
 15C6 2150              subi R18,1
 15C8 3040              sbci R19,0
 15CA 0BE0              ldi R16,11
 15CC 10E0              ldi R17,0
 15CE 0E940000          xcall empy16s
 15D2 A801              movw R20,R16
 15D4                   .dbline 704
 15D4           ;                  page4_ac(cur,oldcur,dataCach);
 15D4 CE01              movw R24,R28
 15D6 0296              adiw R24,2
 15D8 9983              std y+1,R25
 15DA 8883              std y+0,R24
 15DC 9B01              movw R18,R22
 15DE 21DE              xcall _page4_ac
 15E0                   .dbline 705
 15E0           ;                }
 15E0                   .dbline 706
 15E0           ;         }else if(keyV=='d'){
 15E0 BAC1              xjmp L274
 15E2           L273:
 15E2                   .dbline 706
 15E2 8A2D              mov R24,R10
 15E4 8436              cpi R24,100
 15E6 09F0              breq X196
 15E8 40C0              xjmp L281
 15EA           X196:
 15EA           X160:
 15EA                   .dbline 706
 15EA                   .dbline 707
 15EA           ;            if(cur==132){
 15EA 4438              cpi R20,132
 15EC E0E0              ldi R30,0
 15EE 5E07              cpc R21,R30
 15F0 79F4              brne L283
 15F2           X161:
 15F2                   .dbline 707
 15F2                   .dbline 708
 15F2           ;                   Set_White_off(1,1,2);
 15F2 82E0              ldi R24,2
 15F4 8883              std y+0,R24
 15F6 21E0              ldi R18,1
 15F8 01E0              ldi R16,1
 15FA 0E940000          xcall _Set_White_off
 15FE                   .dbline 709
 15FE           ;                       Set_White(1,2,2);
 15FE 82E0              ldi R24,2
 1600 8883              std y+0,R24
 1602 22E0              ldi R18,2
 1604 01E0              ldi R16,1
 1606 0E940000          xcall _Set_White
 160A                   .dbline 710
 160A           ;                       cur=133;
 160A 45E8              ldi R20,133
 160C 50E0              ldi R21,0
 160E                   .dbline 711
 160E           ;                }else if(cur==133){
 160E A3C1              xjmp L282
 1610           L283:
 1610                   .dbline 711
 1610 4538              cpi R20,133
 1612 E0E0              ldi R30,0
 1614 5E07              cpc R21,R30
 1616 79F4              brne L285
 1618           X162:
 1618                   .dbline 711
 1618                   .dbline 712
 1618           ;                   Set_White_off(1,2,2);
 1618 82E0              ldi R24,2
 161A 8883              std y+0,R24
 161C 22E0              ldi R18,2
 161E 01E0              ldi R16,1
 1620 0E940000          xcall _Set_White_off
 1624                   .dbline 713
 1624           ;                       Set_White(1,3,2);
 1624 82E0              ldi R24,2
 1626 8883              std y+0,R24
 1628 23E0              ldi R18,3
 162A 01E0              ldi R16,1
 162C 0E940000          xcall _Set_White
 1630                   .dbline 714
 1630           ;                       cur=134;
 1630 46E8              ldi R20,134
 1632 50E0              ldi R21,0
 1634                   .dbline 715
 1634           ;                }else if(cur<121){
 1634 90C1              xjmp L282
 1636           L285:
 1636                   .dbline 715
 1636 4937              cpi R20,121
 1638 E0E0              ldi R30,0
 163A 5E07              cpc R21,R30
 163C 08F0              brlo X197
 163E 8BC1              xjmp L282
 1640           X197:
 1640           X163:
 1640                   .dbline 715
 1640                   .dbline 716
 1640           ;             oldcur=cur;
 1640 BA01              movw R22,R20
 1642                   .dbline 717
 1642           ;             cur=(cur/11+1)*11;
 1642 2BE0              ldi R18,11
 1644 30E0              ldi R19,0
 1646 8A01              movw R16,R20
 1648 0E940000          xcall div16u
 164C 9801              movw R18,R16
 164E 2F5F              subi R18,255  ; offset = 1
 1650 3F4F              sbci R19,255
 1652 0BE0              ldi R16,11
 1654 10E0              ldi R17,0
 1656 0E940000          xcall empy16s
 165A A801              movw R20,R16
 165C                   .dbline 718
 165C           ;                 page4_ac(cur,oldcur,dataCach);
 165C CE01              movw R24,R28
 165E 0296              adiw R24,2
 1660 9983              std y+1,R25
 1662 8883              std y+0,R24
 1664 9B01              movw R18,R22
 1666 DDDD              xcall _page4_ac
 1668                   .dbline 719
 1668           ;               }
 1668                   .dbline 721
 1668           ;               
 1668           ;         }else if(keyV=='l'){
 1668 76C1              xjmp L282
 166A           L281:
 166A                   .dbline 721
 166A 8A2D              mov R24,R10
 166C 8C36              cpi R24,108
 166E 09F0              breq X198
 1670 49C0              xjmp L289
 1672           X198:
 1672           X164:
 1672                   .dbline 721
 1672                   .dbline 722
 1672           ;          oldcur=cur;
 1672 BA01              movw R22,R20
 1674                   .dbline 723
 1674           ;         if(cur%11==0){
 1674 2BE0              ldi R18,11
 1676 30E0              ldi R19,0
 1678 8A01              movw R16,R20
 167A 0E940000          xcall mod16u
 167E 0030              cpi R16,0
 1680 0107              cpc R16,R17
 1682 89F4              brne L291
 1684           X165:
 1684                   .dbline 723
 1684                   .dbline 724
 1684           ;               Set_White(1,1,2);
 1684 82E0              ldi R24,2
 1686 8883              std y+0,R24
 1688 21E0              ldi R18,1
 168A 01E0              ldi R16,1
 168C 0E940000          xcall _Set_White
 1690                   .dbline 725
 1690           ;                       cur_set(0);
 1690 0027              clr R16
 1692 1127              clr R17
 1694 0E940000          xcall _cur_set
 1698                   .dbline 726
 1698           ;                       cur_set(4);
 1698 04E0              ldi R16,4
 169A 10E0              ldi R17,0
 169C 0E940000          xcall _cur_set
 16A0                   .dbline 727
 16A0           ;                       cur=132;
 16A0 44E8              ldi R20,132
 16A2 50E0              ldi R21,0
 16A4                   .dbline 728
 16A4           ;          }else if(cur%11==2 || cur%11==4 || cur%11==6 || cur%11==8){
 16A4 58C1              xjmp L290
 16A6           L291:
 16A6                   .dbline 728
 16A6 2BE0              ldi R18,11
 16A8 30E0              ldi R19,0
 16AA 8A01              movw R16,R20
 16AC 0E940000          xcall mod16u
 16B0 6801              movw R12,R16
 16B2 C601              movw R24,R12
 16B4 0230              cpi R16,2
 16B6 E0E0              ldi R30,0
 16B8 1E07              cpc R17,R30
 16BA 61F0              breq L297
 16BC           X166:
 16BC 0430              cpi R16,4
 16BE E0E0              ldi R30,0
 16C0 1E07              cpc R17,R30
 16C2 41F0              breq L297
 16C4           X167:
 16C4 0630              cpi R16,6
 16C6 E0E0              ldi R30,0
 16C8 1E07              cpc R17,R30
 16CA 21F0              breq L297
 16CC           X168:
 16CC 0830              cpi R16,8
 16CE E0E0              ldi R30,0
 16D0 1E07              cpc R17,R30
 16D2 51F4              brne L293
 16D4           X169:
 16D4           L297:
 16D4                   .dbline 728
 16D4                   .dbline 729
 16D4           ;             cur-=2;
 16D4 4250              subi R20,2
 16D6 5040              sbci R21,0
 16D8                   .dbline 730
 16D8           ;                  page4_ac(cur,oldcur,dataCach);
 16D8 CE01              movw R24,R28
 16DA 0296              adiw R24,2
 16DC 9983              std y+1,R25
 16DE 8883              std y+0,R24
 16E0 9B01              movw R18,R22
 16E2 8A01              movw R16,R20
 16E4 9EDD              xcall _page4_ac
 16E6                   .dbline 731
 16E6           ;               }else if(cur>0){
 16E6 37C1              xjmp L290
 16E8           L293:
 16E8                   .dbline 731
 16E8 4030              cpi R20,0
 16EA 4507              cpc R20,R21
 16EC 09F4              brne X199
 16EE 33C1              xjmp L290
 16F0           X199:
 16F0           X170:
 16F0                   .dbline 731
 16F0                   .dbline 732
 16F0           ;             cur--;
 16F0 4150              subi R20,1
 16F2 5040              sbci R21,0
 16F4                   .dbline 733
 16F4           ;                  page4_ac(cur,oldcur,dataCach);
 16F4 CE01              movw R24,R28
 16F6 0296              adiw R24,2
 16F8 9983              std y+1,R25
 16FA 8883              std y+0,R24
 16FC 9B01              movw R18,R22
 16FE 8A01              movw R16,R20
 1700 90DD              xcall _page4_ac
 1702                   .dbline 734
 1702           ;               }
 1702                   .dbline 736
 1702           ;         
 1702           ;         }else if(keyV=='r'){
 1702 29C1              xjmp L290
 1704           L289:
 1704                   .dbline 736
 1704 8A2D              mov R24,R10
 1706 8237              cpi R24,114
 1708 41F5              brne L300
 170A           X171:
 170A                   .dbline 736
 170A                   .dbline 737
 170A           ;         if(cur>131){
 170A 83E8              ldi R24,131
 170C 90E0              ldi R25,0
 170E 8417              cp R24,R20
 1710 9507              cpc R25,R21
 1712 A0F4              brsh L302
 1714           X172:
 1714                   .dbline 737
 1714                   .dbline 738
 1714           ;             Set_White_off(1,1,2);
 1714 82E0              ldi R24,2
 1716 8883              std y+0,R24
 1718 21E0              ldi R18,1
 171A 01E0              ldi R16,1
 171C 0E940000          xcall _Set_White_off
 1720                   .dbline 739
 1720           ;             Set_White_off(1,2,2);
 1720 82E0              ldi R24,2
 1722 8883              std y+0,R24
 1724 22E0              ldi R18,2
 1726 01E0              ldi R16,1
 1728 0E940000          xcall _Set_White_off
 172C                   .dbline 740
 172C           ;                 Set_White_off(1,3,2);
 172C 82E0              ldi R24,2
 172E 8883              std y+0,R24
 1730 23E0              ldi R18,3
 1732 01E0              ldi R16,1
 1734 0E940000          xcall _Set_White_off
 1738                   .dbline 741
 1738           ;                 cur=oldcur;
 1738 AB01              movw R20,R22
 173A                   .dbline 742
 173A           ;         }else  if(cur<131){
 173A 07C0              xjmp L303
 173C           L302:
 173C                   .dbline 742
 173C 4338              cpi R20,131
 173E E0E0              ldi R30,0
 1740 5E07              cpc R21,R30
 1742 18F4              brsh L304
 1744           X173:
 1744                   .dbline 742
 1744                   .dbline 743
 1744           ;                oldcur=cur;
 1744 BA01              movw R22,R20
 1746                   .dbline 744
 1746           ;            cur++;
 1746 4F5F              subi R20,255  ; offset = 1
 1748 5F4F              sbci R21,255
 174A                   .dbline 745
 174A           ;                }
 174A           L304:
 174A           L303:
 174A                   .dbline 746
 174A           ;           page4_ac(cur,oldcur,dataCach);
 174A CE01              movw R24,R28
 174C 0296              adiw R24,2
 174E 9983              std y+1,R25
 1750 8883              std y+0,R24
 1752 9B01              movw R18,R22
 1754 8A01              movw R16,R20
 1756 65DD              xcall _page4_ac
 1758                   .dbline 747
 1758           ;         }else if(keyV=='t'){      
 1758 FEC0              xjmp L301
 175A           L300:
 175A                   .dbline 747
 175A 8A2D              mov R24,R10
 175C 8437              cpi R24,116
 175E 09F0              breq X200
 1760 98C0              xjmp L306
 1762           X200:
 1762           X174:
 1762                   .dbline 747
 1762                   .dbline 748
 1762           ;            if(cur==132){
 1762 4438              cpi R20,132
 1764 E0E0              ldi R30,0
 1766 5E07              cpc R21,R30
 1768 09F0              breq X201
 176A 3EC0              xjmp L308
 176C           X201:
 176C           X175:
 176C                   .dbline 748
 176C                   .dbline 749
 176C           ;                  Set_White_off(1,1,2);
 176C 82E0              ldi R24,2
 176E 8883              std y+0,R24
 1770 21E0              ldi R18,1
 1772 01E0              ldi R16,1
 1774 0E940000          xcall _Set_White_off
 1778                   .dbline 750
 1778           ;                       Set_White_off(1,2,2);
 1778 82E0              ldi R24,2
 177A 8883              std y+0,R24
 177C 22E0              ldi R18,2
 177E 01E0              ldi R16,1
 1780 0E940000          xcall _Set_White_off
 1784                   .dbline 751
 1784           ;                       Set_White_off(1,3,2);
 1784 82E0              ldi R24,2
 1786 8883              std y+0,R24
 1788 23E0              ldi R18,3
 178A 01E0              ldi R16,1
 178C 0E940000          xcall _Set_White_off
 1790                   .dbline 752
 1790           ;                  cur_set(0);
 1790 0027              clr R16
 1792 1127              clr R17
 1794 0E940000          xcall _cur_set
 1798                   .dbline 753
 1798           ;                       cur_set(4);
 1798 04E0              ldi R16,4
 179A 10E0              ldi R17,0
 179C 0E940000          xcall _cur_set
 17A0                   .dbline 754
 17A0           ;                       lcd_clear();
 17A0 0E940000          xcall _lcd_clear
 17A4                   .dbline 755
 17A4           ;                       lcd_write_str(5,2,"保存中. . .");
 17A4 80E0              ldi R24,<L310
 17A6 90E0              ldi R25,>L310
 17A8 9983              std y+1,R25
 17AA 8883              std y+0,R24
 17AC 22E0              ldi R18,2
 17AE 05E0              ldi R16,5
 17B0 0E940000          xcall _lcd_write_str
 17B4                   .dbline 756
 17B4           ;                   pageParam[1]=1;//表示是温度数据的，这里处理保存的方法，因为数据在这里。只是跳转过去，参数如果是1表示成功。2表示失败
 17B4 81E0              ldi R24,1
 17B6 90E0              ldi R25,0
 17B8 90930300          sts _pageParam+2+1,R25
 17BC 80930200          sts _pageParam+2,R24
 17C0                   .dbline 757
 17C0           ;                   prePageNum=4;
 17C0 84E0              ldi R24,4
 17C2 90930100          sts _prePageNum+1,R25
 17C6 80930000          sts _prePageNum,R24
 17CA                   .dbline 758
 17CA           ;                   pageNum=6;
 17CA 86E0              ldi R24,6
 17CC 90930100          sts _pageNum+1,R25
 17D0 80930000          sts _pageNum,R24
 17D4                   .dbline 759
 17D4           ;                       set_temp_data(pageParam[0],dataCach);//保存数据
 17D4 9E01              movw R18,R28
 17D6 2E5F              subi R18,254  ; offset = 2
 17D8 3F4F              sbci R19,255
 17DA 00910000          lds R16,_pageParam
 17DE 10910100          lds R17,_pageParam+1
 17E2 0E940000          xcall _set_temp_data
 17E6                   .dbline 760
 17E6           ;                   return;
 17E6 B8C0              xjmp L257
 17E8           L308:
 17E8                   .dbline 761
 17E8           ;                }else if(cur==133){
 17E8 4538              cpi R20,133
 17EA E0E0              ldi R30,0
 17EC 5E07              cpc R21,R30
 17EE 09F5              brne L312
 17F0           X176:
 17F0                   .dbline 761
 17F0                   .dbline 762
 17F0           ;                   Set_White_off(1,1,2);
 17F0 82E0              ldi R24,2
 17F2 8883              std y+0,R24
 17F4 21E0              ldi R18,1
 17F6 01E0              ldi R16,1
 17F8 0E940000          xcall _Set_White_off
 17FC                   .dbline 763
 17FC           ;                       Set_White_off(1,2,2);
 17FC 82E0              ldi R24,2
 17FE 8883              std y+0,R24
 1800 22E0              ldi R18,2
 1802 01E0              ldi R16,1
 1804 0E940000          xcall _Set_White_off
 1808                   .dbline 764
 1808           ;                       Set_White_off(1,3,2);
 1808 82E0              ldi R24,2
 180A 8883              std y+0,R24
 180C 23E0              ldi R18,3
 180E 01E0              ldi R16,1
 1810 0E940000          xcall _Set_White_off
 1814                   .dbline 765
 1814           ;                   cur_set(0);
 1814 0027              clr R16
 1816 1127              clr R17
 1818 0E940000          xcall _cur_set
 181C                   .dbline 766
 181C           ;                       cur_set(4);
 181C 04E0              ldi R16,4
 181E 10E0              ldi R17,0
 1820 0E940000          xcall _cur_set
 1824                   .dbline 767
 1824           ;                   pageNum=3;
 1824 83E0              ldi R24,3
 1826 90E0              ldi R25,0
 1828 90930100          sts _pageNum+1,R25
 182C 80930000          sts _pageNum,R24
 1830                   .dbline 768
 1830           ;                   return;
 1830 93C0              xjmp L257
 1832           L312:
 1832                   .dbline 769
 1832           ;                }else if(cur==134){
 1832 4638              cpi R20,134
 1834 E0E0              ldi R30,0
 1836 5E07              cpc R21,R30
 1838 09F0              breq X202
 183A 8DC0              xjmp L307
 183C           X202:
 183C           X177:
 183C                   .dbline 769
 183C                   .dbline 770
 183C           ;                   Set_White_off(1,1,2);
 183C 82E0              ldi R24,2
 183E 8883              std y+0,R24
 1840 21E0              ldi R18,1
 1842 01E0              ldi R16,1
 1844 0E940000          xcall _Set_White_off
 1848                   .dbline 771
 1848           ;                       Set_White_off(1,2,2);
 1848 82E0              ldi R24,2
 184A 8883              std y+0,R24
 184C 22E0              ldi R18,2
 184E 01E0              ldi R16,1
 1850 0E940000          xcall _Set_White_off
 1854                   .dbline 772
 1854           ;                       Set_White_off(1,3,2);
 1854 82E0              ldi R24,2
 1856 8883              std y+0,R24
 1858 23E0              ldi R18,3
 185A 01E0              ldi R16,1
 185C 0E940000          xcall _Set_White_off
 1860                   .dbline 773
 1860           ;                  cur_set(0);
 1860 0027              clr R16
 1862 1127              clr R17
 1864 0E940000          xcall _cur_set
 1868                   .dbline 774
 1868           ;                       cur_set(4);
 1868 04E0              ldi R16,4
 186A 10E0              ldi R17,0
 186C 0E940000          xcall _cur_set
 1870                   .dbline 776
 1870           ;                  //重置。有提示
 1870           ;                       pageParam[2]=1;//表示重置是温度数据的
 1870 81E0              ldi R24,1
 1872 90E0              ldi R25,0
 1874 90930500          sts _pageParam+4+1,R25
 1878 80930400          sts _pageParam+4,R24
 187C                   .dbline 777
 187C           ;                       prePageNum=4;
 187C 84E0              ldi R24,4
 187E 90930100          sts _prePageNum+1,R25
 1882 80930000          sts _prePageNum,R24
 1886                   .dbline 778
 1886           ;                   pageNum=7;
 1886 87E0              ldi R24,7
 1888 90930100          sts _pageNum+1,R25
 188C 80930000          sts _pageNum,R24
 1890                   .dbline 779
 1890           ;                   return;
 1890 63C0              xjmp L257
 1892           L306:
 1892                   .dbline 782
 1892           ;                }
 1892           ;            
 1892           ;         }else if(keyV=='0' || keyV=='1' || keyV=='2' || keyV=='3' || keyV=='4' || keyV=='5' 
 1892 8A2D              mov R24,R10
 1894 8033              cpi R24,48
 1896 99F0              breq L327
 1898           X178:
 1898 8133              cpi R24,49
 189A 89F0              breq L327
 189C           X179:
 189C 8233              cpi R24,50
 189E 79F0              breq L327
 18A0           X180:
 18A0 8333              cpi R24,51
 18A2 69F0              breq L327
 18A4           X181:
 18A4 8433              cpi R24,52
 18A6 59F0              breq L327
 18A8           X182:
 18A8 8533              cpi R24,53
 18AA 49F0              breq L327
 18AC           X183:
 18AC 8633              cpi R24,54
 18AE 39F0              breq L327
 18B0           X184:
 18B0 8733              cpi R24,55
 18B2 29F0              breq L327
 18B4           X185:
 18B4 8833              cpi R24,56
 18B6 19F0              breq L327
 18B8           X186:
 18B8 8933              cpi R24,57
 18BA 09F0              breq X203
 18BC 4CC0              xjmp L317
 18BE           X203:
 18BE           X187:
 18BE           L327:
 18BE                   .dbline 783
 18BE           ;                  || keyV=='6'  || keyV=='7' || keyV=='8' || keyV=='9'){
 18BE                   .dbline 784
 18BE           ;                         if(cur <132){//判断还在输入域
 18BE 4438              cpi R20,132
 18C0 E0E0              ldi R30,0
 18C2 5E07              cpc R21,R30
 18C4 08F0              brlo X204
 18C6 47C0              xjmp L328
 18C8           X204:
 18C8           X188:
 18C8                   .dbline 784
 18C8                   .dbline 785
 18C8           ;                          if((cur/11)%3==0){
 18C8 2BE0              ldi R18,11
 18CA 30E0              ldi R19,0
 18CC 8A01              movw R16,R20
 18CE 0E940000          xcall div16u
 18D2 23E0              ldi R18,3
 18D4 30E0              ldi R19,0
 18D6 0E940000          xcall mod16u
 18DA 0030              cpi R16,0
 18DC 0107              cpc R16,R17
 18DE 31F4              brne L330
 18E0           X189:
 18E0                   .dbline 785
 18E0                   .dbline 786
 18E0           ;                             lcd_write_char_con(1,0x30 | keyV);
 18E0 2A2D              mov R18,R10
 18E2 2063              ori R18,48
 18E4 01E0              ldi R16,1
 18E6 0E940000          xcall _lcd_write_char_con
 18EA                   .dbline 787
 18EA           ;                               }else{
 18EA 05C0              xjmp L331
 18EC           L330:
 18EC                   .dbline 787
 18EC                   .dbline 788
 18EC           ;                                 lcd_write_char_con(2,0x30 | keyV);
 18EC 2A2D              mov R18,R10
 18EE 2063              ori R18,48
 18F0 02E0              ldi R16,2
 18F2 0E940000          xcall _lcd_write_char_con
 18F6                   .dbline 789
 18F6           ;                               }
 18F6           L331:
 18F6                   .dbline 790
 18F6           ;                               dataCach[cur]=keyV;
 18F6 CE01              movw R24,R28
 18F8 0296              adiw R24,2
 18FA FA01              movw R30,R20
 18FC EE0F              lsl R30
 18FE FF1F              rol R31
 1900 E80F              add R30,R24
 1902 F91F              adc R31,R25
 1904 2A2C              mov R2,R10
 1906 3324              clr R3
 1908 3182              std z+1,R3
 190A 2082              std z+0,R2
 190C                   .dbline 791
 190C           ;                               oldcur=cur;
 190C BA01              movw R22,R20
 190E                   .dbline 792
 190E           ;                               if(cur<131)
 190E 6338              cpi R22,131
 1910 E0E0              ldi R30,0
 1912 7E07              cpc R23,R30
 1914 50F4              brsh L332
 1916           X190:
 1916                   .dbline 793
 1916           ;                               {
 1916                   .dbline 794
 1916           ;                                 cur++;
 1916 4F5F              subi R20,255  ; offset = 1
 1918 5F4F              sbci R21,255
 191A                   .dbline 795
 191A           ;                                 page4_ac(cur,oldcur,dataCach);
 191A CE01              movw R24,R28
 191C 0296              adiw R24,2
 191E 9983              std y+1,R25
 1920 8883              std y+0,R24
 1922 9B01              movw R18,R22
 1924 8A01              movw R16,R20
 1926 7DDC              xcall _page4_ac
 1928                   .dbline 796
 1928           ;                               }else if(cur==131){//最后一个131会在上面处理，最后一次进入这里。跳到保存
 1928 16C0              xjmp L333
 192A           L332:
 192A                   .dbline 796
 192A 4338              cpi R20,131
 192C E0E0              ldi R30,0
 192E 5E07              cpc R21,R30
 1930 91F4              brne L334
 1932           X191:
 1932                   .dbline 796
 1932                   .dbline 797
 1932           ;                                 Set_White(1,1,2);
 1932 82E0              ldi R24,2
 1934 8883              std y+0,R24
 1936 21E0              ldi R18,1
 1938 01E0              ldi R16,1
 193A 0E940000          xcall _Set_White
 193E                   .dbline 798
 193E           ;                              cur_set(0);
 193E 0027              clr R16
 1940 1127              clr R17
 1942 0E940000          xcall _cur_set
 1946                   .dbline 799
 1946           ;                              cur_set(4);
 1946 04E0              ldi R16,4
 1948 10E0              ldi R17,0
 194A 0E940000          xcall _cur_set
 194E                   .dbline 800
 194E           ;                              cur=132;
 194E 44E8              ldi R20,132
 1950 50E0              ldi R21,0
 1952                   .dbline 801
 1952           ;                                  oldcur=99;
 1952 63E6              ldi R22,99
 1954 70E0              ldi R23,0
 1956                   .dbline 802
 1956           ;                               }
 1956           L334:
 1956           L333:
 1956                   .dbline 804
 1956           ;                               
 1956           ;                         }
 1956           L328:
 1956                   .dbline 805
 1956           ;               }
 1956           L317:
 1956           L307:
 1956           L301:
 1956           L290:
 1956           L282:
 1956           L274:
 1956                   .dbline 806
 1956           ;       }
 1956           L269:
 1956                   .dbline 682
 1956 D5CD              xjmp L268
 1958           X192:
 1958                   .dbline -2
 1958           L257:
 1958                   .dbline 0 ; func end
 1958 EF96              adiw R28,63
 195A EF96              adiw R28,63
 195C EF96              adiw R28,63
 195E EF96              adiw R28,63
 1960 2C96              adiw R28,12  ; offset = 264
 1962 0C940000          xjmp pop_xgsetF03C
 1966                   .dbsym r numL 20 i
 1966                   .dbsym r numH 20 i
 1966                   .dbsym r oldcur 22 i
 1966                   .dbsym l dataCach 2 A[262:131]i
 1966                   .dbsym r cur 20 i
 1966                   .dbsym r keyV 10 c
 1966                   .dbsym r i 10 i
 1966                   .dbend
 1966                   .dbfunc e page5 _page5 fV
 1966           ;         ddflag -> R22,R23
 1966           ;            cur -> R20,R21
 1966           ;           keyV -> R10
                        .even
 1966           _page5::
 1966 0E940000          xcall push_xgsetF00C
 196A 2297              sbiw R28,2
 196C                   .dbline -1
 196C                   .dbline 809
 196C           ;  }
 196C           ;  
 196C           ;  void page5(void){
 196C                   .dbline 810
 196C           ;   uint cur=0;
 196C 4427              clr R20
 196E 5527              clr R21
 1970                   .dbline 813
 1970           ;    uchar keyV;
 1970           ;    uint ddflag;
 1970           ;    lcd_write_str(4,0,"断电自动恢复");
 1970 80E0              ldi R24,<L337
 1972 90E0              ldi R25,>L337
 1974 9983              std y+1,R25
 1976 8883              std y+0,R24
 1978 2227              clr R18
 197A 04E0              ldi R16,4
 197C 0E940000          xcall _lcd_write_str
 1980                   .dbline 814
 1980           ;    lcd_write_str(4,1,"设置时间");
 1980 80E0              ldi R24,<L338
 1982 90E0              ldi R25,>L338
 1984 9983              std y+1,R25
 1986 8883              std y+0,R24
 1988 21E0              ldi R18,1
 198A 04E0              ldi R16,4
 198C 0E940000          xcall _lcd_write_str
 1990                   .dbline 815
 1990           ;    lcd_write_str(4,2,"重置系统");
 1990 80E0              ldi R24,<L339
 1992 90E0              ldi R25,>L339
 1994 9983              std y+1,R25
 1996 8883              std y+0,R24
 1998 22E0              ldi R18,2
 199A 04E0              ldi R16,4
 199C 0E940000          xcall _lcd_write_str
 19A0                   .dbline 816
 19A0           ;     ddflag=EEPROM_read(0,0);
 19A0 2227              clr R18
 19A2 3327              clr R19
 19A4 0027              clr R16
 19A6 1127              clr R17
 19A8 0E940000          xcall _EEPROM_read
 19AC B801              movw R22,R16
 19AE                   .dbline 817
 19AE           ;       if(ddflag==0){
 19AE 0030              cpi R16,0
 19B0 0107              cpc R16,R17
 19B2 59F4              brne L340
 19B4           X205:
 19B4                   .dbline 817
 19B4                   .dbline 818
 19B4           ;       lcd_write_char(3,0,0xA1);
 19B4 81EA              ldi R24,161
 19B6 8883              std y+0,R24
 19B8 2227              clr R18
 19BA 03E0              ldi R16,3
 19BC 0E940000          xcall _lcd_write_char
 19C0                   .dbline 819
 19C0           ;       lcd_write_char_con(0,0xC1);
 19C0 21EC              ldi R18,193
 19C2 0027              clr R16
 19C4 0E940000          xcall _lcd_write_char_con
 19C8                   .dbline 820
 19C8           ;    }else {
 19C8 0AC0              xjmp L341
 19CA           L340:
 19CA                   .dbline 820
 19CA                   .dbline 821
 19CA           ;       lcd_write_char(3,0,0xA1);
 19CA 81EA              ldi R24,161
 19CC 8883              std y+0,R24
 19CE 2227              clr R18
 19D0 03E0              ldi R16,3
 19D2 0E940000          xcall _lcd_write_char
 19D6                   .dbline 822
 19D6           ;       lcd_write_char_con(0,0xCC);
 19D6 2CEC              ldi R18,204
 19D8 0027              clr R16
 19DA 0E940000          xcall _lcd_write_char_con
 19DE                   .dbline 823
 19DE           ;    }
 19DE           L341:
 19DE                   .dbline 824
 19DE           ;    cur=0;
 19DE 4427              clr R20
 19E0 5527              clr R21
 19E2                   .dbline 825
 19E2           ;    Set_White(5,0,10);
 19E2 8AE0              ldi R24,10
 19E4 8883              std y+0,R24
 19E6 2227              clr R18
 19E8 05E0              ldi R16,5
 19EA 0E940000          xcall _Set_White
 19EE DCC0              xjmp L343
 19F0           L342:
 19F0                   .dbline 826
 19F0           ;    while(1){
 19F0                   .dbline 827
 19F0           ;       keyV=KeyScan_once();
 19F0 0E940000          xcall _KeyScan_once
 19F4 A02E              mov R10,R16
 19F6                   .dbline 828
 19F6           ;         if(keyV=='u'){
 19F6 0537              cpi R16,117
 19F8 39F5              brne L345
 19FA           X206:
 19FA                   .dbline 828
 19FA                   .dbline 829
 19FA           ;           switch(cur){
 19FA 4130              cpi R20,1
 19FC E0E0              ldi R30,0
 19FE 5E07              cpc R21,R30
 1A00 29F0              breq L349
 1A02           X207:
 1A02 4230              cpi R20,2
 1A04 E0E0              ldi R30,0
 1A06 5E07              cpc R21,R30
 1A08 81F0              breq L350
 1A0A           X208:
 1A0A CEC0              xjmp L346
 1A0C           L349:
 1A0C                   .dbline 831
 1A0C           ;                 case 1:
 1A0C           ;                  Set_White_off(5,1,8);
 1A0C 88E0              ldi R24,8
 1A0E 8883              std y+0,R24
 1A10 21E0              ldi R18,1
 1A12 05E0              ldi R16,5
 1A14 0E940000          xcall _Set_White_off
 1A18                   .dbline 832
 1A18           ;                  Set_White(5,0,10);
 1A18 8AE0              ldi R24,10
 1A1A 8883              std y+0,R24
 1A1C 2227              clr R18
 1A1E 05E0              ldi R16,5
 1A20 0E940000          xcall _Set_White
 1A24                   .dbline 833
 1A24           ;                  cur=0;
 1A24 4427              clr R20
 1A26 5527              clr R21
 1A28                   .dbline 834
 1A28           ;                  break;
 1A28 BFC0              xjmp L346
 1A2A           L350:
 1A2A                   .dbline 836
 1A2A           ;                 case 2: 
 1A2A           ;                  Set_White_off(5,2,8);
 1A2A 88E0              ldi R24,8
 1A2C 8883              std y+0,R24
 1A2E 22E0              ldi R18,2
 1A30 05E0              ldi R16,5
 1A32 0E940000          xcall _Set_White_off
 1A36                   .dbline 837
 1A36           ;                  Set_White(5,1,8);
 1A36 88E0              ldi R24,8
 1A38 8883              std y+0,R24
 1A3A 21E0              ldi R18,1
 1A3C 05E0              ldi R16,5
 1A3E 0E940000          xcall _Set_White
 1A42                   .dbline 838
 1A42           ;                  cur=1;
 1A42 41E0              ldi R20,1
 1A44 50E0              ldi R21,0
 1A46                   .dbline 839
 1A46           ;                  break;
 1A46                   .dbline 841
 1A46           ;               }
 1A46           ;         }else if(keyV=='d'){
 1A46 B0C0              xjmp L346
 1A48           L345:
 1A48                   .dbline 841
 1A48 8A2D              mov R24,R10
 1A4A 8436              cpi R24,100
 1A4C 31F5              brne L351
 1A4E           X209:
 1A4E                   .dbline 841
 1A4E                   .dbline 842
 1A4E           ;             switch(cur){
 1A4E 4030              cpi R20,0
 1A50 4507              cpc R20,R21
 1A52 29F0              breq L355
 1A54           X210:
 1A54 4130              cpi R20,1
 1A56 E0E0              ldi R30,0
 1A58 5E07              cpc R21,R30
 1A5A 81F0              breq L356
 1A5C           X211:
 1A5C A5C0              xjmp L352
 1A5E           L355:
 1A5E                   .dbline 844
 1A5E           ;                 case 0:
 1A5E           ;                  Set_White_off(5,0,10);
 1A5E 8AE0              ldi R24,10
 1A60 8883              std y+0,R24
 1A62 2227              clr R18
 1A64 05E0              ldi R16,5
 1A66 0E940000          xcall _Set_White_off
 1A6A                   .dbline 845
 1A6A           ;                  Set_White(5,1,8);
 1A6A 88E0              ldi R24,8
 1A6C 8883              std y+0,R24
 1A6E 21E0              ldi R18,1
 1A70 05E0              ldi R16,5
 1A72 0E940000          xcall _Set_White
 1A76                   .dbline 846
 1A76           ;                  cur=1;
 1A76 41E0              ldi R20,1
 1A78 50E0              ldi R21,0
 1A7A                   .dbline 847
 1A7A           ;                  break;
 1A7A 96C0              xjmp L352
 1A7C           L356:
 1A7C                   .dbline 849
 1A7C           ;                 case 1: 
 1A7C           ;                  Set_White_off(5,1,8);
 1A7C 88E0              ldi R24,8
 1A7E 8883              std y+0,R24
 1A80 21E0              ldi R18,1
 1A82 05E0              ldi R16,5
 1A84 0E940000          xcall _Set_White_off
 1A88                   .dbline 850
 1A88           ;                  Set_White(5,2,8);
 1A88 88E0              ldi R24,8
 1A8A 8883              std y+0,R24
 1A8C 22E0              ldi R18,2
 1A8E 05E0              ldi R16,5
 1A90 0E940000          xcall _Set_White
 1A94                   .dbline 851
 1A94           ;                  cur=2;
 1A94 42E0              ldi R20,2
 1A96 50E0              ldi R21,0
 1A98                   .dbline 852
 1A98           ;                  break;
 1A98                   .dbline 854
 1A98           ;               }
 1A98           ;         }else if(keyV=='e'){
 1A98 87C0              xjmp L352
 1A9A           L351:
 1A9A                   .dbline 854
 1A9A 8A2D              mov R24,R10
 1A9C 8536              cpi R24,101
 1A9E 39F5              brne L357
 1AA0           X212:
 1AA0                   .dbline 854
 1AA0                   .dbline 855
 1AA0           ;            switch(cur){
 1AA0 4030              cpi R20,0
 1AA2 4507              cpc R20,R21
 1AA4 49F0              breq L361
 1AA6           X213:
 1AA6 4130              cpi R20,1
 1AA8 E0E0              ldi R30,0
 1AAA 5E07              cpc R21,R30
 1AAC 61F0              breq L362
 1AAE           X214:
 1AAE 4230              cpi R20,2
 1AB0 E0E0              ldi R30,0
 1AB2 5E07              cpc R21,R30
 1AB4 79F0              breq L363
 1AB6           X215:
 1AB6 14C0              xjmp L360
 1AB8           L361:
 1AB8                   .dbline 857
 1AB8           ;                case 0: 
 1AB8           ;                  Set_White_off(5,0,10);
 1AB8 8AE0              ldi R24,10
 1ABA 8883              std y+0,R24
 1ABC 2227              clr R18
 1ABE 05E0              ldi R16,5
 1AC0 0E940000          xcall _Set_White_off
 1AC4                   .dbline 858
 1AC4           ;                   break;
 1AC4 0DC0              xjmp L360
 1AC6           L362:
 1AC6                   .dbline 860
 1AC6           ;                case 1:
 1AC6           ;                  Set_White_off(5,1,8);
 1AC6 88E0              ldi R24,8
 1AC8 8883              std y+0,R24
 1ACA 21E0              ldi R18,1
 1ACC 05E0              ldi R16,5
 1ACE 0E940000          xcall _Set_White_off
 1AD2                   .dbline 861
 1AD2           ;                  break;
 1AD2 06C0              xjmp L360
 1AD4           L363:
 1AD4                   .dbline 863
 1AD4           ;                case 2:
 1AD4           ;                 Set_White_off(5,2,8);
 1AD4 88E0              ldi R24,8
 1AD6 8883              std y+0,R24
 1AD8 22E0              ldi R18,2
 1ADA 05E0              ldi R16,5
 1ADC 0E940000          xcall _Set_White_off
 1AE0                   .dbline 864
 1AE0           ;                 break;
 1AE0                   .dbline 867
 1AE0           ;       
 1AE0           ;                 default:
 1AE0           ;                  break;
 1AE0           L360:
 1AE0                   .dbline 869
 1AE0           ;                }
 1AE0           ;           pageNum=1;
 1AE0 81E0              ldi R24,1
 1AE2 90E0              ldi R25,0
 1AE4 90930100          sts _pageNum+1,R25
 1AE8 80930000          sts _pageNum,R24
 1AEC                   .dbline 870
 1AEC           ;               return;
 1AEC 5EC0              xjmp L336
 1AEE           L357:
 1AEE                   .dbline 871
 1AEE           ;         }else if(keyV=='t'){
 1AEE 8A2D              mov R24,R10
 1AF0 8437              cpi R24,116
 1AF2 09F0              breq X223
 1AF4 59C0              xjmp L364
 1AF6           X223:
 1AF6           X216:
 1AF6                   .dbline 871
 1AF6                   .dbline 872
 1AF6           ;           switch(cur){
 1AF6 4030              cpi R20,0
 1AF8 4507              cpc R20,R21
 1AFA 49F0              breq L368
 1AFC           X217:
 1AFC 4130              cpi R20,1
 1AFE E0E0              ldi R30,0
 1B00 5E07              cpc R21,R30
 1B02 71F1              breq L373
 1B04           X218:
 1B04 4230              cpi R20,2
 1B06 E0E0              ldi R30,0
 1B08 5E07              cpc R21,R30
 1B0A B1F1              breq L374
 1B0C           X219:
 1B0C 4DC0              xjmp L366
 1B0E           L368:
 1B0E                   .dbline 875
 1B0E           ;                 case 0:
 1B0E           ;                    //执行EEPROM操作
 1B0E           ;                        if(ddflag==0){
 1B0E 6030              cpi R22,0
 1B10 6707              cpc R22,R23
 1B12 19F4              brne L369
 1B14           X220:
 1B14                   .dbline 875
 1B14                   .dbline 876
 1B14           ;                          ddflag=1;
 1B14 61E0              ldi R22,1
 1B16 70E0              ldi R23,0
 1B18                   .dbline 877
 1B18           ;                        }else{
 1B18 02C0              xjmp L370
 1B1A           L369:
 1B1A                   .dbline 877
 1B1A                   .dbline 878
 1B1A           ;                          ddflag=0;
 1B1A 6627              clr R22
 1B1C 7727              clr R23
 1B1E                   .dbline 879
 1B1E           ;                        }
 1B1E           L370:
 1B1E                   .dbline 880
 1B1E           ;                        EEPROM_write(0,0,ddflag);//写入到EEPROM
 1B1E 7983              std y+1,R23
 1B20 6883              std y+0,R22
 1B22 2227              clr R18
 1B24 3327              clr R19
 1B26 0027              clr R16
 1B28 1127              clr R17
 1B2A 0E940000          xcall _EEPROM_write
 1B2E                   .dbline 881
 1B2E           ;                       if(ddflag==0){
 1B2E 6030              cpi R22,0
 1B30 6707              cpc R22,R23
 1B32 59F4              brne L371
 1B34           X221:
 1B34                   .dbline 881
 1B34                   .dbline 882
 1B34           ;                lcd_write_char(3,0,0xA1);
 1B34 81EA              ldi R24,161
 1B36 8883              std y+0,R24
 1B38 2227              clr R18
 1B3A 03E0              ldi R16,3
 1B3C 0E940000          xcall _lcd_write_char
 1B40                   .dbline 883
 1B40           ;                lcd_write_char_con(0,0xC1);
 1B40 21EC              ldi R18,193
 1B42 0027              clr R16
 1B44 0E940000          xcall _lcd_write_char_con
 1B48                   .dbline 884
 1B48           ;             }else{
 1B48 2FC0              xjmp L367
 1B4A           L371:
 1B4A                   .dbline 884
 1B4A                   .dbline 885
 1B4A           ;               lcd_write_char(3,0,0xA1);
 1B4A 81EA              ldi R24,161
 1B4C 8883              std y+0,R24
 1B4E 2227              clr R18
 1B50 03E0              ldi R16,3
 1B52 0E940000          xcall _lcd_write_char
 1B56                   .dbline 886
 1B56           ;               lcd_write_char_con(0,0xCC);
 1B56 2CEC              ldi R18,204
 1B58 0027              clr R16
 1B5A 0E940000          xcall _lcd_write_char_con
 1B5E                   .dbline 887
 1B5E           ;             }
 1B5E                   .dbline 888
 1B5E           ;                   break;
 1B5E 24C0              xjmp L367
 1B60           L373:
 1B60                   .dbline 890
 1B60           ;                 case 1:
 1B60           ;                  pageNum=8;
 1B60 88E0              ldi R24,8
 1B62 90E0              ldi R25,0
 1B64 90930100          sts _pageNum+1,R25
 1B68 80930000          sts _pageNum,R24
 1B6C                   .dbline 891
 1B6C           ;                  Set_White_off(5,1,8);
 1B6C 8883              std y+0,R24
 1B6E 21E0              ldi R18,1
 1B70 05E0              ldi R16,5
 1B72 0E940000          xcall _Set_White_off
 1B76                   .dbline 892
 1B76           ;                  return;
 1B76 19C0              xjmp L336
 1B78           L374:
 1B78                   .dbline 895
 1B78           ;                 
 1B78           ;                 case 2://重置系统
 1B78           ;                   prePageNum=5;
 1B78 85E0              ldi R24,5
 1B7A 90E0              ldi R25,0
 1B7C 90930100          sts _prePageNum+1,R25
 1B80 80930000          sts _prePageNum,R24
 1B84                   .dbline 896
 1B84           ;                   pageNum=7;
 1B84 87E0              ldi R24,7
 1B86 90930100          sts _pageNum+1,R25
 1B8A 80930000          sts _pageNum,R24
 1B8E                   .dbline 897
 1B8E           ;                       pageParam[2]=0;
 1B8E 2224              clr R2
 1B90 3324              clr R3
 1B92 30920500          sts _pageParam+4+1,R3
 1B96 20920400          sts _pageParam+4,R2
 1B9A                   .dbline 898
 1B9A           ;                   Set_White_off(5,2,8);
 1B9A 88E0              ldi R24,8
 1B9C 8883              std y+0,R24
 1B9E 22E0              ldi R18,2
 1BA0 05E0              ldi R16,5
 1BA2 0E940000          xcall _Set_White_off
 1BA6                   .dbline 899
 1BA6           ;                  return;
 1BA6 01C0              xjmp L336
 1BA8           L366:
 1BA8           L367:
 1BA8                   .dbline 902
 1BA8           ;               }
 1BA8           ;           
 1BA8           ;         }
 1BA8           L364:
 1BA8           L352:
 1BA8           L346:
 1BA8                   .dbline 903
 1BA8           ;    }
 1BA8           L343:
 1BA8                   .dbline 826
 1BA8 23CF              xjmp L342
 1BAA           X222:
 1BAA                   .dbline -2
 1BAA           L336:
 1BAA                   .dbline 0 ; func end
 1BAA 2296              adiw R28,2
 1BAC 0C940000          xjmp pop_xgsetF00C
 1BB0                   .dbsym r ddflag 22 i
 1BB0                   .dbsym r cur 20 i
 1BB0                   .dbsym r keyV 10 c
 1BB0                   .dbend
 1BB0                   .dbfunc e page6 _page6 fV
                        .even
 1BB0           _page6::
 1BB0 2297              sbiw R28,2
 1BB2                   .dbline -1
 1BB2                   .dbline 906
 1BB2           ;    
 1BB2           ;  }
 1BB2           ;  void page6(void){//复用的方法
 1BB2                   .dbline 907
 1BB2           ;  if(pageParam[1]==0){
 1BB2 20900200          lds R2,_pageParam+2
 1BB6 30900300          lds R3,_pageParam+2+1
 1BBA 2220              tst R2
 1BBC 59F4              brne L377
 1BBE 3320              tst R3
 1BC0 49F4              brne L377
 1BC2           X224:
 1BC2                   .dbline 907
 1BC2                   .dbline 908
 1BC2           ;      lcd_write_str(4,1,"时间保存成功！");
 1BC2 80E0              ldi R24,<L380
 1BC4 90E0              ldi R25,>L380
 1BC6 9983              std y+1,R25
 1BC8 8883              std y+0,R24
 1BCA 21E0              ldi R18,1
 1BCC 04E0              ldi R16,4
 1BCE 0E940000          xcall _lcd_write_str
 1BD2                   .dbline 909
 1BD2           ;    }else if(pageParam[1]==1){
 1BD2 21C0              xjmp L378
 1BD4           L377:
 1BD4                   .dbline 909
 1BD4 80910200          lds R24,_pageParam+2
 1BD8 90910300          lds R25,_pageParam+2+1
 1BDC 8130              cpi R24,1
 1BDE E0E0              ldi R30,0
 1BE0 9E07              cpc R25,R30
 1BE2 49F4              brne L381
 1BE4           X225:
 1BE4                   .dbline 909
 1BE4                   .dbline 910
 1BE4           ;      lcd_write_str(4,1,"温度保存成功！");
 1BE4 80E0              ldi R24,<L384
 1BE6 90E0              ldi R25,>L384
 1BE8 9983              std y+1,R25
 1BEA 8883              std y+0,R24
 1BEC 21E0              ldi R18,1
 1BEE 04E0              ldi R16,4
 1BF0 0E940000          xcall _lcd_write_str
 1BF4                   .dbline 911
 1BF4           ;    }else if(pageParam[1]==2){
 1BF4 10C0              xjmp L382
 1BF6           L381:
 1BF6                   .dbline 911
 1BF6 80910200          lds R24,_pageParam+2
 1BFA 90910300          lds R25,_pageParam+2+1
 1BFE 8230              cpi R24,2
 1C00 E0E0              ldi R30,0
 1C02 9E07              cpc R25,R30
 1C04 41F4              brne L385
 1C06           X226:
 1C06                   .dbline 911
 1C06                   .dbline 912
 1C06           ;      lcd_write_str(4,1,"温度保存失败！");
 1C06 80E0              ldi R24,<L388
 1C08 90E0              ldi R25,>L388
 1C0A 9983              std y+1,R25
 1C0C 8883              std y+0,R24
 1C0E 21E0              ldi R18,1
 1C10 04E0              ldi R16,4
 1C12 0E940000          xcall _lcd_write_str
 1C16                   .dbline 913
 1C16           ;    }
 1C16           L385:
 1C16           L382:
 1C16           L378:
 1C16                   .dbline 914
 1C16           ;    delay_ms(500);
 1C16 04EF              ldi R16,500
 1C18 11E0              ldi R17,1
 1C1A 0E940000          xcall _delay_ms
 1C1E                   .dbline 915
 1C1E           ;    pageNum=prePageNum;
 1C1E 20900000          lds R2,_prePageNum
 1C22 30900100          lds R3,_prePageNum+1
 1C26 30920100          sts _pageNum+1,R3
 1C2A 20920000          sts _pageNum,R2
 1C2E                   .dbline -2
 1C2E           L376:
 1C2E                   .dbline 0 ; func end
 1C2E 2296              adiw R28,2
 1C30 0895              ret
 1C32                   .dbend
 1C32                   .dbfunc e page7 _page7 fV
 1C32           ;            cur -> R20,R21
 1C32           ;           keyV -> R10
                        .even
 1C32           _page7::
 1C32 0E940000          xcall push_xgsetF00C
 1C36 2297              sbiw R28,2
 1C38                   .dbline -1
 1C38                   .dbline 917
 1C38           ;  }
 1C38           ;  void page7(void){
 1C38                   .dbline 918
 1C38           ;    uint cur=1;
 1C38 41E0              ldi R20,1
 1C3A 50E0              ldi R21,0
 1C3C                   .dbline 920
 1C3C           ;    uchar keyV;
 1C3C           ;    lcd_write_str(2,0,"是否重置");
 1C3C 80E0              ldi R24,<L390
 1C3E 90E0              ldi R25,>L390
 1C40 9983              std y+1,R25
 1C42 8883              std y+0,R24
 1C44 2227              clr R18
 1C46 02E0              ldi R16,2
 1C48 0E940000          xcall _lcd_write_str
 1C4C                   .dbline 921
 1C4C           ;    lcd_write_str(2,2,"确认");
 1C4C 80E0              ldi R24,<L391
 1C4E 90E0              ldi R25,>L391
 1C50 9983              std y+1,R25
 1C52 8883              std y+0,R24
 1C54 22E0              ldi R18,2
 1C56 02E0              ldi R16,2
 1C58 0E940000          xcall _lcd_write_str
 1C5C                   .dbline 922
 1C5C           ;    lcd_write_str(8,2,"取消");
 1C5C 80E0              ldi R24,<L118
 1C5E 90E0              ldi R25,>L118
 1C60 9983              std y+1,R25
 1C62 8883              std y+0,R24
 1C64 22E0              ldi R18,2
 1C66 08E0              ldi R16,8
 1C68 0E940000          xcall _lcd_write_str
 1C6C                   .dbline 923
 1C6C           ;    Set_White(9,2,10);
 1C6C 8AE0              ldi R24,10
 1C6E 8883              std y+0,R24
 1C70 22E0              ldi R18,2
 1C72 09E0              ldi R16,9
 1C74 0E940000          xcall _Set_White
 1C78 78C0              xjmp L393
 1C7A           L392:
 1C7A                   .dbline 924
 1C7A           ;     while(1){
 1C7A                   .dbline 925
 1C7A           ;       keyV=KeyScan_once();
 1C7A 0E940000          xcall _KeyScan_once
 1C7E A02E              mov R10,R16
 1C80                   .dbline 926
 1C80           ;         switch(keyV){
 1C80 6A2D              mov R22,R10
 1C82 7727              clr R23
 1C84 6C36              cpi R22,108
 1C86 E0E0              ldi R30,0
 1C88 7E07              cpc R23,R30
 1C8A A1F0              breq L398
 1C8C           X227:
 1C8C 8CE6              ldi R24,108
 1C8E 90E0              ldi R25,0
 1C90 8617              cp R24,R22
 1C92 9707              cpc R25,R23
 1C94 34F0              brlt L409
 1C96           X228:
 1C96           L408:
 1C96 6536              cpi R22,101
 1C98 E0E0              ldi R30,0
 1C9A 7E07              cpc R23,R30
 1C9C 09F4              brne X236
 1C9E 50C0              xjmp L407
 1CA0           X236:
 1CA0           X229:
 1CA0 64C0              xjmp L395
 1CA2           L409:
 1CA2 6237              cpi R22,114
 1CA4 E0E0              ldi R30,0
 1CA6 7E07              cpc R23,R30
 1CA8 C9F0              breq L401
 1CAA           X230:
 1CAA 6437              cpi R22,116
 1CAC E0E0              ldi R30,0
 1CAE 7E07              cpc R23,R30
 1CB0 41F1              breq L404
 1CB2           X231:
 1CB2 5BC0              xjmp L395
 1CB4           L398:
 1CB4                   .dbline 928
 1CB4           ;           case 'l':
 1CB4           ;                  if(cur==1){
 1CB4 4130              cpi R20,1
 1CB6 E0E0              ldi R30,0
 1CB8 5E07              cpc R21,R30
 1CBA 09F0              breq X237
 1CBC 56C0              xjmp L396
 1CBE           X237:
 1CBE           X232:
 1CBE                   .dbline 928
 1CBE                   .dbline 929
 1CBE           ;                     Set_White_off(9,2,10);
 1CBE 8AE0              ldi R24,10
 1CC0 8883              std y+0,R24
 1CC2 22E0              ldi R18,2
 1CC4 09E0              ldi R16,9
 1CC6 0E940000          xcall _Set_White_off
 1CCA                   .dbline 930
 1CCA           ;                     Set_White(3,2,4);
 1CCA 84E0              ldi R24,4
 1CCC 8883              std y+0,R24
 1CCE 22E0              ldi R18,2
 1CD0 03E0              ldi R16,3
 1CD2 0E940000          xcall _Set_White
 1CD6                   .dbline 931
 1CD6           ;                         cur=0;
 1CD6 4427              clr R20
 1CD8 5527              clr R21
 1CDA                   .dbline 932
 1CDA           ;                  }
 1CDA                   .dbline 933
 1CDA           ;                  break;
 1CDA 47C0              xjmp L396
 1CDC           L401:
 1CDC                   .dbline 935
 1CDC           ;               case 'r':
 1CDC           ;                  if(cur==0){
 1CDC 4030              cpi R20,0
 1CDE 4507              cpc R20,R21
 1CE0 09F0              breq X238
 1CE2 43C0              xjmp L396
 1CE4           X238:
 1CE4           X233:
 1CE4                   .dbline 935
 1CE4                   .dbline 936
 1CE4           ;                     Set_White_off(3,2,4);
 1CE4 84E0              ldi R24,4
 1CE6 8883              std y+0,R24
 1CE8 22E0              ldi R18,2
 1CEA 03E0              ldi R16,3
 1CEC 0E940000          xcall _Set_White_off
 1CF0                   .dbline 937
 1CF0           ;                     Set_White(9,2,10);
 1CF0 8AE0              ldi R24,10
 1CF2 8883              std y+0,R24
 1CF4 22E0              ldi R18,2
 1CF6 09E0              ldi R16,9
 1CF8 0E940000          xcall _Set_White
 1CFC                   .dbline 938
 1CFC           ;                         cur=1;
 1CFC 41E0              ldi R20,1
 1CFE 50E0              ldi R21,0
 1D00                   .dbline 939
 1D00           ;                  }
 1D00                   .dbline 940
 1D00           ;                 break;
 1D00 34C0              xjmp L396
 1D02           L404:
 1D02                   .dbline 943
 1D02           ;               case 't':
 1D02           ;                 //执行相关操作          
 1D02           ;                 if(cur==0){
 1D02 4030              cpi R20,0
 1D04 4507              cpc R20,R21
 1D06 69F4              brne L405
 1D08           X234:
 1D08                   .dbline 943
 1D08                   .dbline 944
 1D08           ;                    Set_White_off(3,2,4);
 1D08 84E0              ldi R24,4
 1D0A 8883              std y+0,R24
 1D0C 22E0              ldi R18,2
 1D0E 03E0              ldi R16,3
 1D10 0E940000          xcall _Set_White_off
 1D14                   .dbline 946
 1D14           ;                      //进入重置画面。在Page9启动看门狗重置系统、不喂狗。数据重置对呀操作不同
 1D14           ;                      pageNum=9;
 1D14 89E0              ldi R24,9
 1D16 90E0              ldi R25,0
 1D18 90930100          sts _pageNum+1,R25
 1D1C 80930000          sts _pageNum,R24
 1D20                   .dbline 947
 1D20           ;                 }else {
 1D20 25C0              xjmp L389
 1D22           L405:
 1D22                   .dbline 947
 1D22                   .dbline 948
 1D22           ;                     Set_White_off(9,2,10);
 1D22 8AE0              ldi R24,10
 1D24 8883              std y+0,R24
 1D26 22E0              ldi R18,2
 1D28 09E0              ldi R16,9
 1D2A 0E940000          xcall _Set_White_off
 1D2E                   .dbline 949
 1D2E           ;                      pageNum=prePageNum;
 1D2E 20900000          lds R2,_prePageNum
 1D32 30900100          lds R3,_prePageNum+1
 1D36 30920100          sts _pageNum+1,R3
 1D3A 20920000          sts _pageNum,R2
 1D3E                   .dbline 950
 1D3E           ;                 }
 1D3E                   .dbline 951
 1D3E           ;                 return;
 1D3E 16C0              xjmp L389
 1D40           L407:
 1D40                   .dbline 953
 1D40           ;                case 'e':
 1D40           ;                   Set_White_off(3,2,4);
 1D40 84E0              ldi R24,4
 1D42 8883              std y+0,R24
 1D44 22E0              ldi R18,2
 1D46 03E0              ldi R16,3
 1D48 0E940000          xcall _Set_White_off
 1D4C                   .dbline 954
 1D4C           ;                   Set_White_off(9,2,10);
 1D4C 8AE0              ldi R24,10
 1D4E 8883              std y+0,R24
 1D50 22E0              ldi R18,2
 1D52 09E0              ldi R16,9
 1D54 0E940000          xcall _Set_White_off
 1D58                   .dbline 955
 1D58           ;                   pageNum=prePageNum;
 1D58 20900000          lds R2,_prePageNum
 1D5C 30900100          lds R3,_prePageNum+1
 1D60 30920100          sts _pageNum+1,R3
 1D64 20920000          sts _pageNum,R2
 1D68                   .dbline 956
 1D68           ;                   return;
 1D68 01C0              xjmp L389
 1D6A           L395:
 1D6A           L396:
 1D6A                   .dbline 958
 1D6A           ;         }
 1D6A           ;       }
 1D6A           L393:
 1D6A                   .dbline 924
 1D6A 87CF              xjmp L392
 1D6C           X235:
 1D6C                   .dbline -2
 1D6C           L389:
 1D6C                   .dbline 0 ; func end
 1D6C 2296              adiw R28,2
 1D6E 0C940000          xjmp pop_xgsetF00C
 1D72                   .dbsym r cur 20 i
 1D72                   .dbsym r keyV 10 c
 1D72                   .dbend
                        .area data(ram, con, rel)
 0106                   .dbfile E:\ICCDemo\Temp_Control\temp_control\pages.c
 0106           L411:
 0106                   .blkb 2
                        .area idata
 0106 0100              .word 1
                        .area data(ram, con, rel)
 0108                   .dbfile E:\ICCDemo\Temp_Control\temp_control\pages.c
 0108                   .blkb 2
                        .area idata
 0108 0200              .word 2
                        .area data(ram, con, rel)
 010A                   .dbfile E:\ICCDemo\Temp_Control\temp_control\pages.c
 010A                   .blkb 2
                        .area idata
 010A 0300              .word 3
                        .area data(ram, con, rel)
 010C                   .dbfile E:\ICCDemo\Temp_Control\temp_control\pages.c
 010C                   .blkb 2
                        .area idata
 010C 0400              .word 4
                        .area data(ram, con, rel)
 010E                   .dbfile E:\ICCDemo\Temp_Control\temp_control\pages.c
 010E                   .blkb 2
                        .area idata
 010E 0600              .word 6
                        .area data(ram, con, rel)
 0110                   .dbfile E:\ICCDemo\Temp_Control\temp_control\pages.c
 0110                   .blkb 2
                        .area idata
 0110 0700              .word 7
                        .area data(ram, con, rel)
 0112                   .dbfile E:\ICCDemo\Temp_Control\temp_control\pages.c
 0112                   .blkb 2
                        .area idata
 0112 0900              .word 9
                        .area data(ram, con, rel)
 0114                   .dbfile E:\ICCDemo\Temp_Control\temp_control\pages.c
 0114                   .blkb 2
                        .area idata
 0114 0A00              .word 10
                        .area data(ram, con, rel)
 0116                   .dbfile E:\ICCDemo\Temp_Control\temp_control\pages.c
 0116                   .blkb 2
                        .area idata
 0116 0200              .word 2
                        .area data(ram, con, rel)
 0118                   .dbfile E:\ICCDemo\Temp_Control\temp_control\pages.c
 0118                   .blkb 2
                        .area idata
 0118 0300              .word 3
                        .area data(ram, con, rel)
 011A                   .dbfile E:\ICCDemo\Temp_Control\temp_control\pages.c
 011A                   .blkb 2
                        .area idata
 011A 0500              .word 5
                        .area data(ram, con, rel)
 011C                   .dbfile E:\ICCDemo\Temp_Control\temp_control\pages.c
 011C                   .blkb 2
                        .area idata
 011C 0600              .word 6
                        .area data(ram, con, rel)
 011E                   .dbfile E:\ICCDemo\Temp_Control\temp_control\pages.c
 011E                   .blkb 2
                        .area idata
 011E 0800              .word 8
                        .area data(ram, con, rel)
 0120                   .dbfile E:\ICCDemo\Temp_Control\temp_control\pages.c
 0120                   .blkb 2
                        .area idata
 0120 0900              .word 9
                        .area data(ram, con, rel)
 0122                   .dbfile E:\ICCDemo\Temp_Control\temp_control\pages.c
                        .area text(rom, con, rel)
 1D72                   .dbfile E:\ICCDemo\Temp_Control\temp_control\pages.c
 1D72                   .dbfunc e page8 _page8 fV
 1D72           ;         dateAc -> y+38
 1D72           ;     time_cacah -> R22,R23
 1D72           ;           keyV -> R22
 1D72           ;            cur -> R20,R21
 1D72           ;           date -> y+8
 1D72           ;              i -> R22,R23
                        .even
 1D72           _page8::
 1D72 0E940000          xcall push_xgsetF00C
 1D76 EF97              sbiw R28,63
 1D78 2397              sbiw R28,3  ; offset = 66
 1D7A                   .dbline -1
 1D7A                   .dbline 960
 1D7A           ;  }
 1D7A           ;  void page8(void){
 1D7A                   .dbline 961
 1D7A           ;    uint cur=0;
 1D7A 4427              clr R20
 1D7C 5527              clr R21
 1D7E                   .dbline 966
 1D7E           ;    uchar keyV;
 1D7E           ;    uint date[15];
 1D7E           ;    uint i;
 1D7E           ;    uint time_cacah;
 1D7E           ;     uint dateAc[14]={1,2,3,4,6,7,9,10,2,3,5,6,8,9};
 1D7E 80E0              ldi R24,<L411
 1D80 90E0              ldi R25,>L411
 1D82 FE01              movw R30,R28
 1D84 B696              adiw R30,38
 1D86 0CE1              ldi R16,28
 1D88 10E0              ldi R17,0
 1D8A FA93              st -y,R31
 1D8C EA93              st -y,R30
 1D8E 9A93              st -y,R25
 1D90 8A93              st -y,R24
 1D92 0E940000          xcall asgnblk
 1D96                   .dbline 967
 1D96           ;    time_cacah=Read1307(0x06);
 1D96 06E0              ldi R16,6
 1D98 0E940000          xcall _Read1307
 1D9C B801              movw R22,R16
 1D9E                   .dbline 968
 1D9E           ;    date[0]=2;
 1D9E 82E0              ldi R24,2
 1DA0 90E0              ldi R25,0
 1DA2 9987              std y+9,R25
 1DA4 8887              std y+8,R24
 1DA6                   .dbline 969
 1DA6           ;    date[1]=0;
 1DA6 2224              clr R2
 1DA8 3324              clr R3
 1DAA 3B86              std y+11,R3
 1DAC 2A86              std y+10,R2
 1DAE                   .dbline 970
 1DAE           ;    date[2]=time_cacah>>4;
 1DAE 1B01              movw R2,R22
 1DB0 3694              lsr R3
 1DB2 2794              ror R2
 1DB4 3694              lsr R3
 1DB6 2794              ror R2
 1DB8 3694              lsr R3
 1DBA 2794              ror R2
 1DBC 3694              lsr R3
 1DBE 2794              ror R2
 1DC0 3D86              std y+13,R3
 1DC2 2C86              std y+12,R2
 1DC4                   .dbline 971
 1DC4           ;    date[3]=time_cacah&0x0F;
 1DC4 CB01              movw R24,R22
 1DC6 8F70              andi R24,15
 1DC8 9070              andi R25,0
 1DCA 9F87              std y+15,R25
 1DCC 8E87              std y+14,R24
 1DCE                   .dbline 972
 1DCE           ;    time_cacah=Read1307(0x05);
 1DCE 05E0              ldi R16,5
 1DD0 0E940000          xcall _Read1307
 1DD4 B801              movw R22,R16
 1DD6                   .dbline 973
 1DD6           ;    date[4]=(time_cacah>>4)&0x01;
 1DD6 CB01              movw R24,R22
 1DD8 9695              lsr R25
 1DDA 8795              ror R24
 1DDC 9695              lsr R25
 1DDE 8795              ror R24
 1DE0 9695              lsr R25
 1DE2 8795              ror R24
 1DE4 9695              lsr R25
 1DE6 8795              ror R24
 1DE8 8170              andi R24,1
 1DEA 9070              andi R25,0
 1DEC 998B              std y+17,R25
 1DEE 888B              std y+16,R24
 1DF0                   .dbline 974
 1DF0           ;    date[5]=time_cacah&0x0F;
 1DF0 CB01              movw R24,R22
 1DF2 8F70              andi R24,15
 1DF4 9070              andi R25,0
 1DF6 9B8B              std y+19,R25
 1DF8 8A8B              std y+18,R24
 1DFA                   .dbline 975
 1DFA           ;     time_cacah=Read1307(0x04);
 1DFA 04E0              ldi R16,4
 1DFC 0E940000          xcall _Read1307
 1E00 5801              movw R10,R16
 1E02 B501              movw R22,R10
 1E04                   .dbline 976
 1E04           ;    date[6]=0x03&(time_cacah>>4);
 1E04 CB01              movw R24,R22
 1E06 9695              lsr R25
 1E08 8795              ror R24
 1E0A 9695              lsr R25
 1E0C 8795              ror R24
 1E0E 9695              lsr R25
 1E10 8795              ror R24
 1E12 9695              lsr R25
 1E14 8795              ror R24
 1E16 8370              andi R24,3
 1E18 9070              andi R25,0
 1E1A 9D8B              std y+21,R25
 1E1C 8C8B              std y+20,R24
 1E1E                   .dbline 977
 1E1E           ;    date[7]=time_cacah&0x0F;
 1E1E CB01              movw R24,R22
 1E20 8F70              andi R24,15
 1E22 9070              andi R25,0
 1E24 9F8B              std y+23,R25
 1E26 8E8B              std y+22,R24
 1E28                   .dbline 978
 1E28           ;    time_cacah=Read1307(0x02);
 1E28 02E0              ldi R16,2
 1E2A 0E940000          xcall _Read1307
 1E2E 5801              movw R10,R16
 1E30 B501              movw R22,R10
 1E32                   .dbline 979
 1E32           ;    date[8]=0x03&(time_cacah>>4);
 1E32 CB01              movw R24,R22
 1E34 9695              lsr R25
 1E36 8795              ror R24
 1E38 9695              lsr R25
 1E3A 8795              ror R24
 1E3C 9695              lsr R25
 1E3E 8795              ror R24
 1E40 9695              lsr R25
 1E42 8795              ror R24
 1E44 8370              andi R24,3
 1E46 9070              andi R25,0
 1E48 998F              std y+25,R25
 1E4A 888F              std y+24,R24
 1E4C                   .dbline 980
 1E4C           ;    date[9]=time_cacah&0x0F;
 1E4C CB01              movw R24,R22
 1E4E 8F70              andi R24,15
 1E50 9070              andi R25,0
 1E52 9B8F              std y+27,R25
 1E54 8A8F              std y+26,R24
 1E56                   .dbline 981
 1E56           ;    time_cacah=Read1307(0x01);
 1E56 01E0              ldi R16,1
 1E58 0E940000          xcall _Read1307
 1E5C 5801              movw R10,R16
 1E5E B501              movw R22,R10
 1E60                   .dbline 982
 1E60           ;    date[10]=0x07&(time_cacah>>4);
 1E60 CB01              movw R24,R22
 1E62 9695              lsr R25
 1E64 8795              ror R24
 1E66 9695              lsr R25
 1E68 8795              ror R24
 1E6A 9695              lsr R25
 1E6C 8795              ror R24
 1E6E 9695              lsr R25
 1E70 8795              ror R24
 1E72 8770              andi R24,7
 1E74 9070              andi R25,0
 1E76 9D8F              std y+29,R25
 1E78 8C8F              std y+28,R24
 1E7A                   .dbline 983
 1E7A           ;    date[11]=time_cacah&0x0f;
 1E7A CB01              movw R24,R22
 1E7C 8F70              andi R24,15
 1E7E 9070              andi R25,0
 1E80 9F8F              std y+31,R25
 1E82 8E8F              std y+30,R24
 1E84                   .dbline 984
 1E84           ;    time_cacah=Read1307(0x00);
 1E84 0027              clr R16
 1E86 0E940000          xcall _Read1307
 1E8A 5801              movw R10,R16
 1E8C B501              movw R22,R10
 1E8E                   .dbline 985
 1E8E           ;    date[12]=0x07&(time_cacah>>4);
 1E8E CB01              movw R24,R22
 1E90 9695              lsr R25
 1E92 8795              ror R24
 1E94 9695              lsr R25
 1E96 8795              ror R24
 1E98 9695              lsr R25
 1E9A 8795              ror R24
 1E9C 9695              lsr R25
 1E9E 8795              ror R24
 1EA0 8770              andi R24,7
 1EA2 9070              andi R25,0
 1EA4 99A3              std y+33,R25
 1EA6 88A3              std y+32,R24
 1EA8                   .dbline 986
 1EA8           ;    date[13]=time_cacah&0x0F;
 1EA8 CB01              movw R24,R22
 1EAA 8F70              andi R24,15
 1EAC 9070              andi R25,0
 1EAE 9BA3              std y+35,R25
 1EB0 8AA3              std y+34,R24
 1EB2                   .dbline 987
 1EB2           ;     lcd_write_pos(1,0);
 1EB2 2227              clr R18
 1EB4 01E0              ldi R16,1
 1EB6 0E940000          xcall _lcd_write_pos
 1EBA                   .dbline 988
 1EBA           ;   for(i=0;i<8;i++){
 1EBA 6627              clr R22
 1EBC 7727              clr R23
 1EBE 20C0              xjmp L428
 1EC0           L425:
 1EC0                   .dbline 988
 1EC0                   .dbline 989
 1EC0           ;    lcd_write_char_con(0,0x30 | date[i]);
 1EC0 CE01              movw R24,R28
 1EC2 0896              adiw R24,8
 1EC4 FB01              movw R30,R22
 1EC6 EE0F              lsl R30
 1EC8 FF1F              rol R31
 1ECA E80F              add R30,R24
 1ECC F91F              adc R31,R25
 1ECE 2081              ldd R18,z+0
 1ED0 3181              ldd R19,z+1
 1ED2 2063              ori R18,48
 1ED4 0027              clr R16
 1ED6 0E940000          xcall _lcd_write_char_con
 1EDA                   .dbline 990
 1EDA           ;     lcd_write_char_con(0,' ');
 1EDA 20E2              ldi R18,32
 1EDC 0027              clr R16
 1EDE 0E940000          xcall _lcd_write_char_con
 1EE2                   .dbline 991
 1EE2           ;       if(i==3 || i==5){
 1EE2 6330              cpi R22,3
 1EE4 E0E0              ldi R30,0
 1EE6 7E07              cpc R23,R30
 1EE8 21F0              breq L431
 1EEA           X239:
 1EEA 6530              cpi R22,5
 1EEC E0E0              ldi R30,0
 1EEE 7E07              cpc R23,R30
 1EF0 29F4              brne L429
 1EF2           X240:
 1EF2           L431:
 1EF2                   .dbline 991
 1EF2                   .dbline 992
 1EF2           ;         lcd_write_str_con(0,"- ");
 1EF2 20E0              ldi R18,<L432
 1EF4 30E0              ldi R19,>L432
 1EF6 0027              clr R16
 1EF8 0E940000          xcall _lcd_write_str_con
 1EFC                   .dbline 993
 1EFC           ;       }
 1EFC           L429:
 1EFC                   .dbline 994
 1EFC           ;   }
 1EFC           L426:
 1EFC                   .dbline 988
 1EFC 6F5F              subi R22,255  ; offset = 1
 1EFE 7F4F              sbci R23,255
 1F00           L428:
 1F00                   .dbline 988
 1F00 6830              cpi R22,8
 1F02 E0E0              ldi R30,0
 1F04 7E07              cpc R23,R30
 1F06 E0F2              brlo L425
 1F08           X241:
 1F08                   .dbline 995
 1F08           ;    lcd_write_pos(2,1);
 1F08 21E0              ldi R18,1
 1F0A 02E0              ldi R16,2
 1F0C 0E940000          xcall _lcd_write_pos
 1F10                   .dbline 996
 1F10           ;    for(i=8;i<14;i++){
 1F10 68E0              ldi R22,8
 1F12 70E0              ldi R23,0
 1F14 20C0              xjmp L436
 1F16           L433:
 1F16                   .dbline 996
 1F16                   .dbline 997
 1F16           ;    lcd_write_char_con(1,0x30 | date[i]);
 1F16 CE01              movw R24,R28
 1F18 0896              adiw R24,8
 1F1A FB01              movw R30,R22
 1F1C EE0F              lsl R30
 1F1E FF1F              rol R31
 1F20 E80F              add R30,R24
 1F22 F91F              adc R31,R25
 1F24 2081              ldd R18,z+0
 1F26 3181              ldd R19,z+1
 1F28 2063              ori R18,48
 1F2A 01E0              ldi R16,1
 1F2C 0E940000          xcall _lcd_write_char_con
 1F30                   .dbline 998
 1F30           ;    lcd_write_char_con(0,' ');
 1F30 20E2              ldi R18,32
 1F32 0027              clr R16
 1F34 0E940000          xcall _lcd_write_char_con
 1F38                   .dbline 999
 1F38           ;    if(i==9 || i==11){
 1F38 6930              cpi R22,9
 1F3A E0E0              ldi R30,0
 1F3C 7E07              cpc R23,R30
 1F3E 21F0              breq L439
 1F40           X242:
 1F40 6B30              cpi R22,11
 1F42 E0E0              ldi R30,0
 1F44 7E07              cpc R23,R30
 1F46 29F4              brne L437
 1F48           X243:
 1F48           L439:
 1F48                   .dbline 999
 1F48                   .dbline 1000
 1F48           ;        lcd_write_str_con(0,": ");
 1F48 20E0              ldi R18,<L214
 1F4A 30E0              ldi R19,>L214
 1F4C 0027              clr R16
 1F4E 0E940000          xcall _lcd_write_str_con
 1F52                   .dbline 1001
 1F52           ;    }
 1F52           L437:
 1F52                   .dbline 1002
 1F52           ;   } 
 1F52           L434:
 1F52                   .dbline 996
 1F52 6F5F              subi R22,255  ; offset = 1
 1F54 7F4F              sbci R23,255
 1F56           L436:
 1F56                   .dbline 996
 1F56 6E30              cpi R22,14
 1F58 E0E0              ldi R30,0
 1F5A 7E07              cpc R23,R30
 1F5C E0F2              brlo L433
 1F5E           X244:
 1F5E                   .dbline 1003
 1F5E           ;    lcd_write_str(3,2,"保存");
 1F5E 80E0              ldi R24,<L262
 1F60 90E0              ldi R25,>L262
 1F62 9983              std y+1,R25
 1F64 8883              std y+0,R24
 1F66 22E0              ldi R18,2
 1F68 03E0              ldi R16,3
 1F6A 0E940000          xcall _lcd_write_str
 1F6E                   .dbline 1004
 1F6E           ;    lcd_write_str(8,2,"取消");
 1F6E 80E0              ldi R24,<L118
 1F70 90E0              ldi R25,>L118
 1F72 9983              std y+1,R25
 1F74 8883              std y+0,R24
 1F76 22E0              ldi R18,2
 1F78 08E0              ldi R16,8
 1F7A 0E940000          xcall _lcd_write_str
 1F7E                   .dbline 1007
 1F7E           ;    //初始化date
 1F7E           ;   
 1F7E           ;    cur=0;
 1F7E 4427              clr R20
 1F80 5527              clr R21
 1F82                   .dbline 1008
 1F82           ;    lcd_write_pos(1,0);//初始游标位置
 1F82 2227              clr R18
 1F84 01E0              ldi R16,1
 1F86 0E940000          xcall _lcd_write_pos
 1F8A                   .dbline 1009
 1F8A           ;    cur_set(3);//上半屏幕游标设置
 1F8A 03E0              ldi R16,3
 1F8C 10E0              ldi R17,0
 1F8E 0E940000          xcall _cur_set
 1F92 84C2              xjmp L441
 1F94           L440:
 1F94                   .dbline 1010
 1F94           ;    while(1){
 1F94                   .dbline 1011
 1F94           ;      pageTime(3);//
 1F94 03E0              ldi R16,3
 1F96 10E0              ldi R17,0
 1F98 0E940000          xcall _pageTime
 1F9C                   .dbline 1012
 1F9C           ;        keyV=KeyScan_once();
 1F9C 0E940000          xcall _KeyScan_once
 1FA0 A02E              mov R10,R16
 1FA2 6A2D              mov R22,R10
 1FA4                   .dbline 1013
 1FA4           ;        if(keyV=='u'){
 1FA4 0537              cpi R16,117
 1FA6 71F5              brne L443
 1FA8           X245:
 1FA8                   .dbline 1013
 1FA8                   .dbline 1014
 1FA8           ;          if(cur>13){//调到时间第一个
 1FA8 8DE0              ldi R24,13
 1FAA 90E0              ldi R25,0
 1FAC 8417              cp R24,R20
 1FAE 9507              cpc R25,R21
 1FB0 B8F4              brsh L445
 1FB2           X246:
 1FB2                   .dbline 1014
 1FB2                   .dbline 1015
 1FB2           ;               Set_White_off(4,2,5);
 1FB2 85E0              ldi R24,5
 1FB4 8883              std y+0,R24
 1FB6 22E0              ldi R18,2
 1FB8 04E0              ldi R16,4
 1FBA 0E940000          xcall _Set_White_off
 1FBE                   .dbline 1016
 1FBE           ;                       Set_White_off(9,2,10);
 1FBE 8AE0              ldi R24,10
 1FC0 8883              std y+0,R24
 1FC2 22E0              ldi R18,2
 1FC4 09E0              ldi R16,9
 1FC6 0E940000          xcall _Set_White_off
 1FCA                   .dbline 1017
 1FCA           ;               lcd_write_pos(2,1);
 1FCA 21E0              ldi R18,1
 1FCC 02E0              ldi R16,2
 1FCE 0E940000          xcall _lcd_write_pos
 1FD2                   .dbline 1018
 1FD2           ;                   cur_set(3);
 1FD2 03E0              ldi R16,3
 1FD4 10E0              ldi R17,0
 1FD6 0E940000          xcall _cur_set
 1FDA                   .dbline 1019
 1FDA           ;                       cur=8; 
 1FDA 48E0              ldi R20,8
 1FDC 50E0              ldi R21,0
 1FDE                   .dbline 1020
 1FDE           ;                  }else if(cur>7 && cur <14){//调到日期第一个
 1FDE 5EC2              xjmp L444
 1FE0           L445:
 1FE0                   .dbline 1020
 1FE0 87E0              ldi R24,7
 1FE2 90E0              ldi R25,0
 1FE4 8417              cp R24,R20
 1FE6 9507              cpc R25,R21
 1FE8 08F0              brlo X295
 1FEA 58C2              xjmp L444
 1FEC           X295:
 1FEC           X247:
 1FEC 4E30              cpi R20,14
 1FEE E0E0              ldi R30,0
 1FF0 5E07              cpc R21,R30
 1FF2 08F0              brlo X296
 1FF4 53C2              xjmp L444
 1FF6           X296:
 1FF6           X248:
 1FF6                   .dbline 1020
 1FF6                   .dbline 1021
 1FF6           ;                   lcd_write_pos(1,0);
 1FF6 2227              clr R18
 1FF8 01E0              ldi R16,1
 1FFA 0E940000          xcall _lcd_write_pos
 1FFE                   .dbline 1022
 1FFE           ;                       cur=0; 
 1FFE 4427              clr R20
 2000 5527              clr R21
 2002                   .dbline 1023
 2002           ;                  }
 2002                   .dbline 1024
 2002           ;        }else if(keyV=='d'){
 2002 4CC2              xjmp L444
 2004           L443:
 2004                   .dbline 1024
 2004 6436              cpi R22,100
 2006 19F5              brne L449
 2008           X249:
 2008                   .dbline 1024
 2008                   .dbline 1025
 2008           ;            if(cur>7 && cur <14){//在时间上，第三行，默认要保存，所以调到保存上
 2008 87E0              ldi R24,7
 200A 90E0              ldi R25,0
 200C 8417              cp R24,R20
 200E 9507              cpc R25,R21
 2010 88F4              brsh L451
 2012           X250:
 2012 4E30              cpi R20,14
 2014 E0E0              ldi R30,0
 2016 5E07              cpc R21,R30
 2018 68F4              brsh L451
 201A           X251:
 201A                   .dbline 1025
 201A                   .dbline 1026
 201A           ;                     cur_set(0);//关下半屏幕游标
 201A 0027              clr R16
 201C 1127              clr R17
 201E 0E940000          xcall _cur_set
 2022                   .dbline 1027
 2022           ;                         Set_White(4,2,5);
 2022 85E0              ldi R24,5
 2024 8883              std y+0,R24
 2026 22E0              ldi R18,2
 2028 04E0              ldi R16,4
 202A 0E940000          xcall _Set_White
 202E                   .dbline 1028
 202E           ;                         cur=14;
 202E 4EE0              ldi R20,14
 2030 50E0              ldi R21,0
 2032                   .dbline 1029
 2032           ;                }else if(cur<=7){ //调到时间第一个
 2032 34C2              xjmp L450
 2034           L451:
 2034                   .dbline 1029
 2034 87E0              ldi R24,7
 2036 90E0              ldi R25,0
 2038 8417              cp R24,R20
 203A 9507              cpc R25,R21
 203C 08F4              brsh X297
 203E 2EC2              xjmp L450
 2040           X297:
 2040           X252:
 2040                   .dbline 1029
 2040                   .dbline 1030
 2040           ;                   lcd_write_pos(2,1);
 2040 21E0              ldi R18,1
 2042 02E0              ldi R16,2
 2044 0E940000          xcall _lcd_write_pos
 2048                   .dbline 1031
 2048           ;                       cur=8; 
 2048 48E0              ldi R20,8
 204A 50E0              ldi R21,0
 204C                   .dbline 1032
 204C           ;                }
 204C                   .dbline 1033
 204C           ;        }else if(keyV=='l'){
 204C 27C2              xjmp L450
 204E           L449:
 204E                   .dbline 1033
 204E 6C36              cpi R22,108
 2050 09F0              breq X298
 2052 43C0              xjmp L455
 2054           X298:
 2054           X253:
 2054                   .dbline 1033
 2054                   .dbline 1034
 2054           ;                       if(cur<=8 && cur>0){
 2054 88E0              ldi R24,8
 2056 90E0              ldi R25,0
 2058 8417              cp R24,R20
 205A 9507              cpc R25,R21
 205C 90F0              brlo L457
 205E           X254:
 205E 4030              cpi R20,0
 2060 4507              cpc R20,R21
 2062 79F0              breq L457
 2064           X255:
 2064                   .dbline 1034
 2064                   .dbline 1035
 2064           ;                        cur--;
 2064 4150              subi R20,1
 2066 5040              sbci R21,0
 2068                   .dbline 1036
 2068           ;                        lcd_write_pos(dateAc[cur],0);
 2068 2227              clr R18
 206A CE01              movw R24,R28
 206C 8696              adiw R24,38
 206E FA01              movw R30,R20
 2070 EE0F              lsl R30
 2072 FF1F              rol R31
 2074 E80F              add R30,R24
 2076 F91F              adc R31,R25
 2078 0081              ldd R16,z+0
 207A 1181              ldd R17,z+1
 207C 0E940000          xcall _lcd_write_pos
 2080                   .dbline 1037
 2080           ;                       }else if (cur>8 && cur<14){
 2080 0DC2              xjmp L456
 2082           L457:
 2082                   .dbline 1037
 2082 88E0              ldi R24,8
 2084 90E0              ldi R25,0
 2086 8417              cp R24,R20
 2088 9507              cpc R25,R21
 208A 98F4              brsh L459
 208C           X256:
 208C 4E30              cpi R20,14
 208E E0E0              ldi R30,0
 2090 5E07              cpc R21,R30
 2092 78F4              brsh L459
 2094           X257:
 2094                   .dbline 1037
 2094                   .dbline 1038
 2094           ;                        cur--;
 2094 4150              subi R20,1
 2096 5040              sbci R21,0
 2098                   .dbline 1039
 2098           ;                        lcd_write_pos(dateAc[cur],1);
 2098 21E0              ldi R18,1
 209A CE01              movw R24,R28
 209C 8696              adiw R24,38
 209E FA01              movw R30,R20
 20A0 EE0F              lsl R30
 20A2 FF1F              rol R31
 20A4 E80F              add R30,R24
 20A6 F91F              adc R31,R25
 20A8 0081              ldd R16,z+0
 20AA 1181              ldd R17,z+1
 20AC 0E940000          xcall _lcd_write_pos
 20B0                   .dbline 1040
 20B0           ;                       }else if (cur==15){
 20B0 F5C1              xjmp L456
 20B2           L459:
 20B2                   .dbline 1040
 20B2 4F30              cpi R20,15
 20B4 E0E0              ldi R30,0
 20B6 5E07              cpc R21,R30
 20B8 09F0              breq X299
 20BA F0C1              xjmp L456
 20BC           X299:
 20BC           X258:
 20BC                   .dbline 1040
 20BC                   .dbline 1041
 20BC           ;                           Set_White_off(9,2,10);
 20BC 8AE0              ldi R24,10
 20BE 8883              std y+0,R24
 20C0 22E0              ldi R18,2
 20C2 09E0              ldi R16,9
 20C4 0E940000          xcall _Set_White_off
 20C8                   .dbline 1042
 20C8           ;                           Set_White(4,2,5);
 20C8 85E0              ldi R24,5
 20CA 8883              std y+0,R24
 20CC 22E0              ldi R18,2
 20CE 04E0              ldi R16,4
 20D0 0E940000          xcall _Set_White
 20D4                   .dbline 1043
 20D4           ;                               cur=14;
 20D4 4EE0              ldi R20,14
 20D6 50E0              ldi R21,0
 20D8                   .dbline 1044
 20D8           ;                       }
 20D8                   .dbline 1047
 20D8           ;                       
 20D8           ;               
 20D8           ;        }else if(keyV=='r'){
 20D8 E1C1              xjmp L456
 20DA           L455:
 20DA                   .dbline 1047
 20DA 6237              cpi R22,114
 20DC 09F0              breq X300
 20DE 3AC0              xjmp L463
 20E0           X300:
 20E0           X259:
 20E0                   .dbline 1047
 20E0                   .dbline 1048
 20E0           ;              if(cur<7){
 20E0 4730              cpi R20,7
 20E2 E0E0              ldi R30,0
 20E4 5E07              cpc R21,R30
 20E6 78F4              brsh L465
 20E8           X260:
 20E8                   .dbline 1048
 20E8                   .dbline 1049
 20E8           ;                          cur++;
 20E8 4F5F              subi R20,255  ; offset = 1
 20EA 5F4F              sbci R21,255
 20EC                   .dbline 1050
 20EC           ;                          lcd_write_pos(dateAc[cur],0);
 20EC 2227              clr R18
 20EE CE01              movw R24,R28
 20F0 8696              adiw R24,38
 20F2 FA01              movw R30,R20
 20F4 EE0F              lsl R30
 20F6 FF1F              rol R31
 20F8 E80F              add R30,R24
 20FA F91F              adc R31,R25
 20FC 0081              ldd R16,z+0
 20FE 1181              ldd R17,z+1
 2100 0E940000          xcall _lcd_write_pos
 2104                   .dbline 1051
 2104           ;                       }else if (cur<13){
 2104 CBC1              xjmp L464
 2106           L465:
 2106                   .dbline 1051
 2106 4D30              cpi R20,13
 2108 E0E0              ldi R30,0
 210A 5E07              cpc R21,R30
 210C 78F4              brsh L467
 210E           X261:
 210E                   .dbline 1051
 210E                   .dbline 1052
 210E           ;                          cur++;
 210E 4F5F              subi R20,255  ; offset = 1
 2110 5F4F              sbci R21,255
 2112                   .dbline 1053
 2112           ;                          lcd_write_pos(dateAc[cur],1);
 2112 21E0              ldi R18,1
 2114 CE01              movw R24,R28
 2116 8696              adiw R24,38
 2118 FA01              movw R30,R20
 211A EE0F              lsl R30
 211C FF1F              rol R31
 211E E80F              add R30,R24
 2120 F91F              adc R31,R25
 2122 0081              ldd R16,z+0
 2124 1181              ldd R17,z+1
 2126 0E940000          xcall _lcd_write_pos
 212A                   .dbline 1054
 212A           ;                       }else if (cur==14){
 212A B8C1              xjmp L464
 212C           L467:
 212C                   .dbline 1054
 212C 4E30              cpi R20,14
 212E E0E0              ldi R30,0
 2130 5E07              cpc R21,R30
 2132 09F0              breq X301
 2134 B3C1              xjmp L464
 2136           X301:
 2136           X262:
 2136                   .dbline 1054
 2136                   .dbline 1055
 2136           ;                           Set_White_off(4,2,5);
 2136 85E0              ldi R24,5
 2138 8883              std y+0,R24
 213A 22E0              ldi R18,2
 213C 04E0              ldi R16,4
 213E 0E940000          xcall _Set_White_off
 2142                   .dbline 1056
 2142           ;                               Set_White(9,2,10);
 2142 8AE0              ldi R24,10
 2144 8883              std y+0,R24
 2146 22E0              ldi R18,2
 2148 09E0              ldi R16,9
 214A 0E940000          xcall _Set_White
 214E                   .dbline 1057
 214E           ;                               cur=15;
 214E 4FE0              ldi R20,15
 2150 50E0              ldi R21,0
 2152                   .dbline 1058
 2152           ;                       }
 2152                   .dbline 1059
 2152           ;        }else if(keyV=='e'){
 2152 A4C1              xjmp L464
 2154           L463:
 2154                   .dbline 1059
 2154 6536              cpi R22,101
 2156 B9F4              brne L471
 2158           X263:
 2158                   .dbline 1059
 2158                   .dbline 1060
 2158           ;            cur_set(0);//关上半屏幕游标
 2158 0027              clr R16
 215A 1127              clr R17
 215C 0E940000          xcall _cur_set
 2160                   .dbline 1061
 2160           ;                 Set_White_off(4,2,5);
 2160 85E0              ldi R24,5
 2162 8883              std y+0,R24
 2164 22E0              ldi R18,2
 2166 04E0              ldi R16,4
 2168 0E940000          xcall _Set_White_off
 216C                   .dbline 1062
 216C           ;                 Set_White_off(9,2,10);
 216C 8AE0              ldi R24,10
 216E 8883              std y+0,R24
 2170 22E0              ldi R18,2
 2172 09E0              ldi R16,9
 2174 0E940000          xcall _Set_White_off
 2178                   .dbline 1063
 2178           ;                pageNum=1;
 2178 81E0              ldi R24,1
 217A 90E0              ldi R25,0
 217C 90930100          sts _pageNum+1,R25
 2180 80930000          sts _pageNum,R24
 2184                   .dbline 1064
 2184           ;                return;
 2184 8CC1              xjmp L410
 2186           L471:
 2186                   .dbline 1066
 2186           ;            //退出界面
 2186           ;        }else if(keyV=='t'){
 2186 6437              cpi R22,116
 2188 09F0              breq X302
 218A 85C0              xjmp L473
 218C           X302:
 218C           X264:
 218C                   .dbline 1066
 218C                   .dbline 1067
 218C           ;             if(cur==14){
 218C 4E30              cpi R20,14
 218E E0E0              ldi R30,0
 2190 5E07              cpc R21,R30
 2192 09F0              breq X303
 2194 64C0              xjmp L475
 2196           X303:
 2196           X265:
 2196                   .dbline 1067
 2196                   .dbline 1068
 2196           ;                     setTime((date[2]*16)+date[3],(date[4]*16)+date[5],(date[6]*16)+date[7],(date[8]*16)+date[9],(date[10]*16)+date[11],(date[12]*16)+date[13]);
 2196 28A1              ldd R18,y+32
 2198 39A1              ldd R19,y+33
 219A 00E1              ldi R16,16
 219C 10E0              ldi R17,0
 219E 0E940000          xcall empy16s
 21A2 1801              movw R2,R16
 21A4 4AA0              ldd R4,y+34
 21A6 5BA0              ldd R5,y+35
 21A8 240C              add R2,R4
 21AA 351C              adc R3,R5
 21AC 3F82              std y+7,R3
 21AE 2E82              std y+6,R2
 21B0 2C8D              ldd R18,y+28
 21B2 3D8D              ldd R19,y+29
 21B4 00E1              ldi R16,16
 21B6 10E0              ldi R17,0
 21B8 0E940000          xcall empy16s
 21BC 1801              movw R2,R16
 21BE 4E8C              ldd R4,y+30
 21C0 5F8C              ldd R5,y+31
 21C2 240C              add R2,R4
 21C4 351C              adc R3,R5
 21C6 3D82              std y+5,R3
 21C8 2C82              std y+4,R2
 21CA 288D              ldd R18,y+24
 21CC 398D              ldd R19,y+25
 21CE 00E1              ldi R16,16
 21D0 10E0              ldi R17,0
 21D2 0E940000          xcall empy16s
 21D6 1801              movw R2,R16
 21D8 4A8C              ldd R4,y+26
 21DA 5B8C              ldd R5,y+27
 21DC 240C              add R2,R4
 21DE 351C              adc R3,R5
 21E0 3B82              std y+3,R3
 21E2 2A82              std y+2,R2
 21E4 2C89              ldd R18,y+20
 21E6 3D89              ldd R19,y+21
 21E8 00E1              ldi R16,16
 21EA 10E0              ldi R17,0
 21EC 0E940000          xcall empy16s
 21F0 1801              movw R2,R16
 21F2 4E88              ldd R4,y+22
 21F4 5F88              ldd R5,y+23
 21F6 240C              add R2,R4
 21F8 351C              adc R3,R5
 21FA 3982              std y+1,R3
 21FC 2882              std y+0,R2
 21FE 2889              ldd R18,y+16
 2200 3989              ldd R19,y+17
 2202 00E1              ldi R16,16
 2204 10E0              ldi R17,0
 2206 0E940000          xcall empy16s
 220A 9801              movw R18,R16
 220C 2A88              ldd R2,y+18
 220E 3B88              ldd R3,y+19
 2210 220D              add R18,R2
 2212 331D              adc R19,R3
 2214 2C84              ldd R2,y+12
 2216 3D84              ldd R3,y+13
 2218 00E1              ldi R16,16
 221A 10E0              ldi R17,0
 221C 2F93              push R18
 221E 3F93              push R19
 2220 9101              movw R18,R2
 2222 0E940000          xcall empy16s
 2226 1801              movw R2,R16
 2228 3F91              pop R19
 222A 2F91              pop R18
 222C 4E84              ldd R4,y+14
 222E 5F84              ldd R5,y+15
 2230 240C              add R2,R4
 2232 351C              adc R3,R5
 2234 8101              movw R16,R2
 2236 0E940000          xcall _setTime
 223A                   .dbline 1071
 223A           ;                       //setTime(1*16+2,1<<4+2+0x00,2*16+2,1<<4+2+0x00,5+0x00,5<<4+1+0x00);
 223A           ;                               //保存操作
 223A           ;                               pageParam[1]=0;//标记是时间的保存
 223A 2224              clr R2
 223C 3324              clr R3
 223E 30920300          sts _pageParam+2+1,R3
 2242 20920200          sts _pageParam+2,R2
 2246                   .dbline 1072
 2246           ;                               prePageNum=8;
 2246 88E0              ldi R24,8
 2248 90E0              ldi R25,0
 224A 90930100          sts _prePageNum+1,R25
 224E 80930000          sts _prePageNum,R24
 2252                   .dbline 1073
 2252           ;                               pageNum=6;
 2252 86E0              ldi R24,6
 2254 90930100          sts _pageNum+1,R25
 2258 80930000          sts _pageNum,R24
 225C                   .dbline 1074
 225C           ;                               return;
 225C 20C1              xjmp L410
 225E           L475:
 225E                   .dbline 1075
 225E           ;                }else if(cur==15){
 225E 4F30              cpi R20,15
 2260 E0E0              ldi R30,0
 2262 5E07              cpc R21,R30
 2264 09F0              breq X304
 2266 1AC1              xjmp L474
 2268           X304:
 2268           X266:
 2268                   .dbline 1075
 2268                   .dbline 1077
 2268           ;                       //取消操作
 2268           ;                        cur_set(0);//关上半屏幕游标
 2268 0027              clr R16
 226A 1127              clr R17
 226C 0E940000          xcall _cur_set
 2270                   .dbline 1078
 2270           ;                 Set_White_off(4,2,5);
 2270 85E0              ldi R24,5
 2272 8883              std y+0,R24
 2274 22E0              ldi R18,2
 2276 04E0              ldi R16,4
 2278 0E940000          xcall _Set_White_off
 227C                   .dbline 1079
 227C           ;                 Set_White_off(9,2,10);
 227C 8AE0              ldi R24,10
 227E 8883              std y+0,R24
 2280 22E0              ldi R18,2
 2282 09E0              ldi R16,9
 2284 0E940000          xcall _Set_White_off
 2288                   .dbline 1080
 2288           ;                pageNum=1;
 2288 81E0              ldi R24,1
 228A 90E0              ldi R25,0
 228C 90930100          sts _pageNum+1,R25
 2290 80930000          sts _pageNum,R24
 2294                   .dbline 1081
 2294           ;                return;
 2294 04C1              xjmp L410
 2296           L473:
 2296                   .dbline 1083
 2296           ;                }
 2296           ;        }else if(keyV=='0' || keyV=='1' || keyV=='2' || keyV=='3' || keyV=='4' || keyV=='5' 
 2296 6033              cpi R22,48
 2298 99F0              breq L502
 229A           X267:
 229A 6133              cpi R22,49
 229C 89F0              breq L502
 229E           X268:
 229E 6233              cpi R22,50
 22A0 79F0              breq L502
 22A2           X269:
 22A2 6333              cpi R22,51
 22A4 69F0              breq L502
 22A6           X270:
 22A6 6433              cpi R22,52
 22A8 59F0              breq L502
 22AA           X271:
 22AA 6533              cpi R22,53
 22AC 49F0              breq L502
 22AE           X272:
 22AE 6633              cpi R22,54
 22B0 39F0              breq L502
 22B2           X273:
 22B2 6733              cpi R22,55
 22B4 29F0              breq L502
 22B6           X274:
 22B6 6833              cpi R22,56
 22B8 19F0              breq L502
 22BA           X275:
 22BA 6933              cpi R22,57
 22BC 09F0              breq X305
 22BE EEC0              xjmp L492
 22C0           X305:
 22C0           X276:
 22C0           L502:
 22C0                   .dbline 1084
 22C0           ;                  || keyV=='6'  || keyV=='7' || keyV=='8' || keyV=='9'){
 22C0                   .dbline 1085
 22C0           ;                       if(cur<14){
 22C0 4E30              cpi R20,14
 22C2 E0E0              ldi R30,0
 22C4 5E07              cpc R21,R30
 22C6 08F0              brlo X306
 22C8 E9C0              xjmp L503
 22CA           X306:
 22CA           X277:
 22CA                   .dbline 1085
 22CA                   .dbline 1086
 22CA           ;                        lcd_write_char_con(0,0x30 | keyV);
 22CA 262F              mov R18,R22
 22CC 2063              ori R18,48
 22CE 0027              clr R16
 22D0 0E940000          xcall _lcd_write_char_con
 22D4                   .dbline 1087
 22D4           ;                        lcd_write_char_con(0,' ');
 22D4 20E2              ldi R18,32
 22D6 0027              clr R16
 22D8 0E940000          xcall _lcd_write_char_con
 22DC                   .dbline 1088
 22DC           ;                        switch(keyV){
 22DC 7727              clr R23
 22DE 6033              cpi R22,48
 22E0 E0E0              ldi R30,0
 22E2 7E07              cpc R23,R30
 22E4 09F4              brne X307
 22E6 2EC0              xjmp L508
 22E8           X307:
 22E8           X278:
 22E8 6133              cpi R22,49
 22EA E0E0              ldi R30,0
 22EC 7E07              cpc R23,R30
 22EE 09F4              brne X308
 22F0 35C0              xjmp L509
 22F2           X308:
 22F2           X279:
 22F2 6233              cpi R22,50
 22F4 E0E0              ldi R30,0
 22F6 7E07              cpc R23,R30
 22F8 09F4              brne X309
 22FA 3CC0              xjmp L510
 22FC           X309:
 22FC           X280:
 22FC 6333              cpi R22,51
 22FE E0E0              ldi R30,0
 2300 7E07              cpc R23,R30
 2302 09F4              brne X310
 2304 43C0              xjmp L511
 2306           X310:
 2306           X281:
 2306 6433              cpi R22,52
 2308 E0E0              ldi R30,0
 230A 7E07              cpc R23,R30
 230C 09F4              brne X311
 230E 4AC0              xjmp L512
 2310           X311:
 2310           X282:
 2310 6533              cpi R22,53
 2312 E0E0              ldi R30,0
 2314 7E07              cpc R23,R30
 2316 09F4              brne X312
 2318 51C0              xjmp L513
 231A           X312:
 231A           X283:
 231A 6633              cpi R22,54
 231C E0E0              ldi R30,0
 231E 7E07              cpc R23,R30
 2320 09F4              brne X313
 2322 58C0              xjmp L514
 2324           X313:
 2324           X284:
 2324 6733              cpi R22,55
 2326 E0E0              ldi R30,0
 2328 7E07              cpc R23,R30
 232A 09F4              brne X314
 232C 5FC0              xjmp L515
 232E           X314:
 232E           X285:
 232E 6833              cpi R22,56
 2330 E0E0              ldi R30,0
 2332 7E07              cpc R23,R30
 2334 09F4              brne X315
 2336 66C0              xjmp L516
 2338           X315:
 2338           X286:
 2338 6933              cpi R22,57
 233A E0E0              ldi R30,0
 233C 7E07              cpc R23,R30
 233E 09F4              brne X316
 2340 6DC0              xjmp L517
 2342           X316:
 2342           X287:
 2342 77C0              xjmp L505
 2344           L508:
 2344                   .dbline 1090
 2344           ;                         case '0':
 2344           ;                           date[cur]=0;
 2344 CE01              movw R24,R28
 2346 0896              adiw R24,8
 2348 FA01              movw R30,R20
 234A EE0F              lsl R30
 234C FF1F              rol R31
 234E E80F              add R30,R24
 2350 F91F              adc R31,R25
 2352 2224              clr R2
 2354 3324              clr R3
 2356 3182              std z+1,R3
 2358 2082              std z+0,R2
 235A                   .dbline 1091
 235A           ;                           break;
 235A 6BC0              xjmp L506
 235C           L509:
 235C                   .dbline 1093
 235C           ;                         case '1':
 235C           ;                           date[cur]=1;
 235C CE01              movw R24,R28
 235E 0896              adiw R24,8
 2360 FA01              movw R30,R20
 2362 EE0F              lsl R30
 2364 FF1F              rol R31
 2366 E80F              add R30,R24
 2368 F91F              adc R31,R25
 236A 81E0              ldi R24,1
 236C 90E0              ldi R25,0
 236E 9183              std z+1,R25
 2370 8083              std z+0,R24
 2372                   .dbline 1094
 2372           ;                           break;
 2372 5FC0              xjmp L506
 2374           L510:
 2374                   .dbline 1096
 2374           ;                         case '2':
 2374           ;                           date[cur]=2;
 2374 CE01              movw R24,R28
 2376 0896              adiw R24,8
 2378 FA01              movw R30,R20
 237A EE0F              lsl R30
 237C FF1F              rol R31
 237E E80F              add R30,R24
 2380 F91F              adc R31,R25
 2382 82E0              ldi R24,2
 2384 90E0              ldi R25,0
 2386 9183              std z+1,R25
 2388 8083              std z+0,R24
 238A                   .dbline 1097
 238A           ;                           break;
 238A 53C0              xjmp L506
 238C           L511:
 238C                   .dbline 1099
 238C           ;                         case '3':
 238C           ;                           date[cur]=3;
 238C CE01              movw R24,R28
 238E 0896              adiw R24,8
 2390 FA01              movw R30,R20
 2392 EE0F              lsl R30
 2394 FF1F              rol R31
 2396 E80F              add R30,R24
 2398 F91F              adc R31,R25
 239A 83E0              ldi R24,3
 239C 90E0              ldi R25,0
 239E 9183              std z+1,R25
 23A0 8083              std z+0,R24
 23A2                   .dbline 1100
 23A2           ;                           break;
 23A2 47C0              xjmp L506
 23A4           L512:
 23A4                   .dbline 1102
 23A4           ;                         case '4':
 23A4           ;                           date[cur]=4;
 23A4 CE01              movw R24,R28
 23A6 0896              adiw R24,8
 23A8 FA01              movw R30,R20
 23AA EE0F              lsl R30
 23AC FF1F              rol R31
 23AE E80F              add R30,R24
 23B0 F91F              adc R31,R25
 23B2 84E0              ldi R24,4
 23B4 90E0              ldi R25,0
 23B6 9183              std z+1,R25
 23B8 8083              std z+0,R24
 23BA                   .dbline 1103
 23BA           ;                           break;
 23BA 3BC0              xjmp L506
 23BC           L513:
 23BC                   .dbline 1105
 23BC           ;                         case '5':
 23BC           ;                           date[cur]=5;
 23BC CE01              movw R24,R28
 23BE 0896              adiw R24,8
 23C0 FA01              movw R30,R20
 23C2 EE0F              lsl R30
 23C4 FF1F              rol R31
 23C6 E80F              add R30,R24
 23C8 F91F              adc R31,R25
 23CA 85E0              ldi R24,5
 23CC 90E0              ldi R25,0
 23CE 9183              std z+1,R25
 23D0 8083              std z+0,R24
 23D2                   .dbline 1106
 23D2           ;                           break;
 23D2 2FC0              xjmp L506
 23D4           L514:
 23D4                   .dbline 1108
 23D4           ;                         case '6':
 23D4           ;                           date[cur]=6;
 23D4 CE01              movw R24,R28
 23D6 0896              adiw R24,8
 23D8 FA01              movw R30,R20
 23DA EE0F              lsl R30
 23DC FF1F              rol R31
 23DE E80F              add R30,R24
 23E0 F91F              adc R31,R25
 23E2 86E0              ldi R24,6
 23E4 90E0              ldi R25,0
 23E6 9183              std z+1,R25
 23E8 8083              std z+0,R24
 23EA                   .dbline 1109
 23EA           ;                           break;
 23EA 23C0              xjmp L506
 23EC           L515:
 23EC                   .dbline 1111
 23EC           ;                         case '7':
 23EC           ;                           date[cur]=7;
 23EC CE01              movw R24,R28
 23EE 0896              adiw R24,8
 23F0 FA01              movw R30,R20
 23F2 EE0F              lsl R30
 23F4 FF1F              rol R31
 23F6 E80F              add R30,R24
 23F8 F91F              adc R31,R25
 23FA 87E0              ldi R24,7
 23FC 90E0              ldi R25,0
 23FE 9183              std z+1,R25
 2400 8083              std z+0,R24
 2402                   .dbline 1112
 2402           ;                           break;
 2402 17C0              xjmp L506
 2404           L516:
 2404                   .dbline 1114
 2404           ;                     case '8':
 2404           ;                           date[cur]=8;
 2404 CE01              movw R24,R28
 2406 0896              adiw R24,8
 2408 FA01              movw R30,R20
 240A EE0F              lsl R30
 240C FF1F              rol R31
 240E E80F              add R30,R24
 2410 F91F              adc R31,R25
 2412 88E0              ldi R24,8
 2414 90E0              ldi R25,0
 2416 9183              std z+1,R25
 2418 8083              std z+0,R24
 241A                   .dbline 1115
 241A           ;                           break;
 241A 0BC0              xjmp L506
 241C           L517:
 241C                   .dbline 1117
 241C           ;                         case '9':
 241C           ;                           date[cur]=9;
 241C CE01              movw R24,R28
 241E 0896              adiw R24,8
 2420 FA01              movw R30,R20
 2422 EE0F              lsl R30
 2424 FF1F              rol R31
 2426 E80F              add R30,R24
 2428 F91F              adc R31,R25
 242A 89E0              ldi R24,9
 242C 90E0              ldi R25,0
 242E 9183              std z+1,R25
 2430 8083              std z+0,R24
 2432                   .dbline 1118
 2432           ;                           break;
 2432           L505:
 2432           L506:
 2432                   .dbline 1121
 2432           ;                         
 2432           ;                        }
 2432           ;                         if(cur==3 || cur==5){
 2432 4330              cpi R20,3
 2434 E0E0              ldi R30,0
 2436 5E07              cpc R21,R30
 2438 21F0              breq L520
 243A           X288:
 243A 4530              cpi R20,5
 243C E0E0              ldi R30,0
 243E 5E07              cpc R21,R30
 2440 31F4              brne L518
 2442           X289:
 2442           L520:
 2442                   .dbline 1121
 2442                   .dbline 1122
 2442           ;                           lcd_write_str_con(0,"- ");
 2442 20E0              ldi R18,<L432
 2444 30E0              ldi R19,>L432
 2446 0027              clr R16
 2448 0E940000          xcall _lcd_write_str_con
 244C                   .dbline 1123
 244C           ;                        }else if(cur==9 || cur==11){
 244C 0DC0              xjmp L519
 244E           L518:
 244E                   .dbline 1123
 244E 4930              cpi R20,9
 2450 E0E0              ldi R30,0
 2452 5E07              cpc R21,R30
 2454 21F0              breq L523
 2456           X290:
 2456 4B30              cpi R20,11
 2458 E0E0              ldi R30,0
 245A 5E07              cpc R21,R30
 245C 29F4              brne L521
 245E           X291:
 245E           L523:
 245E                   .dbline 1123
 245E                   .dbline 1124
 245E           ;                           lcd_write_str_con(0,": ");
 245E 20E0              ldi R18,<L214
 2460 30E0              ldi R19,>L214
 2462 0027              clr R16
 2464 0E940000          xcall _lcd_write_str_con
 2468                   .dbline 1125
 2468           ;                        }
 2468           L521:
 2468           L519:
 2468                   .dbline 1126
 2468           ;                        cur++;
 2468 4F5F              subi R20,255  ; offset = 1
 246A 5F4F              sbci R21,255
 246C                   .dbline 1127
 246C           ;                        if(cur==8){
 246C 4830              cpi R20,8
 246E E0E0              ldi R30,0
 2470 5E07              cpc R21,R30
 2472 31F4              brne L524
 2474           X292:
 2474                   .dbline 1127
 2474                   .dbline 1128
 2474           ;                           lcd_write_pos(dateAc[8],1);
 2474 21E0              ldi R18,1
 2476 0EA9              ldd R16,y+54
 2478 1FA9              ldd R17,y+55
 247A 0E940000          xcall _lcd_write_pos
 247E                   .dbline 1129
 247E           ;                        }else if(cur==14){
 247E 0EC0              xjmp L525
 2480           L524:
 2480                   .dbline 1129
 2480 4E30              cpi R20,14
 2482 E0E0              ldi R30,0
 2484 5E07              cpc R21,R30
 2486 51F4              brne L527
 2488           X293:
 2488                   .dbline 1129
 2488                   .dbline 1130
 2488           ;                         cur_set(0);//关下半屏幕游标
 2488 0027              clr R16
 248A 1127              clr R17
 248C 0E940000          xcall _cur_set
 2490                   .dbline 1131
 2490           ;                         Set_White(4,2,5);
 2490 85E0              ldi R24,5
 2492 8883              std y+0,R24
 2494 22E0              ldi R18,2
 2496 04E0              ldi R16,4
 2498 0E940000          xcall _Set_White
 249C                   .dbline 1132
 249C           ;                        }
 249C           L527:
 249C           L525:
 249C                   .dbline 1133
 249C           ;                       }
 249C           L503:
 249C                   .dbline 1134
 249C           ;        }
 249C           L492:
 249C           L474:
 249C           L464:
 249C           L456:
 249C           L450:
 249C           L444:
 249C                   .dbline 1135
 249C           ;    }
 249C           L441:
 249C                   .dbline 1010
 249C 7BCD              xjmp L440
 249E           X294:
 249E                   .dbline -2
 249E           L410:
 249E                   .dbline 0 ; func end
 249E EF96              adiw R28,63
 24A0 2396              adiw R28,3  ; offset = 66
 24A2 0C940000          xjmp pop_xgsetF00C
 24A6                   .dbsym l dateAc 38 A[28:14]i
 24A6                   .dbsym r time_cacah 22 i
 24A6                   .dbsym r keyV 22 c
 24A6                   .dbsym r cur 20 i
 24A6                   .dbsym l date 8 A[30:15]i
 24A6                   .dbsym r i 22 i
 24A6                   .dbend
 24A6                   .dbfunc e page9 _page9 fV
                        .even
 24A6           _page9::
 24A6 2297              sbiw R28,2
 24A8                   .dbline -1
 24A8                   .dbline 1137
 24A8           ;  }
 24A8           ; void page9(void){//复用的方法
 24A8                   .dbline 1138
 24A8           ;   if(pageParam[2]==0){
 24A8 20900400          lds R2,_pageParam+4
 24AC 30900500          lds R3,_pageParam+4+1
 24B0 2220              tst R2
 24B2 81F4              brne L530
 24B4 3320              tst R3
 24B6 71F4              brne L530
 24B8           X317:
 24B8                   .dbline 1138
 24B8                   .dbline 1139
 24B8           ;      lcd_write_str(4,1,"系统重置中。。。");
 24B8 80E0              ldi R24,<L533
 24BA 90E0              ldi R25,>L533
 24BC 9983              std y+1,R25
 24BE 8883              std y+0,R24
 24C0 21E0              ldi R18,1
 24C2 04E0              ldi R16,4
 24C4 0E940000          xcall _lcd_write_str
 24C8                   .dbline 1141
 24C8           ;        //是否需要清除数据，考虑中
 24C8           ;        WDTCR|=(1<<WDCE)|(1<<WDE); /* 置位 WDTOE 和 WDE(在设置看门狗定时器的预置分频器参数时需要将其写1)*/
 24C8 81B5              in R24,0x21
 24CA 8861              ori R24,24
 24CC 81BD              out 0x21,R24
 24CE                   .dbline 1142
 24CE           ;      WDTCR=(1<<WDE)|(1<<WDP2)|(1<<WDP1); /*设定周期为1S*/
 24CE 8EE0              ldi R24,14
 24D0 81BD              out 0x21,R24
 24D2           L534:
 24D2                   .dbline 1143
 24D2           ;        while(1){
 24D2                   .dbline 1144
 24D2           ;        }
 24D2           L535:
 24D2                   .dbline 1143
 24D2 FFCF              xjmp L534
 24D4           L530:
 24D4                   .dbline 1145
 24D4           ;    }else if(pageParam[2]==1){
 24D4 80910400          lds R24,_pageParam+4
 24D8 90910500          lds R25,_pageParam+4+1
 24DC 8130              cpi R24,1
 24DE E0E0              ldi R30,0
 24E0 9E07              cpc R25,R30
 24E2 71F4              brne L537
 24E4           X318:
 24E4                   .dbline 1145
 24E4                   .dbline 1146
 24E4           ;      lcd_write_str(4,1,"数据重置中。。。");
 24E4 80E0              ldi R24,<L540
 24E6 90E0              ldi R25,>L540
 24E8 9983              std y+1,R25
 24EA 8883              std y+0,R24
 24EC 21E0              ldi R18,1
 24EE 04E0              ldi R16,4
 24F0 0E940000          xcall _lcd_write_str
 24F4                   .dbline 1147
 24F4           ;        reset_temp_data(pageParam[0]);
 24F4 00910000          lds R16,_pageParam
 24F8 10910100          lds R17,_pageParam+1
 24FC 0E940000          xcall _reset_temp_data
 2500                   .dbline 1148
 2500           ;    }
 2500           L537:
 2500           L531:
 2500                   .dbline 1149
 2500           ;    delay_ms(500);
 2500 04EF              ldi R16,500
 2502 11E0              ldi R17,1
 2504 0E940000          xcall _delay_ms
 2508                   .dbline 1150
 2508           ;    pageNum=prePageNum;
 2508 20900000          lds R2,_prePageNum
 250C 30900100          lds R3,_prePageNum+1
 2510 30920100          sts _pageNum+1,R3
 2514 20920000          sts _pageNum,R2
 2518                   .dbline -2
 2518           L529:
 2518                   .dbline 0 ; func end
 2518 2296              adiw R28,2
 251A 0895              ret
 251C                   .dbend
 251C                   .dbfunc e dispatchPages _dispatchPages fV
                        .even
 251C           _dispatchPages::
 251C                   .dbline -1
 251C                   .dbline 1153
 251C           ;  }
 251C           ; //分发Pages
 251C           ; void dispatchPages(void){
 251C                   .dbline 1154
 251C           ;       lcd_clear();//清屏幕
 251C 0E940000          xcall _lcd_clear
 2520                   .dbline 1155
 2520           ;       if(pageNum==1){
 2520 80910000          lds R24,_pageNum
 2524 90910100          lds R25,_pageNum+1
 2528 8130              cpi R24,1
 252A E0E0              ldi R30,0
 252C 9E07              cpc R25,R30
 252E 19F4              brne L542
 2530           X319:
 2530                   .dbline 1155
 2530                   .dbline 1156
 2530           ;           page1();
 2530 0E941C00          xcall _page1
 2534                   .dbline 1157
 2534           ;         }else if(pageNum==2){
 2534 52C0              xjmp L543
 2536           L542:
 2536                   .dbline 1157
 2536 80910000          lds R24,_pageNum
 253A 90910100          lds R25,_pageNum+1
 253E 8230              cpi R24,2
 2540 E0E0              ldi R30,0
 2542 9E07              cpc R25,R30
 2544 19F4              brne L544
 2546           X320:
 2546                   .dbline 1157
 2546                   .dbline 1158
 2546           ;           page2();
 2546 0E94F403          xcall _page2
 254A                   .dbline 1159
 254A           ;         }else if(pageNum==3){
 254A 47C0              xjmp L545
 254C           L544:
 254C                   .dbline 1159
 254C 80910000          lds R24,_pageNum
 2550 90910100          lds R25,_pageNum+1
 2554 8330              cpi R24,3
 2556 E0E0              ldi R30,0
 2558 9E07              cpc R25,R30
 255A 19F4              brne L546
 255C           X321:
 255C                   .dbline 1159
 255C                   .dbline 1160
 255C           ;           page3();
 255C 0E941805          xcall _page3
 2560                   .dbline 1161
 2560           ;         }else if(pageNum==4){
 2560 3CC0              xjmp L547
 2562           L546:
 2562                   .dbline 1161
 2562 80910000          lds R24,_pageNum
 2566 90910100          lds R25,_pageNum+1
 256A 8430              cpi R24,4
 256C E0E0              ldi R30,0
 256E 9E07              cpc R25,R30
 2570 19F4              brne L548
 2572           X322:
 2572                   .dbline 1161
 2572                   .dbline 1162
 2572           ;           page4();
 2572 0E94EB09          xcall _page4
 2576                   .dbline 1163
 2576           ;         }else if(pageNum==5){
 2576 31C0              xjmp L549
 2578           L548:
 2578                   .dbline 1163
 2578 80910000          lds R24,_pageNum
 257C 90910100          lds R25,_pageNum+1
 2580 8530              cpi R24,5
 2582 E0E0              ldi R30,0
 2584 9E07              cpc R25,R30
 2586 11F4              brne L550
 2588           X323:
 2588                   .dbline 1163
 2588                   .dbline 1164
 2588           ;           page5();
 2588 EED9              xcall _page5
 258A                   .dbline 1165
 258A           ;         }else if(pageNum==6){
 258A 27C0              xjmp L551
 258C           L550:
 258C                   .dbline 1165
 258C 80910000          lds R24,_pageNum
 2590 90910100          lds R25,_pageNum+1
 2594 8630              cpi R24,6
 2596 E0E0              ldi R30,0
 2598 9E07              cpc R25,R30
 259A 11F4              brne L552
 259C           X324:
 259C                   .dbline 1165
 259C                   .dbline 1166
 259C           ;           page6();
 259C 09DB              xcall _page6
 259E                   .dbline 1167
 259E           ;         }else if(pageNum==7){
 259E 1DC0              xjmp L553
 25A0           L552:
 25A0                   .dbline 1167
 25A0 80910000          lds R24,_pageNum
 25A4 90910100          lds R25,_pageNum+1
 25A8 8730              cpi R24,7
 25AA E0E0              ldi R30,0
 25AC 9E07              cpc R25,R30
 25AE 11F4              brne L554
 25B0           X325:
 25B0                   .dbline 1167
 25B0                   .dbline 1168
 25B0           ;           page7();
 25B0 40DB              xcall _page7
 25B2                   .dbline 1169
 25B2           ;         }else if(pageNum==8){
 25B2 13C0              xjmp L555
 25B4           L554:
 25B4                   .dbline 1169
 25B4 80910000          lds R24,_pageNum
 25B8 90910100          lds R25,_pageNum+1
 25BC 8830              cpi R24,8
 25BE E0E0              ldi R30,0
 25C0 9E07              cpc R25,R30
 25C2 11F4              brne L556
 25C4           X326:
 25C4                   .dbline 1169
 25C4                   .dbline 1170
 25C4           ;           page8();
 25C4 D6DB              xcall _page8
 25C6                   .dbline 1171
 25C6           ;         }else if(pageNum==9){
 25C6 09C0              xjmp L557
 25C8           L556:
 25C8                   .dbline 1171
 25C8 80910000          lds R24,_pageNum
 25CC 90910100          lds R25,_pageNum+1
 25D0 8930              cpi R24,9
 25D2 E0E0              ldi R30,0
 25D4 9E07              cpc R25,R30
 25D6 09F4              brne L558
 25D8           X327:
 25D8                   .dbline 1171
 25D8                   .dbline 1172
 25D8           ;           page9();
 25D8 66DF              xcall _page9
 25DA                   .dbline 1173
 25DA           ;         }
 25DA           L558:
 25DA           L557:
 25DA           L555:
 25DA           L553:
 25DA           L551:
 25DA           L549:
 25DA           L547:
 25DA           L545:
 25DA           L543:
 25DA                   .dbline -2
 25DA           L541:
 25DA                   .dbline 0 ; func end
 25DA 0895              ret
 25DC                   .dbend
                        .area data(ram, con, rel)
 0122                   .dbfile E:\ICCDemo\Temp_Control\temp_control\pages.c
 0122           L540:
 0122                   .blkb 17
                        .area idata
 0122 CAFDBEDDD6D8D6C3D6D0A1A3A1A3A1A3  .byte 202,253,190,221,214,216,214,195,214,208,161,163,161,163,161,163
 0132 00                .byte 0
                        .area data(ram, con, rel)
 0133                   .dbfile E:\ICCDemo\Temp_Control\temp_control\pages.c
 0133           L533:
 0133                   .blkb 17
                        .area idata
 0133 CFB5CDB3D6D8D6C3D6D0A1A3A1A3A1A3  .byte 207,181,205,179,214,216,214,195,214,208,161,163,161,163,161,163
 0143 00                .byte 0
                        .area data(ram, con, rel)
 0144                   .dbfile E:\ICCDemo\Temp_Control\temp_control\pages.c
 0144           L432:
 0144                   .blkb 3
                        .area idata
 0144 2D2000            .byte 45,32,0
                        .area data(ram, con, rel)
 0147                   .dbfile E:\ICCDemo\Temp_Control\temp_control\pages.c
 0147           L391:
 0147                   .blkb 5
                        .area idata
 0147 C8B7C8CF00        .byte 200,183,200,207,0
                        .area data(ram, con, rel)
 014C                   .dbfile E:\ICCDemo\Temp_Control\temp_control\pages.c
 014C           L390:
 014C                   .blkb 9
                        .area idata
 014C CAC7B7F1D6D8D6C300        .byte 202,199,183,241,214,216,214,195,0
                        .area data(ram, con, rel)
 0155                   .dbfile E:\ICCDemo\Temp_Control\temp_control\pages.c
 0155           L388:
 0155                   .blkb 15
                        .area idata
 0155 CEC2B6C8B1A3B4E6CAA7B0DCA3A100    .byte 206,194,182,200,177,163,180,230,202,167,176,220,163,161,0
                        .area data(ram, con, rel)
 0164                   .dbfile E:\ICCDemo\Temp_Control\temp_control\pages.c
 0164           L384:
 0164                   .blkb 15
                        .area idata
 0164 CEC2B6C8B1A3B4E6B3C9B9A6A3A100    .byte 206,194,182,200,177,163,180,230,179,201,185,166,163,161,0
                        .area data(ram, con, rel)
 0173                   .dbfile E:\ICCDemo\Temp_Control\temp_control\pages.c
 0173           L380:
 0173                   .blkb 15
                        .area idata
 0173 CAB1BCE4B1A3B4E6B3C9B9A6A3A100    .byte 202,177,188,228,177,163,180,230,179,201,185,166,163,161,0
                        .area data(ram, con, rel)
 0182                   .dbfile E:\ICCDemo\Temp_Control\temp_control\pages.c
 0182           L339:
 0182                   .blkb 9
                        .area idata
 0182 D6D8D6C3CFB5CDB300        .byte 214,216,214,195,207,181,205,179,0
                        .area data(ram, con, rel)
 018B                   .dbfile E:\ICCDemo\Temp_Control\temp_control\pages.c
 018B           L338:
 018B                   .blkb 9
                        .area idata
 018B C9E8D6C3CAB1BCE400        .byte 201,232,214,195,202,177,188,228,0
                        .area data(ram, con, rel)
 0194                   .dbfile E:\ICCDemo\Temp_Control\temp_control\pages.c
 0194           L337:
 0194                   .blkb 13
                        .area idata
 0194 B6CFB5E7D7D4B6AFBBD6B8B400        .byte 182,207,181,231,215,212,182,175,187,214,184,180,0
                        .area data(ram, con, rel)
 01A1                   .dbfile E:\ICCDemo\Temp_Control\temp_control\pages.c
 01A1           L310:
 01A1                   .blkb 12
                        .area idata
 01A1 B1A3B4E6D6D02E202E202E00  .byte 177,163,180,230,214,208,46,32,46,32,46,0
                        .area data(ram, con, rel)
 01AD                   .dbfile E:\ICCDemo\Temp_Control\temp_control\pages.c
 01AD           L262:
 01AD                   .blkb 5
                        .area idata
 01AD B1A3B4E600        .byte 177,163,180,230,0
                        .area data(ram, con, rel)
 01B2                   .dbfile E:\ICCDemo\Temp_Control\temp_control\pages.c
 01B2           L261:
 01B2                   .blkb 5
                        .area idata
 01B2 CEC2B6C800        .byte 206,194,182,200,0
                        .area data(ram, con, rel)
 01B7                   .dbfile E:\ICCDemo\Temp_Control\temp_control\pages.c
 01B7           L260:
 01B7                   .blkb 5
                        .area idata
 01B7 BAE3CEC200        .byte 186,227,206,194,0
                        .area data(ram, con, rel)
 01BC                   .dbfile E:\ICCDemo\Temp_Control\temp_control\pages.c
 01BC           L259:
 01BC                   .blkb 5
                        .area idata
 01BC C9FDCEC200        .byte 201,253,206,194,0
                        .area data(ram, con, rel)
 01C1                   .dbfile E:\ICCDemo\Temp_Control\temp_control\pages.c
 01C1           L215:
 01C1                   .blkb 2
                        .area idata
 01C1 2000              .byte 32,0
                        .area data(ram, con, rel)
 01C3                   .dbfile E:\ICCDemo\Temp_Control\temp_control\pages.c
 01C3           L214:
 01C3                   .blkb 3
                        .area idata
 01C3 3A2000            .byte 58,32,0
                        .area data(ram, con, rel)
 01C6                   .dbfile E:\ICCDemo\Temp_Control\temp_control\pages.c
 01C6           L166:
 01C6                   .blkb 7
                        .area idata
 01C6 D0B4D7B4CCAC00    .byte 208,180,215,180,204,172,0
                        .area data(ram, con, rel)
 01CD                   .dbfile E:\ICCDemo\Temp_Control\temp_control\pages.c
                        .area lit(rom, con, rel)
 0000           L157:
 0000 00000000          .word 0x0,0x0
                        .area data(ram, con, rel)
 01CD                   .dbfile E:\ICCDemo\Temp_Control\temp_control\pages.c
 01CD           L148:
 01CD                   .blkb 5
                        .area idata
 01CD D6D8D6C300        .byte 214,216,214,195,0
                        .area data(ram, con, rel)
 01D2                   .dbfile E:\ICCDemo\Temp_Control\temp_control\pages.c
 01D2           L147:
 01D2                   .blkb 5
                        .area idata
 01D2 D4CBD0D000        .byte 212,203,208,208,0
                        .area data(ram, con, rel)
 01D7                   .dbfile E:\ICCDemo\Temp_Control\temp_control\pages.c
 01D7           L146:
 01D7                   .blkb 5
                        .area idata
 01D7 B1E0BCAD00        .byte 177,224,188,173,0
                        .area data(ram, con, rel)
 01DC                   .dbfile E:\ICCDemo\Temp_Control\temp_control\pages.c
 01DC           L145:
 01DC                   .blkb 6
                        .area idata
 01DC D7B4CCAC3A00      .byte 215,180,204,172,58,0
                        .area data(ram, con, rel)
 01E2                   .dbfile E:\ICCDemo\Temp_Control\temp_control\pages.c
 01E2           L144:
 01E2                   .blkb 6
                        .area idata
 01E2 CEC2B6C83A00      .byte 206,194,182,200,58,0
                        .area data(ram, con, rel)
 01E8                   .dbfile E:\ICCDemo\Temp_Control\temp_control\pages.c
 01E8           L143:
 01E8                   .blkb 2
                        .area idata
 01E8 5400              .byte 'T,0
                        .area data(ram, con, rel)
 01EA                   .dbfile E:\ICCDemo\Temp_Control\temp_control\pages.c
 01EA           L128:
 01EA                   .blkb 12
                        .area idata
 01EA BBD6B8B4D6D02E202E202E00  .byte 187,214,184,180,214,208,46,32,46,32,46,0
                        .area data(ram, con, rel)
 01F6                   .dbfile E:\ICCDemo\Temp_Control\temp_control\pages.c
 01F6           L118:
 01F6                   .blkb 5
                        .area idata
 01F6 C8A1CFFB00        .byte 200,161,207,251,0
                        .area data(ram, con, rel)
 01FB                   .dbfile E:\ICCDemo\Temp_Control\temp_control\pages.c
 01FB           L117:
 01FB                   .blkb 5
                        .area idata
 01FB BBD6B8B400        .byte 187,214,184,180,0
                        .area data(ram, con, rel)
 0200                   .dbfile E:\ICCDemo\Temp_Control\temp_control\pages.c
 0200           L116:
 0200                   .blkb 17
                        .area idata
 0200 CAC7B7F1BBD6B8B4C9CFB4CEB9A4D7F7  .byte 202,199,183,241,187,214,184,180,201,207,180,206,185,164,215,247
 0210 00                .byte 0
                        .area data(ram, con, rel)
 0211                   .dbfile E:\ICCDemo\Temp_Control\temp_control\pages.c
 0211           L43:
 0211                   .blkb 5
                        .area idata
 0211 B5C8B4FD00        .byte 181,200,180,253,0
                        .area data(ram, con, rel)
 0216                   .dbfile E:\ICCDemo\Temp_Control\temp_control\pages.c
 0216           L41:
 0216                   .blkb 5
                        .area idata
 0216 BDE1CAF800        .byte 189,225,202,248,0
                        .area data(ram, con, rel)
 021B                   .dbfile E:\ICCDemo\Temp_Control\temp_control\pages.c
 021B           L39:
 021B                   .blkb 5
                        .area idata
 021B D4DDCDA300        .byte 212,221,205,163,0
                        .area data(ram, con, rel)
 0220                   .dbfile E:\ICCDemo\Temp_Control\temp_control\pages.c
 0220           L37:
 0220                   .blkb 5
                        .area idata
 0220 B9CAD5CF00        .byte 185,202,213,207,0
                        .area data(ram, con, rel)
 0225                   .dbfile E:\ICCDemo\Temp_Control\temp_control\pages.c
 0225           L31:
 0225                   .blkb 5
                        .area idata
 0225 CDA3D6B900        .byte 205,163,214,185,0
                        .area data(ram, con, rel)
 022A                   .dbfile E:\ICCDemo\Temp_Control\temp_control\pages.c
 022A           L11:
 022A                   .blkb 5
                        .area idata
 022A C9E8D6C300        .byte 201,232,214,195,0
                        .area data(ram, con, rel)
 022F                   .dbfile E:\ICCDemo\Temp_Control\temp_control\pages.c
 022F           L10:
 022F                   .blkb 9
                        .area idata
 022F CDA3D6B92020202000        .byte 205,163,214,185,32,32,32,32,0
                        .area data(ram, con, rel)
 0238                   .dbfile E:\ICCDemo\Temp_Control\temp_control\pages.c
 0238           L9:
 0238                   .blkb 9
                        .area idata
 0238 BFAACABC2020202000        .byte 191,170,202,188,32,32,32,32,0
                        .area data(ram, con, rel)
 0241                   .dbfile E:\ICCDemo\Temp_Control\temp_control\pages.c
 0241           L8:
 0241                   .blkb 5
                        .area idata
 0241 2054343A00        .byte 32,'T,52,58,0
                        .area data(ram, con, rel)
 0246                   .dbfile E:\ICCDemo\Temp_Control\temp_control\pages.c
 0246           L7:
 0246                   .blkb 5
                        .area idata
 0246 2054333A00        .byte 32,'T,51,58,0
                        .area data(ram, con, rel)
 024B                   .dbfile E:\ICCDemo\Temp_Control\temp_control\pages.c
 024B           L6:
 024B                   .blkb 5
                        .area idata
 024B 2054323A00        .byte 32,'T,50,58,0
                        .area data(ram, con, rel)
 0250                   .dbfile E:\ICCDemo\Temp_Control\temp_control\pages.c
 0250           L5:
 0250                   .blkb 5
                        .area idata
 0250 2054313A00        .byte 32,'T,49,58,0
                        .area data(ram, con, rel)
 0255                   .dbfile E:\ICCDemo\Temp_Control\temp_control\pages.c
 0255           L2:
 0255                   .blkb 6
                        .area idata
 0255 CAB1BCE43A00      .byte 202,177,188,228,58,0
                        .area data(ram, con, rel)
 025B                   .dbfile E:\ICCDemo\Temp_Control\temp_control\pages.c
 025B           ;                
 025B           ; }
