                        .module pages.c
                        .area text(rom, con, rel)
 0000                   .dbfile pages.c
 0000                   .dbfile E:\ICCDemo\Temp_Control\temp_control\pages.c
 0000                   .dbfunc e pageTime _pageTime fV
 0000           ;              y -> R10,R11
                        .even
 0000           _pageTime::
 0000 AA92              st -y,R10
 0002 BA92              st -y,R11
 0004 5801              movw R10,R16
 0006 2297              sbiw R28,2
 0008                   .dbline -1
 0008                   .dbline 17
 0008           ; #include<iom128v.h>
 0008           ; #include "main.h"
 0008           ; #include "lcd.h"
 0008           ; #include "time.h"
 0008           ; #include "timertask.h"
 0008           ; #include "key.h"
 0008           ; #include "delay.h"
 0008           ; //************************
 0008           ; // 所有界面信息在这里,用到全局变量， 
 0008           ; // unsigned int pageNum;//当前页面，如需跳转改变这个值就行
 0008           ; // unsigned int pageParam[5];//传递参数。界面间参数暂存
 0008           ; // unsigned int prePageNum;
 0008           ; //************************
 0008           ; 
 0008           ; //用于显第一行日期信息，其中Page1、Page3 、Page8使用，
 0008           ; //由定时器触发该函数，进入这三个界面是启动定时器，退出时关闭
 0008           ; void pageTime(uint y){
 0008                   .dbline 19
 0008           ;                 //关定时器
 0008           ;    lcd_write_str(0,y,"时间:");
 0008 80E0              ldi R24,<L2
 000A 90E0              ldi R25,>L2
 000C 9983              std y+1,R25
 000E 8883              std y+0,R24
 0010 2A2D              mov R18,R10
 0012 0027              clr R16
 0014 0E940000          xcall _lcd_write_str
 0018                   .dbline 20
 0018           ;    showTime_page(y);
 0018 8501              movw R16,R10
 001A 0E940000          xcall _showTime_page
 001E                   .dbline -2
 001E           L1:
 001E                   .dbline 0 ; func end
 001E 2296              adiw R28,2
 0020 B990              ld R11,y+
 0022 A990              ld R10,y+
 0024 0895              ret
 0026                   .dbsym r y 10 i
 0026                   .dbend
 0026                   .dbfunc e pageTime2 _pageTime2 fV
 0026           ;              y -> R10,R11
                        .even
 0026           _pageTime2::
 0026 AA92              st -y,R10
 0028 BA92              st -y,R11
 002A 5801              movw R10,R16
 002C                   .dbline -1
 002C                   .dbline 23
 002C           ;                  //开定时器 
 002C           ; }
 002C           ; void pageTime2(uint y){
 002C                   .dbline 26
 002C           ;                 //关定时器
 002C           ;    //lcd_write_str(0,y,"时间:");
 002C           ;    showTime_page(y);
 002C 8501              movw R16,R10
 002E 0E940000          xcall _showTime_page
 0032                   .dbline -2
 0032           L3:
 0032                   .dbline 0 ; func end
 0032 B990              ld R11,y+
 0034 A990              ld R10,y+
 0036 0895              ret
 0038                   .dbsym r y 10 i
 0038                   .dbend
 0038                   .dbfunc e page1 _page1 fV
 0038           ;            cur -> R20,R21
 0038           ;           keyV -> R10
 0038           ;              y -> R22,R23
 0038           ;              i -> R10,R11
                        .even
 0038           _page1::
 0038 0E940000          xcall push_xgsetF03C
 003C 2297              sbiw R28,2
 003E                   .dbline -1
 003E                   .dbline 30
 003E           ;                  //开定时器 
 003E           ; }
 003E           ; //page1,首页的界面
 003E           ; void page1(void){
 003E                   .dbline 31
 003E           ;    uint cur=0;
 003E                   .dbline 35
 003E           ;    uchar keyV;
 003E           ;    uint i;//用于循环
 003E           ;    uint y;//确定是那个半屏幕
 003E           ;    prePageNum=1;//首页不会再有上一界面，这里设置。虽然违反规则
 003E 81E0              ldi R24,1
 0040 90E0              ldi R25,0
 0042 90930100          sts _prePageNum+1,R25
 0046 80930000          sts _prePageNum,R24
 004A                   .dbline 40
 004A           ;    //初始化起始选择
 004A           ;        
 004A           ;    
 004A           ;    
 004A           ;    lcd_write_str(1,1," T1:100");
 004A 80E0              ldi R24,<L5
 004C 90E0              ldi R25,>L5
 004E 9983              std y+1,R25
 0050 8883              std y+0,R24
 0052 21E0              ldi R18,1
 0054 01E0              ldi R16,1
 0056 0E940000          xcall _lcd_write_str
 005A                   .dbline 41
 005A           ;    lcd_write_char(5,1,0xA1);
 005A 81EA              ldi R24,161
 005C 8883              std y+0,R24
 005E 21E0              ldi R18,1
 0060 05E0              ldi R16,5
 0062 0E940000          xcall _lcd_write_char
 0066                   .dbline 42
 0066           ;    lcd_write_char_con(1,0xE6);
 0066 26EE              ldi R18,230
 0068 01E0              ldi R16,1
 006A 0E940000          xcall _lcd_write_char_con
 006E                   .dbline 45
 006E           ;       
 006E           ;    
 006E           ;     lcd_write_str(6,1," T2:800");
 006E 80E0              ldi R24,<L6
 0070 90E0              ldi R25,>L6
 0072 9983              std y+1,R25
 0074 8883              std y+0,R24
 0076 21E0              ldi R18,1
 0078 06E0              ldi R16,6
 007A 0E940000          xcall _lcd_write_str
 007E                   .dbline 46
 007E           ;       lcd_write_char(10,1,0xA1);
 007E 81EA              ldi R24,161
 0080 8883              std y+0,R24
 0082 21E0              ldi R18,1
 0084 0AE0              ldi R16,10
 0086 0E940000          xcall _lcd_write_char
 008A                   .dbline 47
 008A           ;       lcd_write_char_con(1,0xE6);
 008A 26EE              ldi R18,230
 008C 01E0              ldi R16,1
 008E 0E940000          xcall _lcd_write_char_con
 0092                   .dbline 49
 0092           ;       
 0092           ;     lcd_write_str(1,2," T3:停止");
 0092 80E0              ldi R24,<L7
 0094 90E0              ldi R25,>L7
 0096 9983              std y+1,R25
 0098 8883              std y+0,R24
 009A 22E0              ldi R18,2
 009C 01E0              ldi R16,1
 009E 0E940000          xcall _lcd_write_str
 00A2                   .dbline 51
 00A2           ; 
 00A2           ;     lcd_write_str(6,2," T4:故障");
 00A2 80E0              ldi R24,<L8
 00A4 90E0              ldi R25,>L8
 00A6 9983              std y+1,R25
 00A8 8883              std y+0,R24
 00AA 22E0              ldi R18,2
 00AC 06E0              ldi R16,6
 00AE 0E940000          xcall _lcd_write_str
 00B2                   .dbline 54
 00B2           ; 
 00B2           ;       
 00B2           ;       lcd_write_str(1,3,"开始    ");
 00B2 80E0              ldi R24,<L9
 00B4 90E0              ldi R25,>L9
 00B6 9983              std y+1,R25
 00B8 8883              std y+0,R24
 00BA 23E0              ldi R18,3
 00BC 01E0              ldi R16,1
 00BE 0E940000          xcall _lcd_write_str
 00C2                   .dbline 55
 00C2           ;     lcd_write_str_con(3,"停止    ");
 00C2 20E0              ldi R18,<L10
 00C4 30E0              ldi R19,>L10
 00C6 03E0              ldi R16,3
 00C8 0E940000          xcall _lcd_write_str_con
 00CC                   .dbline 56
 00CC           ;       lcd_write_str_con(3,"设置");
 00CC 20E0              ldi R18,<L11
 00CE 30E0              ldi R19,>L11
 00D0 03E0              ldi R16,3
 00D2 0E940000          xcall _lcd_write_str_con
 00D6                   .dbline 61
 00D6           ;       
 00D6           ;       
 00D6           ;       
 00D6           ;        
 00D6           ;       cur=0;
 00D6 4427              clr R20
 00D8 5527              clr R21
 00DA                   .dbline 62
 00DA           ;       Set_White(2,1,3);
 00DA 83E0              ldi R24,3
 00DC 8883              std y+0,R24
 00DE 21E0              ldi R18,1
 00E0 02E0              ldi R16,2
 00E2 0E940000          xcall _Set_White
 00E6 15C3              xjmp L13
 00E8           L12:
 00E8                   .dbline 63
 00E8           ;       while(1){
 00E8                   .dbline 64
 00E8           ;        pageTime(0);
 00E8 0027              clr R16
 00EA 1127              clr R17
 00EC 89DF              xcall _pageTime
 00EE                   .dbline 65
 00EE           ;       for(i=0;i<4;i++){
 00EE AA24              clr R10
 00F0 BB24              clr R11
 00F2 81C0              xjmp L18
 00F4           L15:
 00F4                   .dbline 65
 00F4                   .dbline 66
 00F4           ;         if(i==0){
 00F4 AA20              tst R10
 00F6 49F4              brne L19
 00F8 BB20              tst R11
 00FA 39F4              brne L19
 00FC           X0:
 00FC                   .dbline 66
 00FC                   .dbline 67
 00FC           ;           y=1;
 00FC 61E0              ldi R22,1
 00FE 70E0              ldi R23,0
 0100                   .dbline 68
 0100           ;           lcd_write_pos(3,1);
 0100 21E0              ldi R18,1
 0102 03E0              ldi R16,3
 0104 0E940000          xcall _lcd_write_pos
 0108                   .dbline 69
 0108           ;         }else if(i==1){
 0108 23C0              xjmp L20
 010A           L19:
 010A                   .dbline 69
 010A C501              movw R24,R10
 010C 8130              cpi R24,1
 010E E0E0              ldi R30,0
 0110 9E07              cpc R25,R30
 0112 39F4              brne L21
 0114           X1:
 0114                   .dbline 69
 0114                   .dbline 70
 0114           ;           y=1;
 0114 61E0              ldi R22,1
 0116 70E0              ldi R23,0
 0118                   .dbline 71
 0118           ;           lcd_write_pos(8,1);
 0118 21E0              ldi R18,1
 011A 08E0              ldi R16,8
 011C 0E940000          xcall _lcd_write_pos
 0120                   .dbline 72
 0120           ;         }else if(i==2){
 0120 17C0              xjmp L22
 0122           L21:
 0122                   .dbline 72
 0122 C501              movw R24,R10
 0124 8230              cpi R24,2
 0126 E0E0              ldi R30,0
 0128 9E07              cpc R25,R30
 012A 39F4              brne L23
 012C           X2:
 012C                   .dbline 72
 012C                   .dbline 73
 012C           ;           y=2;
 012C 62E0              ldi R22,2
 012E 70E0              ldi R23,0
 0130                   .dbline 74
 0130           ;           lcd_write_pos(3,2);
 0130 22E0              ldi R18,2
 0132 03E0              ldi R16,3
 0134 0E940000          xcall _lcd_write_pos
 0138                   .dbline 75
 0138           ;         }else if(i==3){
 0138 0BC0              xjmp L24
 013A           L23:
 013A                   .dbline 75
 013A C501              movw R24,R10
 013C 8330              cpi R24,3
 013E E0E0              ldi R30,0
 0140 9E07              cpc R25,R30
 0142 31F4              brne L25
 0144           X3:
 0144                   .dbline 75
 0144                   .dbline 76
 0144           ;           y=2;
 0144 62E0              ldi R22,2
 0146 70E0              ldi R23,0
 0148                   .dbline 77
 0148           ;           lcd_write_pos(8,2);
 0148 22E0              ldi R18,2
 014A 08E0              ldi R16,8
 014C 0E940000          xcall _lcd_write_pos
 0150                   .dbline 78
 0150           ;         }
 0150           L25:
 0150           L24:
 0150           L22:
 0150           L20:
 0150                   .dbline 79
 0150           ;          switch(temps[i].flag){
 0150 80E0              ldi R24,<_temps
 0152 90E0              ldi R25,>_temps
 0154 F501              movw R30,R10
 0156 EE0F              lsl R30
 0158 FF1F              rol R31
 015A E80F              add R30,R24
 015C F91F              adc R31,R25
 015E C080              ldd R12,z+0
 0160 D180              ldd R13,z+1
 0162 CC20              tst R12
 0164 11F4              brne X4
 0166 DD20              tst R13
 0168 D1F0              breq L30
 016A           X4:
 016A C601              movw R24,R12
 016C 8130              cpi R24,1
 016E E0E0              ldi R30,0
 0170 9E07              cpc R25,R30
 0172 D9F0              breq L32
 0174           X5:
 0174 8230              cpi R24,2
 0176 E0E0              ldi R30,0
 0178 9E07              cpc R25,R30
 017A E9F0              breq L34
 017C           X6:
 017C 8330              cpi R24,3
 017E E0E0              ldi R30,0
 0180 9E07              cpc R25,R30
 0182 F9F0              breq L36
 0184           X7:
 0184 8430              cpi R24,4
 0186 E0E0              ldi R30,0
 0188 9E07              cpc R25,R30
 018A 09F1              breq L38
 018C           X8:
 018C 8530              cpi R24,5
 018E E0E0              ldi R30,0
 0190 9E07              cpc R25,R30
 0192 19F1              breq L40
 0194           X9:
 0194 8630              cpi R24,6
 0196 E0E0              ldi R30,0
 0198 9E07              cpc R25,R30
 019A 29F1              breq L42
 019C           X10:
 019C 29C0              xjmp L28
 019E           L30:
 019E                   .dbline 81
 019E           ;            case 0:
 019E           ;                  lcd_write_str_con(y,"停止");
 019E 20E0              ldi R18,<L31
 01A0 30E0              ldi R19,>L31
 01A2 062F              mov R16,R22
 01A4 0E940000          xcall _lcd_write_str_con
 01A8                   .dbline 82
 01A8           ;                  break;
 01A8 23C0              xjmp L28
 01AA           L32:
 01AA                   .dbline 84
 01AA           ;                case 1:
 01AA           ;                  lcd_write_str_con(y,"150");
 01AA 20E0              ldi R18,<L33
 01AC 30E0              ldi R19,>L33
 01AE 062F              mov R16,R22
 01B0 0E940000          xcall _lcd_write_str_con
 01B4                   .dbline 85
 01B4           ;                  break;
 01B4 1DC0              xjmp L28
 01B6           L34:
 01B6                   .dbline 87
 01B6           ;                case 2:
 01B6           ;                  lcd_write_str_con(y,"故障");
 01B6 20E0              ldi R18,<L35
 01B8 30E0              ldi R19,>L35
 01BA 062F              mov R16,R22
 01BC 0E940000          xcall _lcd_write_str_con
 01C0                   .dbline 88
 01C0           ;                  break;
 01C0 17C0              xjmp L28
 01C2           L36:
 01C2                   .dbline 90
 01C2           ;                case 3:
 01C2           ;                  lcd_write_str_con(y,"暂停");
 01C2 20E0              ldi R18,<L37
 01C4 30E0              ldi R19,>L37
 01C6 062F              mov R16,R22
 01C8 0E940000          xcall _lcd_write_str_con
 01CC                   .dbline 91
 01CC           ;                  break;
 01CC 11C0              xjmp L28
 01CE           L38:
 01CE                   .dbline 93
 01CE           ;                case 4:
 01CE           ;                  lcd_write_str_con(y,"结束");
 01CE 20E0              ldi R18,<L39
 01D0 30E0              ldi R19,>L39
 01D2 062F              mov R16,R22
 01D4 0E940000          xcall _lcd_write_str_con
 01D8                   .dbline 94
 01D8           ;                  break;
 01D8 0BC0              xjmp L28
 01DA           L40:
 01DA                   .dbline 96
 01DA           ;                case 5:
 01DA           ;                  lcd_write_str_con(y,"等待");
 01DA 20E0              ldi R18,<L41
 01DC 30E0              ldi R19,>L41
 01DE 062F              mov R16,R22
 01E0 0E940000          xcall _lcd_write_str_con
 01E4                   .dbline 97
 01E4           ;                  break;
 01E4 05C0              xjmp L28
 01E6           L42:
 01E6                   .dbline 99
 01E6           ;                case 6:
 01E6           ;                  lcd_write_str_con(y,"加载");
 01E6 20E0              ldi R18,<L43
 01E8 30E0              ldi R19,>L43
 01EA 062F              mov R16,R22
 01EC 0E940000          xcall _lcd_write_str_con
 01F0                   .dbline 100
 01F0           ;                  break;
 01F0                   .dbline 101
 01F0           ;                  break;
 01F0                   .dbline 103
 01F0           ;                default:
 01F0           ;                  break;
 01F0           L28:
 01F0                   .dbline 105
 01F0           ;          }
 01F0           ;       }
 01F0           L16:
 01F0                   .dbline 65
 01F0 C501              movw R24,R10
 01F2 0196              adiw R24,1
 01F4 5C01              movw R10,R24
 01F6           L18:
 01F6                   .dbline 65
 01F6 C501              movw R24,R10
 01F8 8430              cpi R24,4
 01FA E0E0              ldi R30,0
 01FC 9E07              cpc R25,R30
 01FE 08F4              brsh X56
 0200 79CF              xjmp L15
 0202           X56:
 0202           X11:
 0202                   .dbline 106
 0202           ;        keyV=KeyScan_once();
 0202 0E940000          xcall _KeyScan_once
 0206 A02E              mov R10,R16
 0208                   .dbline 107
 0208           ;        if(keyV=='a'){
 0208 0136              cpi R16,97
 020A 09F0              breq X57
 020C 48C0              xjmp L44
 020E           X57:
 020E           X12:
 020E                   .dbline 107
 020E                   .dbline 109
 020E           ;             //pageNum=8;//跳转到设置时间的界面
 020E           ;                  pageNum=8;
 020E 88E0              ldi R24,8
 0210 90E0              ldi R25,0
 0212 90930100          sts _pageNum+1,R25
 0216 80930000          sts _pageNum,R24
 021A                   .dbline 110
 021A           ;          switch(cur){
 021A 4030              cpi R20,0
 021C 4507              cpc R20,R21
 021E A9F0              breq L48
 0220           X13:
 0220 4130              cpi R20,1
 0222 E0E0              ldi R30,0
 0224 5E07              cpc R21,R30
 0226 C1F0              breq L49
 0228           X14:
 0228 4230              cpi R20,2
 022A E0E0              ldi R30,0
 022C 5E07              cpc R21,R30
 022E D9F0              breq L50
 0230           X15:
 0230 4330              cpi R20,3
 0232 E0E0              ldi R30,0
 0234 5E07              cpc R21,R30
 0236 F1F0              breq L51
 0238           X16:
 0238 4530              cpi R20,5
 023A E0E0              ldi R30,0
 023C 5E07              cpc R21,R30
 023E 09F1              breq L52
 0240           X17:
 0240 4630              cpi R20,6
 0242 E0E0              ldi R30,0
 0244 5E07              cpc R21,R30
 0246 21F1              breq L53
 0248           X18:
 0248 65C2              xjmp L4
 024A           L48:
 024A                   .dbline 112
 024A           ;                case 0: 
 024A           ;                   Set_White_off(2,1,3);
 024A 83E0              ldi R24,3
 024C 8883              std y+0,R24
 024E 21E0              ldi R18,1
 0250 02E0              ldi R16,2
 0252 0E940000          xcall _Set_White_off
 0256                   .dbline 113
 0256           ;                   break;
 0256 5EC2              xjmp L4
 0258           L49:
 0258                   .dbline 115
 0258           ;                case 1:
 0258           ;                  Set_White_off(7,1,8);
 0258 88E0              ldi R24,8
 025A 8883              std y+0,R24
 025C 21E0              ldi R18,1
 025E 07E0              ldi R16,7
 0260 0E940000          xcall _Set_White_off
 0264                   .dbline 116
 0264           ;                  break;
 0264 57C2              xjmp L4
 0266           L50:
 0266                   .dbline 118
 0266           ;                case 2:
 0266           ;                 Set_White_off(2,2,3);
 0266 83E0              ldi R24,3
 0268 8883              std y+0,R24
 026A 22E0              ldi R18,2
 026C 02E0              ldi R16,2
 026E 0E940000          xcall _Set_White_off
 0272                   .dbline 119
 0272           ;                 break;
 0272 50C2              xjmp L4
 0274           L51:
 0274                   .dbline 121
 0274           ;                case 3:
 0274           ;                  Set_White_off(7,2,8);
 0274 88E0              ldi R24,8
 0276 8883              std y+0,R24
 0278 22E0              ldi R18,2
 027A 07E0              ldi R16,7
 027C 0E940000          xcall _Set_White_off
 0280                   .dbline 122
 0280           ;                   break;
 0280 49C2              xjmp L4
 0282           L52:
 0282                   .dbline 124
 0282           ;               case 5:
 0282           ;                   Set_White_off(6,3,7);
 0282 87E0              ldi R24,7
 0284 8883              std y+0,R24
 0286 23E0              ldi R18,3
 0288 06E0              ldi R16,6
 028A 0E940000          xcall _Set_White_off
 028E                   .dbline 125
 028E           ;                   break;
 028E 42C2              xjmp L4
 0290           L53:
 0290                   .dbline 127
 0290           ;                case 6:
 0290           ;                  Set_White_off(10,3,11);
 0290 8BE0              ldi R24,11
 0292 8883              std y+0,R24
 0294 23E0              ldi R18,3
 0296 0AE0              ldi R16,10
 0298 0E940000          xcall _Set_White_off
 029C                   .dbline 128
 029C           ;                   break;
 029C                   .dbline 130
 029C           ;                 default:
 029C           ;                  break;
 029C                   .dbline 132
 029C           ;                }
 029C           ;          return ;
 029C 3BC2              xjmp L4
 029E           L44:
 029E                   .dbline 133
 029E           ;       }else if(keyV=='d'){
 029E 8A2D              mov R24,R10
 02A0 8436              cpi R24,100
 02A2 09F0              breq X58
 02A4 4CC0              xjmp L54
 02A6           X58:
 02A6           X19:
 02A6                   .dbline 133
 02A6                   .dbline 134
 02A6           ;            switch(cur){
 02A6 4030              cpi R20,0
 02A8 4507              cpc R20,R21
 02AA 69F0              breq L58
 02AC           X20:
 02AC 4130              cpi R20,1
 02AE E0E0              ldi R30,0
 02B0 5E07              cpc R21,R30
 02B2 C1F0              breq L59
 02B4           X21:
 02B4 4230              cpi R20,2
 02B6 E0E0              ldi R30,0
 02B8 5E07              cpc R21,R30
 02BA 19F1              breq L60
 02BC           X22:
 02BC 4330              cpi R20,3
 02BE E0E0              ldi R30,0
 02C0 5E07              cpc R21,R30
 02C2 71F1              breq L61
 02C4           X23:
 02C4 26C2              xjmp L55
 02C6           L58:
 02C6                   .dbline 136
 02C6           ;                 case 0:
 02C6           ;                  Set_White_off(2,1,3);
 02C6 83E0              ldi R24,3
 02C8 8883              std y+0,R24
 02CA 21E0              ldi R18,1
 02CC 02E0              ldi R16,2
 02CE 0E940000          xcall _Set_White_off
 02D2                   .dbline 137
 02D2           ;                  Set_White(2,2,3);
 02D2 83E0              ldi R24,3
 02D4 8883              std y+0,R24
 02D6 22E0              ldi R18,2
 02D8 02E0              ldi R16,2
 02DA 0E940000          xcall _Set_White
 02DE                   .dbline 138
 02DE           ;                  cur=2;
 02DE 42E0              ldi R20,2
 02E0 50E0              ldi R21,0
 02E2                   .dbline 139
 02E2           ;                  break;
 02E2 17C2              xjmp L55
 02E4           L59:
 02E4                   .dbline 141
 02E4           ;                 case 1:
 02E4           ;                  Set_White_off(7,1,8);
 02E4 88E0              ldi R24,8
 02E6 8883              std y+0,R24
 02E8 21E0              ldi R18,1
 02EA 07E0              ldi R16,7
 02EC 0E940000          xcall _Set_White_off
 02F0                   .dbline 142
 02F0           ;                  Set_White(7,2,8);
 02F0 88E0              ldi R24,8
 02F2 8883              std y+0,R24
 02F4 22E0              ldi R18,2
 02F6 07E0              ldi R16,7
 02F8 0E940000          xcall _Set_White
 02FC                   .dbline 143
 02FC           ;                  cur=3;
 02FC 43E0              ldi R20,3
 02FE 50E0              ldi R21,0
 0300                   .dbline 144
 0300           ;                  break;
 0300 08C2              xjmp L55
 0302           L60:
 0302                   .dbline 146
 0302           ;                 case 2:
 0302           ;                  Set_White_off(2,2,3);
 0302 83E0              ldi R24,3
 0304 8883              std y+0,R24
 0306 22E0              ldi R18,2
 0308 02E0              ldi R16,2
 030A 0E940000          xcall _Set_White_off
 030E                   .dbline 147
 030E           ;                  Set_White(2,3,3);
 030E 83E0              ldi R24,3
 0310 8883              std y+0,R24
 0312 23E0              ldi R18,3
 0314 02E0              ldi R16,2
 0316 0E940000          xcall _Set_White
 031A                   .dbline 148
 031A           ;                  cur=4;
 031A 44E0              ldi R20,4
 031C 50E0              ldi R21,0
 031E                   .dbline 149
 031E           ;                  break;
 031E F9C1              xjmp L55
 0320           L61:
 0320                   .dbline 151
 0320           ;                 case 3:
 0320           ;                  Set_White_off(7,2,8);
 0320 88E0              ldi R24,8
 0322 8883              std y+0,R24
 0324 22E0              ldi R18,2
 0326 07E0              ldi R16,7
 0328 0E940000          xcall _Set_White_off
 032C                   .dbline 152
 032C           ;                  Set_White(6,3,7);
 032C 87E0              ldi R24,7
 032E 8883              std y+0,R24
 0330 23E0              ldi R18,3
 0332 06E0              ldi R16,6
 0334 0E940000          xcall _Set_White
 0338                   .dbline 153
 0338           ;                  cur=5;
 0338 45E0              ldi R20,5
 033A 50E0              ldi R21,0
 033C                   .dbline 154
 033C           ;                  break;
 033C                   .dbline 156
 033C           ;                 default:
 033C           ;                  break;
 033C                   .dbline 158
 033C           ;                }
 033C           ;       }else if(keyV=='u'){switch(cur){
 033C EAC1              xjmp L55
 033E           L54:
 033E                   .dbline 158
 033E 8A2D              mov R24,R10
 0340 8537              cpi R24,117
 0342 09F0              breq X59
 0344 61C0              xjmp L62
 0346           X59:
 0346           X24:
 0346                   .dbline 158
 0346                   .dbline 158
 0346 4230              cpi R20,2
 0348 E0E0              ldi R30,0
 034A 5E07              cpc R21,R30
 034C 91F0              breq L66
 034E           X25:
 034E 4330              cpi R20,3
 0350 E0E0              ldi R30,0
 0352 5E07              cpc R21,R30
 0354 E9F0              breq L67
 0356           X26:
 0356 4430              cpi R20,4
 0358 E0E0              ldi R30,0
 035A 5E07              cpc R21,R30
 035C 41F1              breq L68
 035E           X27:
 035E 4530              cpi R20,5
 0360 E0E0              ldi R30,0
 0362 5E07              cpc R21,R30
 0364 99F1              breq L69
 0366           X28:
 0366 4630              cpi R20,6
 0368 E0E0              ldi R30,0
 036A 5E07              cpc R21,R30
 036C 09F4              brne X60
 036E 3DC0              xjmp L70
 0370           X60:
 0370           X29:
 0370 D0C1              xjmp L63
 0372           L66:
 0372                   .dbline 160
 0372           ;                 case 2:
 0372           ;                  Set_White_off(2,2,3);
 0372 83E0              ldi R24,3
 0374 8883              std y+0,R24
 0376 22E0              ldi R18,2
 0378 02E0              ldi R16,2
 037A 0E940000          xcall _Set_White_off
 037E                   .dbline 161
 037E           ;                  Set_White(2,1,3);
 037E 83E0              ldi R24,3
 0380 8883              std y+0,R24
 0382 21E0              ldi R18,1
 0384 02E0              ldi R16,2
 0386 0E940000          xcall _Set_White
 038A                   .dbline 162
 038A           ;                  cur=0;
 038A 4427              clr R20
 038C 5527              clr R21
 038E                   .dbline 163
 038E           ;                  break;
 038E C1C1              xjmp L63
 0390           L67:
 0390                   .dbline 165
 0390           ;                 case 3:
 0390           ;                  Set_White_off(7,2,8);
 0390 88E0              ldi R24,8
 0392 8883              std y+0,R24
 0394 22E0              ldi R18,2
 0396 07E0              ldi R16,7
 0398 0E940000          xcall _Set_White_off
 039C                   .dbline 166
 039C           ;                  Set_White(7,1,8);
 039C 88E0              ldi R24,8
 039E 8883              std y+0,R24
 03A0 21E0              ldi R18,1
 03A2 07E0              ldi R16,7
 03A4 0E940000          xcall _Set_White
 03A8                   .dbline 167
 03A8           ;                  cur=1;
 03A8 41E0              ldi R20,1
 03AA 50E0              ldi R21,0
 03AC                   .dbline 168
 03AC           ;                  break;
 03AC B2C1              xjmp L63
 03AE           L68:
 03AE                   .dbline 170
 03AE           ;                 case 4:
 03AE           ;                  Set_White_off(2,3,5);
 03AE 85E0              ldi R24,5
 03B0 8883              std y+0,R24
 03B2 23E0              ldi R18,3
 03B4 02E0              ldi R16,2
 03B6 0E940000          xcall _Set_White_off
 03BA                   .dbline 171
 03BA           ;                  Set_White(2,2,3);
 03BA 83E0              ldi R24,3
 03BC 8883              std y+0,R24
 03BE 22E0              ldi R18,2
 03C0 02E0              ldi R16,2
 03C2 0E940000          xcall _Set_White
 03C6                   .dbline 172
 03C6           ;                  cur=2;
 03C6 42E0              ldi R20,2
 03C8 50E0              ldi R21,0
 03CA                   .dbline 173
 03CA           ;                  break;
 03CA A3C1              xjmp L63
 03CC           L69:
 03CC                   .dbline 175
 03CC           ;                 case 5:
 03CC           ;                  Set_White_off(6,3,7);
 03CC 87E0              ldi R24,7
 03CE 8883              std y+0,R24
 03D0 23E0              ldi R18,3
 03D2 06E0              ldi R16,6
 03D4 0E940000          xcall _Set_White_off
 03D8                   .dbline 176
 03D8           ;                  Set_White(7,2,8);
 03D8 88E0              ldi R24,8
 03DA 8883              std y+0,R24
 03DC 22E0              ldi R18,2
 03DE 07E0              ldi R16,7
 03E0 0E940000          xcall _Set_White
 03E4                   .dbline 177
 03E4           ;                  cur=3;
 03E4 43E0              ldi R20,3
 03E6 50E0              ldi R21,0
 03E8                   .dbline 178
 03E8           ;                  break;
 03E8 94C1              xjmp L63
 03EA           L70:
 03EA                   .dbline 180
 03EA           ;                 case 6:
 03EA           ;                  Set_White_off(10,3,11);
 03EA 8BE0              ldi R24,11
 03EC 8883              std y+0,R24
 03EE 23E0              ldi R18,3
 03F0 0AE0              ldi R16,10
 03F2 0E940000          xcall _Set_White_off
 03F6                   .dbline 181
 03F6           ;                  Set_White(7,2,8);
 03F6 88E0              ldi R24,8
 03F8 8883              std y+0,R24
 03FA 22E0              ldi R18,2
 03FC 07E0              ldi R16,7
 03FE 0E940000          xcall _Set_White
 0402                   .dbline 182
 0402           ;                  cur=3;
 0402 43E0              ldi R20,3
 0404 50E0              ldi R21,0
 0406                   .dbline 183
 0406           ;                  break;
 0406                   .dbline 185
 0406           ;                 default:
 0406           ;                  break;
 0406                   .dbline 187
 0406           ;                }
 0406           ;       }else if(keyV=='l'){switch(cur){
 0406 85C1              xjmp L63
 0408           L62:
 0408                   .dbline 187
 0408 8A2D              mov R24,R10
 040A 8C36              cpi R24,108
 040C 09F0              breq X61
 040E 4DC0              xjmp L71
 0410           X61:
 0410           X30:
 0410                   .dbline 187
 0410                   .dbline 187
 0410 4130              cpi R20,1
 0412 E0E0              ldi R30,0
 0414 5E07              cpc R21,R30
 0416 69F0              breq L75
 0418           X31:
 0418 4330              cpi R20,3
 041A E0E0              ldi R30,0
 041C 5E07              cpc R21,R30
 041E C1F0              breq L76
 0420           X32:
 0420 4530              cpi R20,5
 0422 E0E0              ldi R30,0
 0424 5E07              cpc R21,R30
 0426 19F1              breq L77
 0428           X33:
 0428 4630              cpi R20,6
 042A E0E0              ldi R30,0
 042C 5E07              cpc R21,R30
 042E 71F1              breq L78
 0430           X34:
 0430 70C1              xjmp L72
 0432           L75:
 0432                   .dbline 189
 0432           ;                 case 1:
 0432           ;                  Set_White_off(7,1,8);
 0432 88E0              ldi R24,8
 0434 8883              std y+0,R24
 0436 21E0              ldi R18,1
 0438 07E0              ldi R16,7
 043A 0E940000          xcall _Set_White_off
 043E                   .dbline 190
 043E           ;                  Set_White(2,1,3);
 043E 83E0              ldi R24,3
 0440 8883              std y+0,R24
 0442 21E0              ldi R18,1
 0444 02E0              ldi R16,2
 0446 0E940000          xcall _Set_White
 044A                   .dbline 191
 044A           ;                  cur=0;
 044A 4427              clr R20
 044C 5527              clr R21
 044E                   .dbline 192
 044E           ;                  break;
 044E 61C1              xjmp L72
 0450           L76:
 0450                   .dbline 194
 0450           ;                 case 3:
 0450           ;                  Set_White_off(7,2,8);
 0450 88E0              ldi R24,8
 0452 8883              std y+0,R24
 0454 22E0              ldi R18,2
 0456 07E0              ldi R16,7
 0458 0E940000          xcall _Set_White_off
 045C                   .dbline 195
 045C           ;                  Set_White(2,2,3);
 045C 83E0              ldi R24,3
 045E 8883              std y+0,R24
 0460 22E0              ldi R18,2
 0462 02E0              ldi R16,2
 0464 0E940000          xcall _Set_White
 0468                   .dbline 196
 0468           ;                  cur=2;
 0468 42E0              ldi R20,2
 046A 50E0              ldi R21,0
 046C                   .dbline 197
 046C           ;                  break;
 046C 52C1              xjmp L72
 046E           L77:
 046E                   .dbline 199
 046E           ;                 case 5:
 046E           ;                  Set_White_off(6,3,7);
 046E 87E0              ldi R24,7
 0470 8883              std y+0,R24
 0472 23E0              ldi R18,3
 0474 06E0              ldi R16,6
 0476 0E940000          xcall _Set_White_off
 047A                   .dbline 200
 047A           ;                  Set_White(2,3,3);
 047A 83E0              ldi R24,3
 047C 8883              std y+0,R24
 047E 23E0              ldi R18,3
 0480 02E0              ldi R16,2
 0482 0E940000          xcall _Set_White
 0486                   .dbline 201
 0486           ;                  cur=4;
 0486 44E0              ldi R20,4
 0488 50E0              ldi R21,0
 048A                   .dbline 202
 048A           ;                  break;
 048A 43C1              xjmp L72
 048C           L78:
 048C                   .dbline 204
 048C           ;                 case 6:
 048C           ;                  Set_White_off(10,3,11);
 048C 8BE0              ldi R24,11
 048E 8883              std y+0,R24
 0490 23E0              ldi R18,3
 0492 0AE0              ldi R16,10
 0494 0E940000          xcall _Set_White_off
 0498                   .dbline 205
 0498           ;                  Set_White(6,3,7);
 0498 87E0              ldi R24,7
 049A 8883              std y+0,R24
 049C 23E0              ldi R18,3
 049E 06E0              ldi R16,6
 04A0 0E940000          xcall _Set_White
 04A4                   .dbline 206
 04A4           ;                  cur=5;
 04A4 45E0              ldi R20,5
 04A6 50E0              ldi R21,0
 04A8                   .dbline 207
 04A8           ;                  break;
 04A8                   .dbline 209
 04A8           ;                 default:
 04A8           ;                  break;
 04A8                   .dbline 211
 04A8           ;                }
 04A8           ;       }else if(keyV=='r'){
 04A8 34C1              xjmp L72
 04AA           L71:
 04AA                   .dbline 211
 04AA 8A2D              mov R24,R10
 04AC 8237              cpi R24,114
 04AE 09F0              breq X62
 04B0 4CC0              xjmp L79
 04B2           X62:
 04B2           X35:
 04B2                   .dbline 211
 04B2                   .dbline 212
 04B2           ;       switch(cur){
 04B2 4030              cpi R20,0
 04B4 4507              cpc R20,R21
 04B6 69F0              breq L83
 04B8           X36:
 04B8 4230              cpi R20,2
 04BA E0E0              ldi R30,0
 04BC 5E07              cpc R21,R30
 04BE C1F0              breq L84
 04C0           X37:
 04C0 4430              cpi R20,4
 04C2 E0E0              ldi R30,0
 04C4 5E07              cpc R21,R30
 04C6 19F1              breq L85
 04C8           X38:
 04C8 4530              cpi R20,5
 04CA E0E0              ldi R30,0
 04CC 5E07              cpc R21,R30
 04CE 71F1              breq L86
 04D0           X39:
 04D0 20C1              xjmp L80
 04D2           L83:
 04D2                   .dbline 214
 04D2           ;                 case 0:
 04D2           ;                  Set_White_off(2,1,3);
 04D2 83E0              ldi R24,3
 04D4 8883              std y+0,R24
 04D6 21E0              ldi R18,1
 04D8 02E0              ldi R16,2
 04DA 0E940000          xcall _Set_White_off
 04DE                   .dbline 215
 04DE           ;                  Set_White(7,1,8);
 04DE 88E0              ldi R24,8
 04E0 8883              std y+0,R24
 04E2 21E0              ldi R18,1
 04E4 07E0              ldi R16,7
 04E6 0E940000          xcall _Set_White
 04EA                   .dbline 216
 04EA           ;                  cur=1;
 04EA 41E0              ldi R20,1
 04EC 50E0              ldi R21,0
 04EE                   .dbline 217
 04EE           ;                  break;
 04EE 11C1              xjmp L80
 04F0           L84:
 04F0                   .dbline 219
 04F0           ;                 case 2:
 04F0           ;                  Set_White_off(2,2,3);
 04F0 83E0              ldi R24,3
 04F2 8883              std y+0,R24
 04F4 22E0              ldi R18,2
 04F6 02E0              ldi R16,2
 04F8 0E940000          xcall _Set_White_off
 04FC                   .dbline 220
 04FC           ;                  Set_White(7,2,8);
 04FC 88E0              ldi R24,8
 04FE 8883              std y+0,R24
 0500 22E0              ldi R18,2
 0502 07E0              ldi R16,7
 0504 0E940000          xcall _Set_White
 0508                   .dbline 221
 0508           ;                  cur=3;
 0508 43E0              ldi R20,3
 050A 50E0              ldi R21,0
 050C                   .dbline 222
 050C           ;                  break;
 050C 02C1              xjmp L80
 050E           L85:
 050E                   .dbline 224
 050E           ;                 case 4:
 050E           ;                  Set_White_off(2,3,3);
 050E 83E0              ldi R24,3
 0510 8883              std y+0,R24
 0512 23E0              ldi R18,3
 0514 02E0              ldi R16,2
 0516 0E940000          xcall _Set_White_off
 051A                   .dbline 225
 051A           ;                  Set_White(6,3,7);
 051A 87E0              ldi R24,7
 051C 8883              std y+0,R24
 051E 23E0              ldi R18,3
 0520 06E0              ldi R16,6
 0522 0E940000          xcall _Set_White
 0526                   .dbline 226
 0526           ;                  cur=5;
 0526 45E0              ldi R20,5
 0528 50E0              ldi R21,0
 052A                   .dbline 227
 052A           ;                  break;
 052A F3C0              xjmp L80
 052C           L86:
 052C                   .dbline 229
 052C           ;                 case 5:
 052C           ;                  Set_White_off(6,3,7);
 052C 87E0              ldi R24,7
 052E 8883              std y+0,R24
 0530 23E0              ldi R18,3
 0532 06E0              ldi R16,6
 0534 0E940000          xcall _Set_White_off
 0538                   .dbline 230
 0538           ;                  Set_White(10,3,11);
 0538 8BE0              ldi R24,11
 053A 8883              std y+0,R24
 053C 23E0              ldi R18,3
 053E 0AE0              ldi R16,10
 0540 0E940000          xcall _Set_White
 0544                   .dbline 231
 0544           ;                  cur=6;
 0544 46E0              ldi R20,6
 0546 50E0              ldi R21,0
 0548                   .dbline 232
 0548           ;                  break;
 0548                   .dbline 234
 0548           ;                 default:
 0548           ;                  break;
 0548                   .dbline 236
 0548           ;                }
 0548           ;       }else if(keyV=='s'){
 0548 E4C0              xjmp L80
 054A           L79:
 054A                   .dbline 236
 054A 8A2D              mov R24,R10
 054C 8337              cpi R24,115
 054E 09F0              breq X63
 0550 48C0              xjmp L87
 0552           X63:
 0552           X40:
 0552                   .dbline 236
 0552                   .dbline 237
 0552           ;          pageNum=5;
 0552 85E0              ldi R24,5
 0554 90E0              ldi R25,0
 0556 90930100          sts _pageNum+1,R25
 055A 80930000          sts _pageNum,R24
 055E                   .dbline 238
 055E           ;          switch(cur){
 055E 4030              cpi R20,0
 0560 4507              cpc R20,R21
 0562 A9F0              breq L91
 0564           X41:
 0564 4130              cpi R20,1
 0566 E0E0              ldi R30,0
 0568 5E07              cpc R21,R30
 056A C1F0              breq L92
 056C           X42:
 056C 4230              cpi R20,2
 056E E0E0              ldi R30,0
 0570 5E07              cpc R21,R30
 0572 D9F0              breq L93
 0574           X43:
 0574 4330              cpi R20,3
 0576 E0E0              ldi R30,0
 0578 5E07              cpc R21,R30
 057A F1F0              breq L94
 057C           X44:
 057C 4530              cpi R20,5
 057E E0E0              ldi R30,0
 0580 5E07              cpc R21,R30
 0582 09F1              breq L95
 0584           X45:
 0584 4630              cpi R20,6
 0586 E0E0              ldi R30,0
 0588 5E07              cpc R21,R30
 058A 21F1              breq L96
 058C           X46:
 058C C3C0              xjmp L4
 058E           L91:
 058E                   .dbline 240
 058E           ;                case 0: 
 058E           ;                   Set_White_off(2,1,3);
 058E 83E0              ldi R24,3
 0590 8883              std y+0,R24
 0592 21E0              ldi R18,1
 0594 02E0              ldi R16,2
 0596 0E940000          xcall _Set_White_off
 059A                   .dbline 241
 059A           ;                   break;
 059A BCC0              xjmp L4
 059C           L92:
 059C                   .dbline 243
 059C           ;                case 1:
 059C           ;                  Set_White_off(7,1,8);
 059C 88E0              ldi R24,8
 059E 8883              std y+0,R24
 05A0 21E0              ldi R18,1
 05A2 07E0              ldi R16,7
 05A4 0E940000          xcall _Set_White_off
 05A8                   .dbline 244
 05A8           ;                  break;
 05A8 B5C0              xjmp L4
 05AA           L93:
 05AA                   .dbline 246
 05AA           ;                case 2:
 05AA           ;                 Set_White_off(2,2,3);
 05AA 83E0              ldi R24,3
 05AC 8883              std y+0,R24
 05AE 22E0              ldi R18,2
 05B0 02E0              ldi R16,2
 05B2 0E940000          xcall _Set_White_off
 05B6                   .dbline 247
 05B6           ;                 break;
 05B6 AEC0              xjmp L4
 05B8           L94:
 05B8                   .dbline 249
 05B8           ;                case 3:
 05B8           ;                  Set_White_off(7,2,8);
 05B8 88E0              ldi R24,8
 05BA 8883              std y+0,R24
 05BC 22E0              ldi R18,2
 05BE 07E0              ldi R16,7
 05C0 0E940000          xcall _Set_White_off
 05C4                   .dbline 250
 05C4           ;                   break;
 05C4 A7C0              xjmp L4
 05C6           L95:
 05C6                   .dbline 252
 05C6           ;               case 5:
 05C6           ;                   Set_White_off(6,3,7);
 05C6 87E0              ldi R24,7
 05C8 8883              std y+0,R24
 05CA 23E0              ldi R18,3
 05CC 06E0              ldi R16,6
 05CE 0E940000          xcall _Set_White_off
 05D2                   .dbline 253
 05D2           ;                   break;
 05D2 A0C0              xjmp L4
 05D4           L96:
 05D4                   .dbline 255
 05D4           ;                case 6:
 05D4           ;                  Set_White_off(10,3,11);
 05D4 8BE0              ldi R24,11
 05D6 8883              std y+0,R24
 05D8 23E0              ldi R18,3
 05DA 0AE0              ldi R16,10
 05DC 0E940000          xcall _Set_White_off
 05E0                   .dbline 256
 05E0           ;                   break;
 05E0                   .dbline 258
 05E0           ;                 default:
 05E0           ;                  break;
 05E0                   .dbline 260
 05E0           ;                }
 05E0           ;          return ;
 05E0 99C0              xjmp L4
 05E2           L87:
 05E2                   .dbline 261
 05E2           ;       }else if(keyV=='t'){
 05E2 8A2D              mov R24,R10
 05E4 8437              cpi R24,116
 05E6 09F0              breq X64
 05E8 94C0              xjmp L97
 05EA           X64:
 05EA           X47:
 05EA                   .dbline 261
 05EA                   .dbline 262
 05EA           ;          switch(cur){
 05EA 4030              cpi R20,0
 05EC 4507              cpc R20,R21
 05EE F1F0              breq L101
 05F0           X48:
 05F0 4130              cpi R20,1
 05F2 E0E0              ldi R30,0
 05F4 5E07              cpc R21,R30
 05F6 91F1              breq L102
 05F8           X49:
 05F8 4230              cpi R20,2
 05FA E0E0              ldi R30,0
 05FC 5E07              cpc R21,R30
 05FE 09F4              brne X65
 0600 43C0              xjmp L103
 0602           X65:
 0602           X50:
 0602 4330              cpi R20,3
 0604 E0E0              ldi R30,0
 0606 5E07              cpc R21,R30
 0608 09F4              brne X66
 060A 55C0              xjmp L104
 060C           X66:
 060C           X51:
 060C 4430              cpi R20,4
 060E E0E0              ldi R30,0
 0610 5E07              cpc R21,R30
 0612 09F4              brne X67
 0614 7EC0              xjmp L100
 0616           X67:
 0616           X52:
 0616 4530              cpi R20,5
 0618 E0E0              ldi R30,0
 061A 5E07              cpc R21,R30
 061C 09F4              brne X68
 061E 79C0              xjmp L100
 0620           X68:
 0620           X53:
 0620 4630              cpi R20,6
 0622 E0E0              ldi R30,0
 0624 5E07              cpc R21,R30
 0626 09F4              brne X69
 0628 5CC0              xjmp L107
 062A           X69:
 062A           X54:
 062A 73C0              xjmp L100
 062C           L101:
 062C                   .dbline 264
 062C           ;                case 0: 
 062C           ;                   Set_White_off(2,1,3);
 062C 83E0              ldi R24,3
 062E 8883              std y+0,R24
 0630 21E0              ldi R18,1
 0632 02E0              ldi R16,2
 0634 0E940000          xcall _Set_White_off
 0638                   .dbline 265
 0638           ;                   prePageNum=1;
 0638 81E0              ldi R24,1
 063A 90E0              ldi R25,0
 063C 90930100          sts _prePageNum+1,R25
 0640 80930000          sts _prePageNum,R24
 0644                   .dbline 266
 0644           ;                   pageParam[0]=0;//传递使用第一个，对应不同的温度
 0644 2224              clr R2
 0646 3324              clr R3
 0648 30920100          sts _pageParam+1,R3
 064C 20920000          sts _pageParam,R2
 0650                   .dbline 267
 0650           ;                   pageNum=3;
 0650 83E0              ldi R24,3
 0652 90930100          sts _pageNum+1,R25
 0656 80930000          sts _pageNum,R24
 065A                   .dbline 268
 065A           ;                   return;
 065A 5CC0              xjmp L4
 065C           L102:
 065C                   .dbline 270
 065C           ;                case 1:
 065C           ;                  Set_White_off(7,1,8);
 065C 88E0              ldi R24,8
 065E 8883              std y+0,R24
 0660 21E0              ldi R18,1
 0662 07E0              ldi R16,7
 0664 0E940000          xcall _Set_White_off
 0668                   .dbline 271
 0668           ;                   prePageNum=1;
 0668 81E0              ldi R24,1
 066A 90E0              ldi R25,0
 066C 90930100          sts _prePageNum+1,R25
 0670 80930000          sts _prePageNum,R24
 0674                   .dbline 272
 0674           ;                  pageParam[0]=1;//传递使用第一个，对应不同的温度
 0674 90930100          sts _pageParam+1,R25
 0678 80930000          sts _pageParam,R24
 067C                   .dbline 273
 067C           ;                   pageNum=3;
 067C 83E0              ldi R24,3
 067E 90930100          sts _pageNum+1,R25
 0682 80930000          sts _pageNum,R24
 0686                   .dbline 274
 0686           ;                   return;
 0686 46C0              xjmp L4
 0688           L103:
 0688                   .dbline 276
 0688           ;                case 2:
 0688           ;                 Set_White_off(2,2,3);
 0688 83E0              ldi R24,3
 068A 8883              std y+0,R24
 068C 22E0              ldi R18,2
 068E 02E0              ldi R16,2
 0690 0E940000          xcall _Set_White_off
 0694                   .dbline 277
 0694           ;                   prePageNum=1;
 0694 81E0              ldi R24,1
 0696 90E0              ldi R25,0
 0698 90930100          sts _prePageNum+1,R25
 069C 80930000          sts _prePageNum,R24
 06A0                   .dbline 278
 06A0           ;                   pageParam[0]=2;//传递使用第一个，对应不同的温度
 06A0 82E0              ldi R24,2
 06A2 90930100          sts _pageParam+1,R25
 06A6 80930000          sts _pageParam,R24
 06AA                   .dbline 279
 06AA           ;                  pageNum=3;
 06AA 83E0              ldi R24,3
 06AC 90930100          sts _pageNum+1,R25
 06B0 80930000          sts _pageNum,R24
 06B4                   .dbline 280
 06B4           ;                  return;
 06B4 2FC0              xjmp L4
 06B6           L104:
 06B6                   .dbline 282
 06B6           ;                case 3:
 06B6           ;                  Set_White_off(7,2,8);
 06B6 88E0              ldi R24,8
 06B8 8883              std y+0,R24
 06BA 22E0              ldi R18,2
 06BC 07E0              ldi R16,7
 06BE 0E940000          xcall _Set_White_off
 06C2                   .dbline 283
 06C2           ;                    prePageNum=1;
 06C2 81E0              ldi R24,1
 06C4 90E0              ldi R25,0
 06C6 90930100          sts _prePageNum+1,R25
 06CA 80930000          sts _prePageNum,R24
 06CE                   .dbline 284
 06CE           ;                   pageParam[0]=3;//传递使用第一个，对应不同的温度
 06CE 83E0              ldi R24,3
 06D0 90930100          sts _pageParam+1,R25
 06D4 80930000          sts _pageParam,R24
 06D8                   .dbline 285
 06D8           ;                   pageNum=3;
 06D8 90930100          sts _pageNum+1,R25
 06DC 80930000          sts _pageNum,R24
 06E0                   .dbline 286
 06E0           ;                   return;
 06E0 19C0              xjmp L4
 06E2           L107:
 06E2                   .dbline 294
 06E2           ;                case 4:
 06E2           ;                   //调用函数全部开始，参数正确的
 06E2           ;                  break;
 06E2           ;                case 5:
 06E2           ;                   //全部停止
 06E2           ;                  break;
 06E2           ;                case 6://重置
 06E2           ;                  Set_White_off(10,3,11);
 06E2 8BE0              ldi R24,11
 06E4 8883              std y+0,R24
 06E6 23E0              ldi R18,3
 06E8 0AE0              ldi R16,10
 06EA 0E940000          xcall _Set_White_off
 06EE                   .dbline 295
 06EE           ;                  pageParam[2]=0;//表示是系统重置
 06EE 2224              clr R2
 06F0 3324              clr R3
 06F2 30920500          sts _pageParam+4+1,R3
 06F6 20920400          sts _pageParam+4,R2
 06FA                   .dbline 296
 06FA           ;                  prePageNum=1;
 06FA 81E0              ldi R24,1
 06FC 90E0              ldi R25,0
 06FE 90930100          sts _prePageNum+1,R25
 0702 80930000          sts _prePageNum,R24
 0706                   .dbline 297
 0706           ;                  pageNum=5;
 0706 85E0              ldi R24,5
 0708 90930100          sts _pageNum+1,R25
 070C 80930000          sts _pageNum,R24
 0710                   .dbline 298
 0710           ;                   return;
 0710 01C0              xjmp L4
 0712           L100:
 0712                   .dbline 303
 0712           ;                 default:
 0712           ;                  break;
 0712           ;                }
 0712           ;       
 0712           ;       }
 0712           L97:
 0712           L80:
 0712           L72:
 0712           L63:
 0712           L55:
 0712                   .dbline 304
 0712           ;   }
 0712           L13:
 0712                   .dbline 63
 0712 EACC              xjmp L12
 0714           X55:
 0714                   .dbline -2
 0714           L4:
 0714                   .dbline 0 ; func end
 0714 2296              adiw R28,2
 0716 0C940000          xjmp pop_xgsetF03C
 071A                   .dbsym r cur 20 i
 071A                   .dbsym r keyV 10 c
 071A                   .dbsym r y 22 i
 071A                   .dbsym r i 10 i
 071A                   .dbend
 071A                   .dbfunc e page2 _page2 fV
 071A           ;            cur -> R20,R21
 071A           ;           keyV -> R10
                        .even
 071A           _page2::
 071A 0E940000          xcall push_xgsetF00C
 071E 2297              sbiw R28,2
 0720                   .dbline -1
 0720                   .dbline 307
 0720           ;    return;
 0720           ; }
 0720           ;  void page2(void){
 0720                   .dbline 308
 0720           ;    uint cur=0;
 0720 4427              clr R20
 0722 5527              clr R21
 0724                   .dbline 311
 0724           ;    uchar keyV;
 0724           ;    //初始画面，会有读取EEPROM的判断默认操作，本次只是画界面
 0724           ;    lcd_write_str(2,0,"是否恢复上次工作");
 0724 80E0              ldi R24,<L110
 0726 90E0              ldi R25,>L110
 0728 9983              std y+1,R25
 072A 8883              std y+0,R24
 072C 2227              clr R18
 072E 02E0              ldi R16,2
 0730 0E940000          xcall _lcd_write_str
 0734                   .dbline 312
 0734           ;    lcd_write_str(2,2,"恢复");
 0734 80E0              ldi R24,<L111
 0736 90E0              ldi R25,>L111
 0738 9983              std y+1,R25
 073A 8883              std y+0,R24
 073C 22E0              ldi R18,2
 073E 02E0              ldi R16,2
 0740 0E940000          xcall _lcd_write_str
 0744                   .dbline 313
 0744           ;    lcd_write_str(8,2,"取消");
 0744 80E0              ldi R24,<L112
 0746 90E0              ldi R25,>L112
 0748 9983              std y+1,R25
 074A 8883              std y+0,R24
 074C 22E0              ldi R18,2
 074E 08E0              ldi R16,8
 0750 0E940000          xcall _lcd_write_str
 0754                   .dbline 314
 0754           ;    Set_White(3,2,4);
 0754 84E0              ldi R24,4
 0756 8883              std y+0,R24
 0758 22E0              ldi R18,2
 075A 03E0              ldi R16,3
 075C 0E940000          xcall _Set_White
 0760 4FC0              xjmp L114
 0762           L113:
 0762                   .dbline 315
 0762           ;     while(1){
 0762                   .dbline 316
 0762           ;       keyV=KeyScan_once();
 0762 0E940000          xcall _KeyScan_once
 0766 A02E              mov R10,R16
 0768                   .dbline 317
 0768           ;         switch(keyV){
 0768 6A2D              mov R22,R10
 076A 7727              clr R23
 076C 6C36              cpi R22,108
 076E E0E0              ldi R30,0
 0770 7E07              cpc R23,R30
 0772 71F0              breq L119
 0774           X70:
 0774 6C36              cpi R22,108
 0776 E0E0              ldi R30,0
 0778 7E07              cpc R23,R30
 077A 0CF4              brge X77
 077C 41C0              xjmp L116
 077E           X77:
 077E           X71:
 077E           L126:
 077E 6237              cpi R22,114
 0780 E0E0              ldi R30,0
 0782 7E07              cpc R23,R30
 0784 C1F0              breq L122
 0786           X72:
 0786 6437              cpi R22,116
 0788 E0E0              ldi R30,0
 078A 7E07              cpc R23,R30
 078C 31F1              breq L125
 078E           X73:
 078E 38C0              xjmp L116
 0790           L119:
 0790                   .dbline 319
 0790           ;           case 'l':
 0790           ;                  if(cur==1){
 0790 4130              cpi R20,1
 0792 E0E0              ldi R30,0
 0794 5E07              cpc R21,R30
 0796 A1F5              brne L117
 0798           X74:
 0798                   .dbline 319
 0798                   .dbline 320
 0798           ;                     Set_White_off(9,2,10);
 0798 8AE0              ldi R24,10
 079A 8883              std y+0,R24
 079C 22E0              ldi R18,2
 079E 09E0              ldi R16,9
 07A0 0E940000          xcall _Set_White_off
 07A4                   .dbline 321
 07A4           ;                     Set_White(3,2,4);
 07A4 84E0              ldi R24,4
 07A6 8883              std y+0,R24
 07A8 22E0              ldi R18,2
 07AA 03E0              ldi R16,3
 07AC 0E940000          xcall _Set_White
 07B0                   .dbline 322
 07B0           ;                         cur=0;
 07B0 4427              clr R20
 07B2 5527              clr R21
 07B4                   .dbline 323
 07B4           ;                  }
 07B4                   .dbline 324
 07B4           ;                  break;
 07B4 25C0              xjmp L117
 07B6           L122:
 07B6                   .dbline 326
 07B6           ;               case 'r':
 07B6           ;                  if(cur==0){
 07B6 4030              cpi R20,0
 07B8 4507              cpc R20,R21
 07BA 11F5              brne L117
 07BC           X75:
 07BC                   .dbline 326
 07BC                   .dbline 327
 07BC           ;                     Set_White_off(3,2,4);
 07BC 84E0              ldi R24,4
 07BE 8883              std y+0,R24
 07C0 22E0              ldi R18,2
 07C2 03E0              ldi R16,3
 07C4 0E940000          xcall _Set_White_off
 07C8                   .dbline 328
 07C8           ;                     Set_White(9,2,10);
 07C8 8AE0              ldi R24,10
 07CA 8883              std y+0,R24
 07CC 22E0              ldi R18,2
 07CE 09E0              ldi R16,9
 07D0 0E940000          xcall _Set_White
 07D4                   .dbline 329
 07D4           ;                         cur=1;
 07D4 41E0              ldi R20,1
 07D6 50E0              ldi R21,0
 07D8                   .dbline 330
 07D8           ;                  }
 07D8                   .dbline 331
 07D8           ;                 break;
 07D8 13C0              xjmp L117
 07DA           L125:
 07DA                   .dbline 334
 07DA           ;               case 't':
 07DA           ;                 //执行相关操作
 07DA           ;                  Set_White_off(9,2,10);
 07DA 8AE0              ldi R24,10
 07DC 8883              std y+0,R24
 07DE 22E0              ldi R18,2
 07E0 09E0              ldi R16,9
 07E2 0E940000          xcall _Set_White_off
 07E6                   .dbline 335
 07E6           ;                   Set_White_off(3,2,4);
 07E6 84E0              ldi R24,4
 07E8 8883              std y+0,R24
 07EA 22E0              ldi R18,2
 07EC 03E0              ldi R16,3
 07EE 0E940000          xcall _Set_White_off
 07F2                   .dbline 336
 07F2           ;                 pageNum=1;
 07F2 81E0              ldi R24,1
 07F4 90E0              ldi R25,0
 07F6 90930100          sts _pageNum+1,R25
 07FA 80930000          sts _pageNum,R24
 07FE                   .dbline 337
 07FE           ;                 return;
 07FE 01C0              xjmp L109
 0800           L116:
 0800           L117:
 0800                   .dbline 339
 0800           ;         }
 0800           ;       }
 0800           L114:
 0800                   .dbline 315
 0800 B0CF              xjmp L113
 0802           X76:
 0802                   .dbline -2
 0802           L109:
 0802                   .dbline 0 ; func end
 0802 2296              adiw R28,2
 0804 0C940000          xjmp pop_xgsetF00C
 0808                   .dbsym r cur 20 i
 0808                   .dbsym r keyV 10 c
 0808                   .dbend
 0808                   .dbfunc e page3 _page3 fV
 0808           ;            cur -> R20,R21
 0808           ;           keyV -> R22
                        .even
 0808           _page3::
 0808 0E940000          xcall push_xgsetF000
 080C 2297              sbiw R28,2
 080E                   .dbline -1
 080E                   .dbline 341
 080E           ;  }
 080E           ;  void page3(void){
 080E                   .dbline 342
 080E           ;   uint cur=0;
 080E 4427              clr R20
 0810 5527              clr R21
 0812                   .dbline 344
 0812           ;    uchar keyV;
 0812           ;    lcd_write_str(0,0,"T");
 0812 80E0              ldi R24,<L128
 0814 90E0              ldi R25,>L128
 0816 9983              std y+1,R25
 0818 8883              std y+0,R24
 081A 2227              clr R18
 081C 0027              clr R16
 081E 0E940000          xcall _lcd_write_str
 0822                   .dbline 345
 0822           ;     lcd_write_char_con(0,0x30 | (pageParam[0]+1));
 0822 20910000          lds R18,_pageParam
 0826 30910100          lds R19,_pageParam+1
 082A 2F5F              subi R18,255  ; offset = 1
 082C 3F4F              sbci R19,255
 082E 2063              ori R18,48
 0830 0027              clr R16
 0832 0E940000          xcall _lcd_write_char_con
 0836                   .dbline 346
 0836           ;       lcd_write_char_con(0,':');
 0836 2AE3              ldi R18,58
 0838 0027              clr R16
 083A 0E940000          xcall _lcd_write_char_con
 083E                   .dbline 347
 083E           ;    lcd_write_str(1,1,"温度:");
 083E 80E0              ldi R24,<L129
 0840 90E0              ldi R25,>L129
 0842 9983              std y+1,R25
 0844 8883              std y+0,R24
 0846 21E0              ldi R18,1
 0848 01E0              ldi R16,1
 084A 0E940000          xcall _lcd_write_str
 084E                   .dbline 348
 084E           ;    lcd_write_str(1,2,"状态:");
 084E 80E0              ldi R24,<L130
 0850 90E0              ldi R25,>L130
 0852 9983              std y+1,R25
 0854 8883              std y+0,R24
 0856 22E0              ldi R18,2
 0858 01E0              ldi R16,1
 085A 0E940000          xcall _lcd_write_str
 085E                   .dbline 349
 085E           ;    lcd_write_str(0,3,"编辑");
 085E 80E0              ldi R24,<L131
 0860 90E0              ldi R25,>L131
 0862 9983              std y+1,R25
 0864 8883              std y+0,R24
 0866 23E0              ldi R18,3
 0868 0027              clr R16
 086A 0E940000          xcall _lcd_write_str
 086E                   .dbline 350
 086E           ;    lcd_write_str(3,3,"运行");
 086E 80E0              ldi R24,<L132
 0870 90E0              ldi R25,>L132
 0872 9983              std y+1,R25
 0874 8883              std y+0,R24
 0876 23E0              ldi R18,3
 0878 03E0              ldi R16,3
 087A 0E940000          xcall _lcd_write_str
 087E                   .dbline 351
 087E           ;    lcd_write_str(7,3,"暂停");
 087E 80E0              ldi R24,<L37
 0880 90E0              ldi R25,>L37
 0882 9983              std y+1,R25
 0884 8883              std y+0,R24
 0886 23E0              ldi R18,3
 0888 07E0              ldi R16,7
 088A 0E940000          xcall _lcd_write_str
 088E                   .dbline 352
 088E           ;    lcd_write_str(10,3,"重置");
 088E 80E0              ldi R24,<L133
 0890 90E0              ldi R25,>L133
 0892 9983              std y+1,R25
 0894 8883              std y+0,R24
 0896 23E0              ldi R18,3
 0898 0AE0              ldi R16,10
 089A 0E940000          xcall _lcd_write_str
 089E                   .dbline 353
 089E           ;    Set_White(1,3,2);
 089E 82E0              ldi R24,2
 08A0 8883              std y+0,R24
 08A2 23E0              ldi R18,3
 08A4 01E0              ldi R16,1
 08A6 0E940000          xcall _Set_White
 08AA 04C1              xjmp L135
 08AC           L134:
 08AC                   .dbline 355
 08AC           ;    //Set_White(9,2,10);
 08AC           ;     while(1){
 08AC                   .dbline 356
 08AC           ;       lcd_write_pos(2,0);
 08AC 2227              clr R18
 08AE 02E0              ldi R16,2
 08B0 0E940000          xcall _lcd_write_pos
 08B4                   .dbline 357
 08B4           ;       pageTime2(0);
 08B4 0027              clr R16
 08B6 1127              clr R17
 08B8 B6DB              xcall _pageTime2
 08BA                   .dbline 358
 08BA           ;        lcd_write_str(4,1,"100");
 08BA 80E0              ldi R24,<L137
 08BC 90E0              ldi R25,>L137
 08BE 9983              std y+1,R25
 08C0 8883              std y+0,R24
 08C2 21E0              ldi R18,1
 08C4 04E0              ldi R16,4
 08C6 0E940000          xcall _lcd_write_str
 08CA                   .dbline 359
 08CA           ;        lcd_write_char(6,1,0xA1);
 08CA 81EA              ldi R24,161
 08CC 8883              std y+0,R24
 08CE 21E0              ldi R18,1
 08D0 06E0              ldi R16,6
 08D2 0E940000          xcall _lcd_write_char
 08D6                   .dbline 360
 08D6           ;      lcd_write_char_con(1,0xE6);
 08D6 26EE              ldi R18,230
 08D8 01E0              ldi R16,1
 08DA 0E940000          xcall _lcd_write_char_con
 08DE                   .dbline 361
 08DE           ;        lcd_write_str(4,2,"阶段1");
 08DE 80E0              ldi R24,<L138
 08E0 90E0              ldi R25,>L138
 08E2 9983              std y+1,R25
 08E4 8883              std y+0,R24
 08E6 22E0              ldi R18,2
 08E8 04E0              ldi R16,4
 08EA 0E940000          xcall _lcd_write_str
 08EE                   .dbline 362
 08EE           ;        lcd_write_str(8,2," 1:10");
 08EE 80E0              ldi R24,<L139
 08F0 90E0              ldi R25,>L139
 08F2 9983              std y+1,R25
 08F4 8883              std y+0,R24
 08F6 22E0              ldi R18,2
 08F8 08E0              ldi R16,8
 08FA 0E940000          xcall _lcd_write_str
 08FE                   .dbline 364
 08FE           ;       
 08FE           ;       keyV=KeyScan_once();  
 08FE 0E940000          xcall _KeyScan_once
 0902 602F              mov R22,R16
 0904                   .dbline 365
 0904           ;         if(keyV=='e'){
 0904 0536              cpi R16,101
 0906 F9F4              brne L140
 0908           X78:
 0908                   .dbline 365
 0908                   .dbline 366
 0908           ;             Set_White_off(1,3,2);
 0908 82E0              ldi R24,2
 090A 8883              std y+0,R24
 090C 23E0              ldi R18,3
 090E 01E0              ldi R16,1
 0910 0E940000          xcall _Set_White_off
 0914                   .dbline 367
 0914           ;                 Set_White_off(4,3,5);
 0914 85E0              ldi R24,5
 0916 8883              std y+0,R24
 0918 23E0              ldi R18,3
 091A 04E0              ldi R16,4
 091C 0E940000          xcall _Set_White_off
 0920                   .dbline 368
 0920           ;                 Set_White_off(8,3,9);
 0920 89E0              ldi R24,9
 0922 8883              std y+0,R24
 0924 23E0              ldi R18,3
 0926 08E0              ldi R16,8
 0928 0E940000          xcall _Set_White_off
 092C                   .dbline 369
 092C           ;                 Set_White_off(11,3,12);
 092C 8CE0              ldi R24,12
 092E 8883              std y+0,R24
 0930 23E0              ldi R18,3
 0932 0BE0              ldi R16,11
 0934 0E940000          xcall _Set_White_off
 0938                   .dbline 370
 0938           ;                 pageNum=1;
 0938 81E0              ldi R24,1
 093A 90E0              ldi R25,0
 093C 90930100          sts _pageNum+1,R25
 0940 80930000          sts _pageNum,R24
 0944                   .dbline 371
 0944           ;                 return;
 0944 B8C0              xjmp L127
 0946           L140:
 0946                   .dbline 372
 0946           ;         }else if(keyV=='l'){
 0946 6C36              cpi R22,108
 0948 D1F5              brne L142
 094A           X79:
 094A                   .dbline 372
 094A                   .dbline 373
 094A           ;            switch(cur){
 094A 4130              cpi R20,1
 094C E0E0              ldi R30,0
 094E 5E07              cpc R21,R30
 0950 49F0              breq L146
 0952           X80:
 0952 4230              cpi R20,2
 0954 E0E0              ldi R30,0
 0956 5E07              cpc R21,R30
 0958 A1F0              breq L147
 095A           X81:
 095A 4330              cpi R20,3
 095C E0E0              ldi R30,0
 095E 5E07              cpc R21,R30
 0960 F9F0              breq L148
 0962           X82:
 0962 A8C0              xjmp L143
 0964           L146:
 0964                   .dbline 375
 0964           ;                  case 1:
 0964           ;                    Set_White_off(4,3,5);
 0964 85E0              ldi R24,5
 0966 8883              std y+0,R24
 0968 23E0              ldi R18,3
 096A 04E0              ldi R16,4
 096C 0E940000          xcall _Set_White_off
 0970                   .dbline 376
 0970           ;                    Set_White(1,3,2);
 0970 82E0              ldi R24,2
 0972 8883              std y+0,R24
 0974 23E0              ldi R18,3
 0976 01E0              ldi R16,1
 0978 0E940000          xcall _Set_White
 097C                   .dbline 377
 097C           ;                        cur=0;
 097C 4427              clr R20
 097E 5527              clr R21
 0980                   .dbline 378
 0980           ;                    break;
 0980 99C0              xjmp L143
 0982           L147:
 0982                   .dbline 380
 0982           ;                  case 2:
 0982           ;                    Set_White_off(8,3,9);
 0982 89E0              ldi R24,9
 0984 8883              std y+0,R24
 0986 23E0              ldi R18,3
 0988 08E0              ldi R16,8
 098A 0E940000          xcall _Set_White_off
 098E                   .dbline 381
 098E           ;                    Set_White(4,3,5);
 098E 85E0              ldi R24,5
 0990 8883              std y+0,R24
 0992 23E0              ldi R18,3
 0994 04E0              ldi R16,4
 0996 0E940000          xcall _Set_White
 099A                   .dbline 382
 099A           ;                    cur=1;
 099A 41E0              ldi R20,1
 099C 50E0              ldi R21,0
 099E                   .dbline 383
 099E           ;                    break;
 099E 8AC0              xjmp L143
 09A0           L148:
 09A0                   .dbline 385
 09A0           ;                  case 3:
 09A0           ;                    Set_White_off(11,3,12);
 09A0 8CE0              ldi R24,12
 09A2 8883              std y+0,R24
 09A4 23E0              ldi R18,3
 09A6 0BE0              ldi R16,11
 09A8 0E940000          xcall _Set_White_off
 09AC                   .dbline 386
 09AC           ;                    Set_White(8,3,9);
 09AC 89E0              ldi R24,9
 09AE 8883              std y+0,R24
 09B0 23E0              ldi R18,3
 09B2 08E0              ldi R16,8
 09B4 0E940000          xcall _Set_White
 09B8                   .dbline 387
 09B8           ;                    cur=2;
 09B8 42E0              ldi R20,2
 09BA 50E0              ldi R21,0
 09BC                   .dbline 388
 09BC           ;                    break;
 09BC                   .dbline 390
 09BC           ;                }
 09BC           ;         }else if(keyV=='r'){
 09BC 7BC0              xjmp L143
 09BE           L142:
 09BE                   .dbline 390
 09BE 6237              cpi R22,114
 09C0 C9F5              brne L149
 09C2           X83:
 09C2                   .dbline 390
 09C2                   .dbline 391
 09C2           ;              switch(cur){
 09C2 4030              cpi R20,0
 09C4 4507              cpc R20,R21
 09C6 49F0              breq L153
 09C8           X84:
 09C8 4130              cpi R20,1
 09CA E0E0              ldi R30,0
 09CC 5E07              cpc R21,R30
 09CE A1F0              breq L154
 09D0           X85:
 09D0 4230              cpi R20,2
 09D2 E0E0              ldi R30,0
 09D4 5E07              cpc R21,R30
 09D6 F9F0              breq L155
 09D8           X86:
 09D8 6DC0              xjmp L150
 09DA           L153:
 09DA                   .dbline 393
 09DA           ;                  case 0:
 09DA           ;                    Set_White(4,3,5);
 09DA 85E0              ldi R24,5
 09DC 8883              std y+0,R24
 09DE 23E0              ldi R18,3
 09E0 04E0              ldi R16,4
 09E2 0E940000          xcall _Set_White
 09E6                   .dbline 394
 09E6           ;                    Set_White_off(1,3,2);
 09E6 82E0              ldi R24,2
 09E8 8883              std y+0,R24
 09EA 23E0              ldi R18,3
 09EC 01E0              ldi R16,1
 09EE 0E940000          xcall _Set_White_off
 09F2                   .dbline 395
 09F2           ;                        cur=1;
 09F2 41E0              ldi R20,1
 09F4 50E0              ldi R21,0
 09F6                   .dbline 396
 09F6           ;                    break;
 09F6 5EC0              xjmp L150
 09F8           L154:
 09F8                   .dbline 398
 09F8           ;                  case 1:
 09F8           ;                    Set_White(8,3,9);
 09F8 89E0              ldi R24,9
 09FA 8883              std y+0,R24
 09FC 23E0              ldi R18,3
 09FE 08E0              ldi R16,8
 0A00 0E940000          xcall _Set_White
 0A04                   .dbline 399
 0A04           ;                    Set_White_off(4,3,5);
 0A04 85E0              ldi R24,5
 0A06 8883              std y+0,R24
 0A08 23E0              ldi R18,3
 0A0A 04E0              ldi R16,4
 0A0C 0E940000          xcall _Set_White_off
 0A10                   .dbline 400
 0A10           ;                    cur=2;
 0A10 42E0              ldi R20,2
 0A12 50E0              ldi R21,0
 0A14                   .dbline 401
 0A14           ;                    break;
 0A14 4FC0              xjmp L150
 0A16           L155:
 0A16                   .dbline 403
 0A16           ;                  case 2:
 0A16           ;                    Set_White(11,3,12);
 0A16 8CE0              ldi R24,12
 0A18 8883              std y+0,R24
 0A1A 23E0              ldi R18,3
 0A1C 0BE0              ldi R16,11
 0A1E 0E940000          xcall _Set_White
 0A22                   .dbline 404
 0A22           ;                    Set_White_off(8,3,9);
 0A22 89E0              ldi R24,9
 0A24 8883              std y+0,R24
 0A26 23E0              ldi R18,3
 0A28 08E0              ldi R16,8
 0A2A 0E940000          xcall _Set_White_off
 0A2E                   .dbline 405
 0A2E           ;                    cur=3;
 0A2E 43E0              ldi R20,3
 0A30 50E0              ldi R21,0
 0A32                   .dbline 406
 0A32           ;                    break;
 0A32                   .dbline 408
 0A32           ;                }
 0A32           ;         }else if(keyV=='t'){
 0A32 40C0              xjmp L150
 0A34           L149:
 0A34                   .dbline 408
 0A34 6437              cpi R22,116
 0A36 E9F4              brne L156
 0A38           X87:
 0A38                   .dbline 408
 0A38                   .dbline 409
 0A38           ;              switch(cur){
 0A38 4030              cpi R20,0
 0A3A 4507              cpc R20,R21
 0A3C 69F0              breq L160
 0A3E           X88:
 0A3E 4130              cpi R20,1
 0A40 E0E0              ldi R30,0
 0A42 5E07              cpc R21,R30
 0A44 B9F1              breq L157
 0A46           X89:
 0A46 4230              cpi R20,2
 0A48 E0E0              ldi R30,0
 0A4A 5E07              cpc R21,R30
 0A4C 99F1              breq L157
 0A4E           X90:
 0A4E 4330              cpi R20,3
 0A50 E0E0              ldi R30,0
 0A52 5E07              cpc R21,R30
 0A54 79F1              breq L157
 0A56           X91:
 0A56 2EC0              xjmp L157
 0A58           L160:
 0A58                   .dbline 411
 0A58           ;                  case 0:
 0A58           ;                    Set_White_off(1,3,2);
 0A58 82E0              ldi R24,2
 0A5A 8883              std y+0,R24
 0A5C 23E0              ldi R18,3
 0A5E 01E0              ldi R16,1
 0A60 0E940000          xcall _Set_White_off
 0A64                   .dbline 412
 0A64           ;                        pageNum=4;
 0A64 84E0              ldi R24,4
 0A66 90E0              ldi R25,0
 0A68 90930100          sts _pageNum+1,R25
 0A6C 80930000          sts _pageNum,R24
 0A70                   .dbline 413
 0A70           ;                    return;
 0A70 22C0              xjmp L127
 0A72           L156:
 0A72                   .dbline 424
 0A72           ;                  case 1:
 0A72           ;                    //运行操作
 0A72           ;                    break;
 0A72           ;                  case 2:
 0A72           ;                    //暂停操作
 0A72           ;                    break;
 0A72           ;                 case 3:
 0A72           ;                    //重置操作
 0A72           ;                    break;
 0A72           ;                }
 0A72           ;         }else if(keyV=='s'){
 0A72 6337              cpi R22,115
 0A74 F9F4              brne L164
 0A76           X92:
 0A76                   .dbline 424
 0A76                   .dbline 425
 0A76           ;              Set_White_off(1,3,2);
 0A76 82E0              ldi R24,2
 0A78 8883              std y+0,R24
 0A7A 23E0              ldi R18,3
 0A7C 01E0              ldi R16,1
 0A7E 0E940000          xcall _Set_White_off
 0A82                   .dbline 426
 0A82           ;                  Set_White_off(4,3,5);
 0A82 85E0              ldi R24,5
 0A84 8883              std y+0,R24
 0A86 23E0              ldi R18,3
 0A88 04E0              ldi R16,4
 0A8A 0E940000          xcall _Set_White_off
 0A8E                   .dbline 427
 0A8E           ;                  Set_White_off(8,3,9);
 0A8E 89E0              ldi R24,9
 0A90 8883              std y+0,R24
 0A92 23E0              ldi R18,3
 0A94 08E0              ldi R16,8
 0A96 0E940000          xcall _Set_White_off
 0A9A                   .dbline 428
 0A9A           ;                  Set_White_off(11,3,12);
 0A9A 8CE0              ldi R24,12
 0A9C 8883              std y+0,R24
 0A9E 23E0              ldi R18,3
 0AA0 0BE0              ldi R16,11
 0AA2 0E940000          xcall _Set_White_off
 0AA6                   .dbline 429
 0AA6           ;                       pageNum=4;
 0AA6 84E0              ldi R24,4
 0AA8 90E0              ldi R25,0
 0AAA 90930100          sts _pageNum+1,R25
 0AAE 80930000          sts _pageNum,R24
 0AB2                   .dbline 430
 0AB2           ;                    return;
 0AB2 01C0              xjmp L127
 0AB4           L164:
 0AB4           L157:
 0AB4           L150:
 0AB4           L143:
 0AB4                   .dbline 432
 0AB4           ;         }
 0AB4           ;       }
 0AB4           L135:
 0AB4                   .dbline 355
 0AB4 FBCE              xjmp L134
 0AB6           X93:
 0AB6                   .dbline -2
 0AB6           L127:
 0AB6                   .dbline 0 ; func end
 0AB6 2296              adiw R28,2
 0AB8 0C940000          xjmp pop_xgsetF000
 0ABC                   .dbsym r cur 20 i
 0ABC                   .dbsym r keyV 22 c
 0ABC                   .dbend
 0ABC                   .dbfunc e page4_data _page4_data fV
 0ABC           ;           numL -> R20,R21
 0ABC           ;           numH -> R22,R23
 0ABC           ;              y -> R10,R11
 0ABC           ;            cur -> <dead>
                        .even
 0ABC           _page4_data::
 0ABC 0E940000          xcall push_arg4
 0AC0 0E940000          xcall push_xgsetF00C
 0AC4 5901              movw R10,R18
 0AC6 2197              sbiw R28,1
 0AC8                   .dbline -1
 0AC8                   .dbline 435
 0AC8           ;  }
 0AC8           ;  //等下调用page_ac()函数改变ac写数据
 0AC8           ;  void page4_data(uint cur,uint y){
 0AC8                   .dbline 436
 0AC8           ;       uint numH=0xA2;
 0AC8 62EA              ldi R22,162
 0ACA 70E0              ldi R23,0
 0ACC                   .dbline 437
 0ACC           ;       uint numL=0xC4;//带括号的123，低位加1是1、方便操作，需要加上即可
 0ACC 44EC              ldi R20,196
 0ACE 50E0              ldi R21,0
 0AD0                   .dbline 439
 0AD0           ;     //这个判断需要些到读取值函数中去
 0AD0           ;        if(y>0 && y<3){
 0AD0 AA20              tst R10
 0AD2 11F4              brne X94
 0AD4 BB20              tst R11
 0AD6 39F1              breq L167
 0AD8           X94:
 0AD8 C501              movw R24,R10
 0ADA 8330              cpi R24,3
 0ADC E0E0              ldi R30,0
 0ADE 9E07              cpc R25,R30
 0AE0 10F5              brsh L167
 0AE2           X95:
 0AE2                   .dbline 439
 0AE2                   .dbline 440
 0AE2           ;          lcd_write_char(2,1,numH);
 0AE2 6883              std y+0,R22
 0AE4 21E0              ldi R18,1
 0AE6 02E0              ldi R16,2
 0AE8 0E940000          xcall _lcd_write_char
 0AEC                   .dbline 441
 0AEC           ;        lcd_write_char_con(1,numL+1);
 0AEC 9A01              movw R18,R20
 0AEE 2F5F              subi R18,255  ; offset = 1
 0AF0 3F4F              sbci R19,255
 0AF2 01E0              ldi R16,1
 0AF4 0E940000          xcall _lcd_write_char_con
 0AF8                   .dbline 442
 0AF8           ;          lcd_write_char(2,2,numH);
 0AF8 6883              std y+0,R22
 0AFA 22E0              ldi R18,2
 0AFC 02E0              ldi R16,2
 0AFE 0E940000          xcall _lcd_write_char
 0B02                   .dbline 443
 0B02           ;        lcd_write_char_con(2,numL+2);
 0B02 9A01              movw R18,R20
 0B04 2E5F              subi R18,254  ; offset = 2
 0B06 3F4F              sbci R19,255
 0B08 02E0              ldi R16,2
 0B0A 0E940000          xcall _lcd_write_char_con
 0B0E                   .dbline 444
 0B0E           ;        lcd_write_char(2,3,numH);
 0B0E 6883              std y+0,R22
 0B10 23E0              ldi R18,3
 0B12 02E0              ldi R16,2
 0B14 0E940000          xcall _lcd_write_char
 0B18                   .dbline 445
 0B18           ;        lcd_write_char_con(3,numL+3);
 0B18 9A01              movw R18,R20
 0B1A 2D5F              subi R18,253  ; offset = 3
 0B1C 3F4F              sbci R19,255
 0B1E 03E0              ldi R16,3
 0B20 0E940000          xcall _lcd_write_char_con
 0B24                   .dbline 446
 0B24           ;         }else if(y>=3 && y<6){
 0B24 80C0              xjmp L168
 0B26           L167:
 0B26                   .dbline 446
 0B26 C501              movw R24,R10
 0B28 8330              cpi R24,3
 0B2A E0E0              ldi R30,0
 0B2C 9E07              cpc R25,R30
 0B2E 30F1              brlo L169
 0B30           X96:
 0B30 8630              cpi R24,6
 0B32 E0E0              ldi R30,0
 0B34 9E07              cpc R25,R30
 0B36 10F5              brsh L169
 0B38           X97:
 0B38                   .dbline 446
 0B38                   .dbline 447
 0B38           ;          lcd_write_char(2,1,numH);
 0B38 6883              std y+0,R22
 0B3A 21E0              ldi R18,1
 0B3C 02E0              ldi R16,2
 0B3E 0E940000          xcall _lcd_write_char
 0B42                   .dbline 448
 0B42           ;        lcd_write_char_con(1,numL+4);
 0B42 9A01              movw R18,R20
 0B44 2C5F              subi R18,252  ; offset = 4
 0B46 3F4F              sbci R19,255
 0B48 01E0              ldi R16,1
 0B4A 0E940000          xcall _lcd_write_char_con
 0B4E                   .dbline 449
 0B4E           ;          lcd_write_char(2,2,numH);
 0B4E 6883              std y+0,R22
 0B50 22E0              ldi R18,2
 0B52 02E0              ldi R16,2
 0B54 0E940000          xcall _lcd_write_char
 0B58                   .dbline 450
 0B58           ;        lcd_write_char_con(2,numL+5);
 0B58 9A01              movw R18,R20
 0B5A 2B5F              subi R18,251  ; offset = 5
 0B5C 3F4F              sbci R19,255
 0B5E 02E0              ldi R16,2
 0B60 0E940000          xcall _lcd_write_char_con
 0B64                   .dbline 451
 0B64           ;        lcd_write_char(2,3,numH);
 0B64 6883              std y+0,R22
 0B66 23E0              ldi R18,3
 0B68 02E0              ldi R16,2
 0B6A 0E940000          xcall _lcd_write_char
 0B6E                   .dbline 452
 0B6E           ;        lcd_write_char_con(3,numL+6);
 0B6E 9A01              movw R18,R20
 0B70 2A5F              subi R18,250  ; offset = 6
 0B72 3F4F              sbci R19,255
 0B74 03E0              ldi R16,3
 0B76 0E940000          xcall _lcd_write_char_con
 0B7A                   .dbline 453
 0B7A           ;         }else if(y>=6 && y<9){
 0B7A 55C0              xjmp L170
 0B7C           L169:
 0B7C                   .dbline 453
 0B7C C501              movw R24,R10
 0B7E 8630              cpi R24,6
 0B80 E0E0              ldi R30,0
 0B82 9E07              cpc R25,R30
 0B84 30F1              brlo L171
 0B86           X98:
 0B86 8930              cpi R24,9
 0B88 E0E0              ldi R30,0
 0B8A 9E07              cpc R25,R30
 0B8C 10F5              brsh L171
 0B8E           X99:
 0B8E                   .dbline 453
 0B8E                   .dbline 454
 0B8E           ;          lcd_write_char(2,1,numH);
 0B8E 6883              std y+0,R22
 0B90 21E0              ldi R18,1
 0B92 02E0              ldi R16,2
 0B94 0E940000          xcall _lcd_write_char
 0B98                   .dbline 455
 0B98           ;        lcd_write_char_con(1,numL+7);
 0B98 9A01              movw R18,R20
 0B9A 295F              subi R18,249  ; offset = 7
 0B9C 3F4F              sbci R19,255
 0B9E 01E0              ldi R16,1
 0BA0 0E940000          xcall _lcd_write_char_con
 0BA4                   .dbline 456
 0BA4           ;          lcd_write_char(2,2,numH);
 0BA4 6883              std y+0,R22
 0BA6 22E0              ldi R18,2
 0BA8 02E0              ldi R16,2
 0BAA 0E940000          xcall _lcd_write_char
 0BAE                   .dbline 457
 0BAE           ;        lcd_write_char_con(2,numL+8);
 0BAE 9A01              movw R18,R20
 0BB0 285F              subi R18,248  ; offset = 8
 0BB2 3F4F              sbci R19,255
 0BB4 02E0              ldi R16,2
 0BB6 0E940000          xcall _lcd_write_char_con
 0BBA                   .dbline 458
 0BBA           ;        lcd_write_char(2,3,numH);
 0BBA 6883              std y+0,R22
 0BBC 23E0              ldi R18,3
 0BBE 02E0              ldi R16,2
 0BC0 0E940000          xcall _lcd_write_char
 0BC4                   .dbline 459
 0BC4           ;        lcd_write_char_con(3,numL+9);
 0BC4 9A01              movw R18,R20
 0BC6 275F              subi R18,247  ; offset = 9
 0BC8 3F4F              sbci R19,255
 0BCA 03E0              ldi R16,3
 0BCC 0E940000          xcall _lcd_write_char_con
 0BD0                   .dbline 460
 0BD0           ;         }else if(y>=9 && y<12){
 0BD0 2AC0              xjmp L172
 0BD2           L171:
 0BD2                   .dbline 460
 0BD2 C501              movw R24,R10
 0BD4 8930              cpi R24,9
 0BD6 E0E0              ldi R30,0
 0BD8 9E07              cpc R25,R30
 0BDA 28F1              brlo L173
 0BDC           X100:
 0BDC 8C30              cpi R24,12
 0BDE E0E0              ldi R30,0
 0BE0 9E07              cpc R25,R30
 0BE2 08F5              brsh L173
 0BE4           X101:
 0BE4                   .dbline 460
 0BE4                   .dbline 461
 0BE4           ;          lcd_write_char(2,1,numH);
 0BE4 6883              std y+0,R22
 0BE6 21E0              ldi R18,1
 0BE8 02E0              ldi R16,2
 0BEA 0E940000          xcall _lcd_write_char
 0BEE                   .dbline 462
 0BEE           ;        lcd_write_char_con(1,numL+10);
 0BEE 9A01              movw R18,R20
 0BF0 265F              subi R18,246  ; offset = 10
 0BF2 3F4F              sbci R19,255
 0BF4 01E0              ldi R16,1
 0BF6 0E940000          xcall _lcd_write_char_con
 0BFA                   .dbline 463
 0BFA           ;          lcd_write_char(2,2,numH);
 0BFA 6883              std y+0,R22
 0BFC 22E0              ldi R18,2
 0BFE 02E0              ldi R16,2
 0C00 0E940000          xcall _lcd_write_char
 0C04                   .dbline 464
 0C04           ;        lcd_write_char_con(2,numL+11);
 0C04 9A01              movw R18,R20
 0C06 255F              subi R18,245  ; offset = 11
 0C08 3F4F              sbci R19,255
 0C0A 02E0              ldi R16,2
 0C0C 0E940000          xcall _lcd_write_char_con
 0C10                   .dbline 465
 0C10           ;        lcd_write_char(2,3,numH);
 0C10 6883              std y+0,R22
 0C12 23E0              ldi R18,3
 0C14 02E0              ldi R16,2
 0C16 0E940000          xcall _lcd_write_char
 0C1A                   .dbline 466
 0C1A           ;        lcd_write_char_con(3,numL+12);
 0C1A 9A01              movw R18,R20
 0C1C 245F              subi R18,244  ; offset = 12
 0C1E 3F4F              sbci R19,255
 0C20 03E0              ldi R16,3
 0C22 0E940000          xcall _lcd_write_char_con
 0C26                   .dbline 467
 0C26           ;         }
 0C26           L173:
 0C26           L172:
 0C26           L170:
 0C26           L168:
 0C26                   .dbline -2
 0C26           L166:
 0C26                   .dbline 0 ; func end
 0C26 2196              adiw R28,1
 0C28 0E940000          xcall pop_xgsetF00C
 0C2C 2496              adiw R28,4
 0C2E 0895              ret
 0C30                   .dbsym r numL 20 i
 0C30                   .dbsym r numH 22 i
 0C30                   .dbsym r y 10 i
 0C30                   .dbsym l cur 7 i
 0C30                   .dbend
 0C30                   .dbfunc e page4_ac _page4_ac fV
 0C30           ;              y -> R12,R13
 0C30           ;              x -> R22,R23
 0C30           ;          lcd_y -> R20,R21
 0C30           ;         oldcur -> R14,R15
 0C30           ;            cur -> y+10
                        .even
 0C30           _page4_ac::
 0C30 0E940000          xcall push_arg4
 0C34 0E940000          xcall push_xgsetF0FC
 0C38 7901              movw R14,R18
 0C3A                   .dbline -1
 0C3A                   .dbline 471
 0C3A           ;         //还要做数据读取操作
 0C3A           ;  }
 0C3A           ;  //传入cur做ac位置操作,判断是否翻页
 0C3A           ;  void page4_ac(uint cur,uint oldcur){
 0C3A                   .dbline 472
 0C3A           ;       uint y=cur/11;//逻辑y.从0开始
 0C3A 2BE0              ldi R18,11
 0C3C 30E0              ldi R19,0
 0C3E 0A85              ldd R16,y+10
 0C40 1B85              ldd R17,y+11
 0C42 0E940000          xcall div16u
 0C46 6801              movw R12,R16
 0C48                   .dbline 474
 0C48           ;         uint lcd_y;//显示y
 0C48           ;         uint x=cur%11;//x轴
 0C48 2BE0              ldi R18,11
 0C4A 30E0              ldi R19,0
 0C4C 0A85              ldd R16,y+10
 0C4E 1B85              ldd R17,y+11
 0C50 0E940000          xcall mod16u
 0C54 B801              movw R22,R16
 0C56                   .dbline 475
 0C56           ;         switch(y%3){
 0C56 23E0              ldi R18,3
 0C58 30E0              ldi R19,0
 0C5A 8601              movw R16,R12
 0C5C 0E940000          xcall mod16u
 0C60 5801              movw R10,R16
 0C62 0030              cpi R16,0
 0C64 0107              cpc R16,R17
 0C66 51F0              breq L179
 0C68           X102:
 0C68 C501              movw R24,R10
 0C6A 0130              cpi R16,1
 0C6C E0E0              ldi R30,0
 0C6E 1E07              cpc R17,R30
 0C70 41F0              breq L180
 0C72           X103:
 0C72 0230              cpi R16,2
 0C74 E0E0              ldi R30,0
 0C76 1E07              cpc R17,R30
 0C78 39F0              breq L181
 0C7A           X104:
 0C7A 08C0              xjmp L176
 0C7C           L179:
 0C7C                   .dbline 477
 0C7C           ;          case 0://1行
 0C7C           ;            lcd_y=1;
 0C7C 41E0              ldi R20,1
 0C7E 50E0              ldi R21,0
 0C80                   .dbline 478
 0C80           ;            break;
 0C80 05C0              xjmp L177
 0C82           L180:
 0C82                   .dbline 480
 0C82           ;          case 1://2行
 0C82           ;            lcd_y=2;
 0C82 42E0              ldi R20,2
 0C84 50E0              ldi R21,0
 0C86                   .dbline 481
 0C86           ;                break;
 0C86 02C0              xjmp L177
 0C88           L181:
 0C88                   .dbline 483
 0C88           ;          case 2://3行
 0C88           ;            lcd_y=3;
 0C88 43E0              ldi R20,3
 0C8A 50E0              ldi R21,0
 0C8C                   .dbline 484
 0C8C           ;            break;
 0C8C           L176:
 0C8C           L177:
 0C8C                   .dbline 486
 0C8C           ;         }
 0C8C           ;         switch((oldcur/11)/3){
 0C8C 2BE0              ldi R18,11
 0C8E 30E0              ldi R19,0
 0C90 8701              movw R16,R14
 0C92 0E940000          xcall div16u
 0C96 23E0              ldi R18,3
 0C98 30E0              ldi R19,0
 0C9A 0E940000          xcall div16u
 0C9E 7801              movw R14,R16
 0CA0 0030              cpi R16,0
 0CA2 0107              cpc R16,R17
 0CA4 71F0              breq L185
 0CA6           X105:
 0CA6 C701              movw R24,R14
 0CA8 0130              cpi R16,1
 0CAA E0E0              ldi R30,0
 0CAC 1E07              cpc R17,R30
 0CAE A1F0              breq L188
 0CB0           X106:
 0CB0 0230              cpi R16,2
 0CB2 E0E0              ldi R30,0
 0CB4 1E07              cpc R17,R30
 0CB6 09F1              breq L192
 0CB8           X107:
 0CB8 0330              cpi R16,3
 0CBA E0E0              ldi R30,0
 0CBC 1E07              cpc R17,R30
 0CBE 79F1              breq L196
 0CC0           X108:
 0CC0 37C0              xjmp L182
 0CC2           L185:
 0CC2                   .dbline 488
 0CC2           ;           case 0:
 0CC2           ;                if(cur>32){
 0CC2 80E2              ldi R24,32
 0CC4 90E0              ldi R25,0
 0CC6 0A84              ldd R0,y+10
 0CC8 1B84              ldd R1,y+11
 0CCA 8015              cp R24,R0
 0CCC 9105              cpc R25,R1
 0CCE 80F5              brsh L183
 0CD0           X109:
 0CD0                   .dbline 488
 0CD0                   .dbline 489
 0CD0           ;                  page4_data(cur,y);
 0CD0 9601              movw R18,R12
 0CD2 8001              movw R16,R0
 0CD4 F3DE              xcall _page4_data
 0CD6                   .dbline 490
 0CD6           ;                }
 0CD6                   .dbline 491
 0CD6           ;                break;
 0CD6 2CC0              xjmp L183
 0CD8           L188:
 0CD8                   .dbline 493
 0CD8           ;               case 1:
 0CD8           ;                 if(cur>65 || cur<33){
 0CD8 81E4              ldi R24,65
 0CDA 90E0              ldi R25,0
 0CDC 0A84              ldd R0,y+10
 0CDE 1B84              ldd R1,y+11
 0CE0 8015              cp R24,R0
 0CE2 9105              cpc R25,R1
 0CE4 28F0              brlo L191
 0CE6           X110:
 0CE6 C001              movw R24,R0
 0CE8 8132              cpi R24,33
 0CEA E0E0              ldi R30,0
 0CEC 9E07              cpc R25,R30
 0CEE 00F5              brsh L183
 0CF0           X111:
 0CF0           L191:
 0CF0                   .dbline 493
 0CF0                   .dbline 494
 0CF0           ;                  page4_data(cur,y);
 0CF0 9601              movw R18,R12
 0CF2 0A85              ldd R16,y+10
 0CF4 1B85              ldd R17,y+11
 0CF6 E2DE              xcall _page4_data
 0CF8                   .dbline 495
 0CF8           ;                }
 0CF8                   .dbline 496
 0CF8           ;                break;
 0CF8 1BC0              xjmp L183
 0CFA           L192:
 0CFA                   .dbline 498
 0CFA           ;               case 2:
 0CFA           ;               if(cur<66 || cur>98){
 0CFA 8A85              ldd R24,y+10
 0CFC 9B85              ldd R25,y+11
 0CFE 8234              cpi R24,66
 0D00 E0E0              ldi R30,0
 0D02 9E07              cpc R25,R30
 0D04 38F0              brlo L195
 0D06           X112:
 0D06 82E6              ldi R24,98
 0D08 90E0              ldi R25,0
 0D0A 0A84              ldd R0,y+10
 0D0C 1B84              ldd R1,y+11
 0D0E 8015              cp R24,R0
 0D10 9105              cpc R25,R1
 0D12 70F4              brsh L183
 0D14           X113:
 0D14           L195:
 0D14                   .dbline 498
 0D14                   .dbline 499
 0D14           ;                  page4_data(cur,y);
 0D14 9601              movw R18,R12
 0D16 0A85              ldd R16,y+10
 0D18 1B85              ldd R17,y+11
 0D1A D0DE              xcall _page4_data
 0D1C                   .dbline 500
 0D1C           ;                }
 0D1C                   .dbline 501
 0D1C           ;                break;
 0D1C 09C0              xjmp L183
 0D1E           L196:
 0D1E                   .dbline 503
 0D1E           ;               case 3:
 0D1E           ;               if(cur<99){
 0D1E 8A85              ldd R24,y+10
 0D20 9B85              ldd R25,y+11
 0D22 8336              cpi R24,99
 0D24 E0E0              ldi R30,0
 0D26 9E07              cpc R25,R30
 0D28 18F4              brsh L183
 0D2A           X114:
 0D2A                   .dbline 503
 0D2A                   .dbline 504
 0D2A           ;                  page4_data(cur,y);
 0D2A 9601              movw R18,R12
 0D2C 8C01              movw R16,R24
 0D2E C6DE              xcall _page4_data
 0D30                   .dbline 505
 0D30           ;                }
 0D30                   .dbline 506
 0D30           ;                break;
 0D30           L182:
 0D30           L183:
 0D30                   .dbline 508
 0D30           ;         }
 0D30           ;         if(lcd_y==1){
 0D30 4130              cpi R20,1
 0D32 E0E0              ldi R30,0
 0D34 5E07              cpc R21,R30
 0D36 49F4              brne L199
 0D38           X115:
 0D38                   .dbline 508
 0D38                   .dbline 509
 0D38           ;            cur_set(3);
 0D38 03E0              ldi R16,3
 0D3A 10E0              ldi R17,0
 0D3C 0E940000          xcall _cur_set
 0D40                   .dbline 510
 0D40           ;                cur_set(4);
 0D40 04E0              ldi R16,4
 0D42 10E0              ldi R17,0
 0D44 0E940000          xcall _cur_set
 0D48                   .dbline 511
 0D48           ;         }else if(lcd_y==2 || lcd_y==3){
 0D48 10C0              xjmp L200
 0D4A           L199:
 0D4A                   .dbline 511
 0D4A 4230              cpi R20,2
 0D4C E0E0              ldi R30,0
 0D4E 5E07              cpc R21,R30
 0D50 21F0              breq L203
 0D52           X116:
 0D52 4330              cpi R20,3
 0D54 E0E0              ldi R30,0
 0D56 5E07              cpc R21,R30
 0D58 41F4              brne L201
 0D5A           X117:
 0D5A           L203:
 0D5A                   .dbline 511
 0D5A                   .dbline 512
 0D5A           ;            cur_set(0);
 0D5A 0027              clr R16
 0D5C 1127              clr R17
 0D5E 0E940000          xcall _cur_set
 0D62                   .dbline 513
 0D62           ;                cur_set(7);
 0D62 07E0              ldi R16,7
 0D64 10E0              ldi R17,0
 0D66 0E940000          xcall _cur_set
 0D6A                   .dbline 514
 0D6A           ;         }
 0D6A           L201:
 0D6A           L200:
 0D6A                   .dbline 515
 0D6A           ;         if(x==0){
 0D6A 6030              cpi R22,0
 0D6C 6707              cpc R22,R23
 0D6E 29F4              brne L204
 0D70           X118:
 0D70                   .dbline 515
 0D70                   .dbline 516
 0D70           ;             lcd_write_pos(3,lcd_y);
 0D70 242F              mov R18,R20
 0D72 03E0              ldi R16,3
 0D74 0E940000          xcall _lcd_write_pos
 0D78                   .dbline 517
 0D78           ;         }else if(x==2){
 0D78 31C0              xjmp L175
 0D7A           L204:
 0D7A                   .dbline 517
 0D7A 6230              cpi R22,2
 0D7C E0E0              ldi R30,0
 0D7E 7E07              cpc R23,R30
 0D80 29F4              brne L206
 0D82           X119:
 0D82                   .dbline 517
 0D82                   .dbline 518
 0D82           ;              lcd_write_pos(5,lcd_y);
 0D82 242F              mov R18,R20
 0D84 05E0              ldi R16,5
 0D86 0E940000          xcall _lcd_write_pos
 0D8A                   .dbline 519
 0D8A           ;         }else if(x==4){
 0D8A 28C0              xjmp L175
 0D8C           L206:
 0D8C                   .dbline 519
 0D8C 6430              cpi R22,4
 0D8E E0E0              ldi R30,0
 0D90 7E07              cpc R23,R30
 0D92 29F4              brne L208
 0D94           X120:
 0D94                   .dbline 519
 0D94                   .dbline 520
 0D94           ;               lcd_write_pos(7,lcd_y);
 0D94 242F              mov R18,R20
 0D96 07E0              ldi R16,7
 0D98 0E940000          xcall _lcd_write_pos
 0D9C                   .dbline 521
 0D9C           ;         }else if(x==6){
 0D9C 1FC0              xjmp L175
 0D9E           L208:
 0D9E                   .dbline 521
 0D9E 6630              cpi R22,6
 0DA0 E0E0              ldi R30,0
 0DA2 7E07              cpc R23,R30
 0DA4 29F4              brne L210
 0DA6           X121:
 0DA6                   .dbline 521
 0DA6                   .dbline 522
 0DA6           ;               lcd_write_pos(9,lcd_y);
 0DA6 242F              mov R18,R20
 0DA8 09E0              ldi R16,9
 0DAA 0E940000          xcall _lcd_write_pos
 0DAE                   .dbline 523
 0DAE           ;         }else if(x==8){
 0DAE 16C0              xjmp L175
 0DB0           L210:
 0DB0                   .dbline 523
 0DB0 6830              cpi R22,8
 0DB2 E0E0              ldi R30,0
 0DB4 7E07              cpc R23,R30
 0DB6 51F4              brne L212
 0DB8           X122:
 0DB8                   .dbline 523
 0DB8                   .dbline 524
 0DB8           ;               lcd_write_pos(10,lcd_y);
 0DB8 242F              mov R18,R20
 0DBA 0AE0              ldi R16,10
 0DBC 0E940000          xcall _lcd_write_pos
 0DC0                   .dbline 525
 0DC0           ;                       lcd_write_str_con(lcd_y," ");
 0DC0 20E0              ldi R18,<L214
 0DC2 30E0              ldi R19,>L214
 0DC4 042F              mov R16,R20
 0DC6 0E940000          xcall _lcd_write_str_con
 0DCA                   .dbline 526
 0DCA           ;         }else if(x==9){
 0DCA 08C0              xjmp L175
 0DCC           L212:
 0DCC                   .dbline 526
 0DCC 6930              cpi R22,9
 0DCE E0E0              ldi R30,0
 0DD0 7E07              cpc R23,R30
 0DD2 21F4              brne L175
 0DD4           X123:
 0DD4                   .dbline 526
 0DD4                   .dbline 527
 0DD4           ;               lcd_write_pos(11,lcd_y);
 0DD4 242F              mov R18,R20
 0DD6 0BE0              ldi R16,11
 0DD8 0E940000          xcall _lcd_write_pos
 0DDC                   .dbline 528
 0DDC           ;         }
 0DDC                   .dbline 529
 0DDC           ;         return;
 0DDC                   .dbline -2
 0DDC           L175:
 0DDC                   .dbline 0 ; func end
 0DDC 0E940000          xcall pop_xgsetF0FC
 0DE0 2496              adiw R28,4
 0DE2 0895              ret
 0DE4                   .dbsym r y 12 i
 0DE4                   .dbsym r x 22 i
 0DE4                   .dbsym r lcd_y 20 i
 0DE4                   .dbsym r oldcur 14 i
 0DE4                   .dbsym l cur 10 i
 0DE4                   .dbend
 0DE4                   .dbfunc e page4 _page4 fV
 0DE4           ;         oldcur -> R10,R11
 0DE4           ;           numL -> R22,R23
 0DE4           ;           numH -> R12,R13
 0DE4           ;            cur -> R20,R21
 0DE4           ;           keyV -> R22
                        .even
 0DE4           _page4::
 0DE4 0E940000          xcall push_xgsetF03C
 0DE8 2297              sbiw R28,2
 0DEA                   .dbline -1
 0DEA                   .dbline 531
 0DEA           ;  }
 0DEA           ;   void page4(void){
 0DEA                   .dbline 533
 0DEA           ;     //定义一个局部的结构体，从对呀温度中获得数据。暂时未写
 0DEA           ;   uint numH=0xA2;
 0DEA 82EA              ldi R24,162
 0DEC 90E0              ldi R25,0
 0DEE 6C01              movw R12,R24
 0DF0                   .dbline 534
 0DF0           ;   uint numL=0xC4;//带括号的123，低位加1是1、方便操作，需要加上即可
 0DF0 64EC              ldi R22,196
 0DF2 70E0              ldi R23,0
 0DF4                   .dbline 535
 0DF4           ;     uint cur=0;
 0DF4                   .dbline 536
 0DF4           ;       uint oldcur=0;
 0DF4 AA24              clr R10
 0DF6 BB24              clr R11
 0DF8                   .dbline 538
 0DF8           ;    uchar keyV;
 0DF8           ;    lcd_write_str(0,0,"T");
 0DF8 80E0              ldi R24,<L128
 0DFA 90E0              ldi R25,>L128
 0DFC 9983              std y+1,R25
 0DFE 8883              std y+0,R24
 0E00 2227              clr R18
 0E02 0027              clr R16
 0E04 0E940000          xcall _lcd_write_str
 0E08                   .dbline 539
 0E08           ;    lcd_write_char_con(0,0x30 | (pageParam[0]+1));
 0E08 20910000          lds R18,_pageParam
 0E0C 30910100          lds R19,_pageParam+1
 0E10 2F5F              subi R18,255  ; offset = 1
 0E12 3F4F              sbci R19,255
 0E14 2063              ori R18,48
 0E16 0027              clr R16
 0E18 0E940000          xcall _lcd_write_char_con
 0E1C                   .dbline 540
 0E1C           ;    lcd_write_char_con(0,':');
 0E1C 2AE3              ldi R18,58
 0E1E 0027              clr R16
 0E20 0E940000          xcall _lcd_write_char_con
 0E24                   .dbline 542
 0E24           ;    
 0E24           ;    lcd_write_str(4,0,"升温");
 0E24 80E0              ldi R24,<L218
 0E26 90E0              ldi R25,>L218
 0E28 9983              std y+1,R25
 0E2A 8883              std y+0,R24
 0E2C 2227              clr R18
 0E2E 04E0              ldi R16,4
 0E30 0E940000          xcall _lcd_write_str
 0E34                   .dbline 543
 0E34           ;    lcd_write_str(7,0,"恒温");
 0E34 80E0              ldi R24,<L219
 0E36 90E0              ldi R25,>L219
 0E38 9983              std y+1,R25
 0E3A 8883              std y+0,R24
 0E3C 2227              clr R18
 0E3E 07E0              ldi R16,7
 0E40 0E940000          xcall _lcd_write_str
 0E44                   .dbline 544
 0E44           ;    lcd_write_str(10,0,"温度");
 0E44 80E0              ldi R24,<L220
 0E46 90E0              ldi R25,>L220
 0E48 9983              std y+1,R25
 0E4A 8883              std y+0,R24
 0E4C 2227              clr R18
 0E4E 0AE0              ldi R16,10
 0E50 0E940000          xcall _lcd_write_str
 0E54                   .dbline 545
 0E54           ;    lcd_write_str(0,1,"保存");
 0E54 80E0              ldi R24,<L221
 0E56 90E0              ldi R25,>L221
 0E58 9983              std y+1,R25
 0E5A 8883              std y+0,R24
 0E5C 21E0              ldi R18,1
 0E5E 0027              clr R16
 0E60 0E940000          xcall _lcd_write_str
 0E64                   .dbline 546
 0E64           ;    lcd_write_str(0,2,"取消");
 0E64 80E0              ldi R24,<L112
 0E66 90E0              ldi R25,>L112
 0E68 9983              std y+1,R25
 0E6A 8883              std y+0,R24
 0E6C 22E0              ldi R18,2
 0E6E 0027              clr R16
 0E70 0E940000          xcall _lcd_write_str
 0E74                   .dbline 547
 0E74           ;    lcd_write_str(0,3,"重置");
 0E74 80E0              ldi R24,<L133
 0E76 90E0              ldi R25,>L133
 0E78 9983              std y+1,R25
 0E7A 8883              std y+0,R24
 0E7C 23E0              ldi R18,3
 0E7E 0027              clr R16
 0E80 0E940000          xcall _lcd_write_str
 0E84                   .dbline 549
 0E84           ;    
 0E84           ;    lcd_write_char(2,1,numH);
 0E84 C882              std y+0,R12
 0E86 21E0              ldi R18,1
 0E88 02E0              ldi R16,2
 0E8A 0E940000          xcall _lcd_write_char
 0E8E                   .dbline 550
 0E8E           ;    lcd_write_char_con(1,numL+1);
 0E8E 9B01              movw R18,R22
 0E90 2F5F              subi R18,255  ; offset = 1
 0E92 3F4F              sbci R19,255
 0E94 01E0              ldi R16,1
 0E96 0E940000          xcall _lcd_write_char_con
 0E9A                   .dbline 551
 0E9A           ;    lcd_write_str(3,1,"01: 00  01: 00 100");
 0E9A 80E0              ldi R24,<L222
 0E9C 90E0              ldi R25,>L222
 0E9E 9983              std y+1,R25
 0EA0 8883              std y+0,R24
 0EA2 21E0              ldi R18,1
 0EA4 03E0              ldi R16,3
 0EA6 0E940000          xcall _lcd_write_str
 0EAA                   .dbline 552
 0EAA           ;    lcd_write_char(2,2,numH);
 0EAA C882              std y+0,R12
 0EAC 22E0              ldi R18,2
 0EAE 02E0              ldi R16,2
 0EB0 0E940000          xcall _lcd_write_char
 0EB4                   .dbline 553
 0EB4           ;    lcd_write_char_con(2,numL+2);
 0EB4 9B01              movw R18,R22
 0EB6 2E5F              subi R18,254  ; offset = 2
 0EB8 3F4F              sbci R19,255
 0EBA 02E0              ldi R16,2
 0EBC 0E940000          xcall _lcd_write_char_con
 0EC0                   .dbline 554
 0EC0           ;    lcd_write_str(3,2,"01: 32  01: 00 10");
 0EC0 80E0              ldi R24,<L223
 0EC2 90E0              ldi R25,>L223
 0EC4 9983              std y+1,R25
 0EC6 8883              std y+0,R24
 0EC8 22E0              ldi R18,2
 0ECA 03E0              ldi R16,3
 0ECC 0E940000          xcall _lcd_write_str
 0ED0                   .dbline 555
 0ED0           ;    lcd_write_char(2,3,numH);
 0ED0 C882              std y+0,R12
 0ED2 23E0              ldi R18,3
 0ED4 02E0              ldi R16,2
 0ED6 0E940000          xcall _lcd_write_char
 0EDA                   .dbline 556
 0EDA           ;    lcd_write_char_con(3,numL+3);
 0EDA 9B01              movw R18,R22
 0EDC 2D5F              subi R18,253  ; offset = 3
 0EDE 3F4F              sbci R19,255
 0EE0 03E0              ldi R16,3
 0EE2 0E940000          xcall _lcd_write_char_con
 0EE6                   .dbline 557
 0EE6           ;    lcd_write_str(3,3,"01: 15  01: 12 150");
 0EE6 80E0              ldi R24,<L224
 0EE8 90E0              ldi R25,>L224
 0EEA 9983              std y+1,R25
 0EEC 8883              std y+0,R24
 0EEE 23E0              ldi R18,3
 0EF0 03E0              ldi R16,3
 0EF2 0E940000          xcall _lcd_write_str
 0EF6                   .dbline 559
 0EF6           ;    //初始化操作
 0EF6           ;    cur=0;
 0EF6 4427              clr R20
 0EF8 5527              clr R21
 0EFA                   .dbline 560
 0EFA           ;    lcd_write_pos(3,1);
 0EFA 21E0              ldi R18,1
 0EFC 03E0              ldi R16,3
 0EFE 0E940000          xcall _lcd_write_pos
 0F02                   .dbline 561
 0F02           ;    cur_set(3);
 0F02 03E0              ldi R16,3
 0F04 10E0              ldi R17,0
 0F06 0E940000          xcall _cur_set
 0F0A 6CC1              xjmp L226
 0F0C           L225:
 0F0C                   .dbline 564
 0F0C           ;    
 0F0C           ;    //Set_White(9,2,10);
 0F0C           ;     while(1){
 0F0C                   .dbline 565
 0F0C           ;       keyV=KeyScan_once();
 0F0C 0E940000          xcall _KeyScan_once
 0F10 602F              mov R22,R16
 0F12                   .dbline 566
 0F12           ;         if(keyV=='e'){
 0F12 0536              cpi R16,101
 0F14 09F5              brne L228
 0F16           X124:
 0F16                   .dbline 566
 0F16                   .dbline 567
 0F16           ;               Set_White_off(1,1,2);
 0F16 82E0              ldi R24,2
 0F18 8883              std y+0,R24
 0F1A 21E0              ldi R18,1
 0F1C 01E0              ldi R16,1
 0F1E 0E940000          xcall _Set_White_off
 0F22                   .dbline 568
 0F22           ;                       Set_White_off(1,2,2);
 0F22 82E0              ldi R24,2
 0F24 8883              std y+0,R24
 0F26 22E0              ldi R18,2
 0F28 01E0              ldi R16,1
 0F2A 0E940000          xcall _Set_White_off
 0F2E                   .dbline 569
 0F2E           ;                       Set_White_off(1,3,2);
 0F2E 82E0              ldi R24,2
 0F30 8883              std y+0,R24
 0F32 23E0              ldi R18,3
 0F34 01E0              ldi R16,1
 0F36 0E940000          xcall _Set_White_off
 0F3A                   .dbline 570
 0F3A           ;                       cur_set(0);
 0F3A 0027              clr R16
 0F3C 1127              clr R17
 0F3E 0E940000          xcall _cur_set
 0F42                   .dbline 571
 0F42           ;                       cur_set(4);
 0F42 04E0              ldi R16,4
 0F44 10E0              ldi R17,0
 0F46 0E940000          xcall _cur_set
 0F4A                   .dbline 572
 0F4A           ;                   pageNum=3;
 0F4A 83E0              ldi R24,3
 0F4C 90E0              ldi R25,0
 0F4E 90930100          sts _pageNum+1,R25
 0F52 80930000          sts _pageNum,R24
 0F56                   .dbline 573
 0F56           ;                   return;
 0F56 47C1              xjmp L217
 0F58           L228:
 0F58                   .dbline 574
 0F58           ;         }else if(keyV=='u'){
 0F58 6537              cpi R22,117
 0F5A 09F0              breq X155
 0F5C 42C0              xjmp L230
 0F5E           X155:
 0F5E           X125:
 0F5E                   .dbline 574
 0F5E                   .dbline 575
 0F5E           ;            if(cur==133){
 0F5E 4538              cpi R20,133
 0F60 E0E0              ldi R30,0
 0F62 5E07              cpc R21,R30
 0F64 79F4              brne L232
 0F66           X126:
 0F66                   .dbline 575
 0F66                   .dbline 576
 0F66           ;                   Set_White(1,1,2);
 0F66 82E0              ldi R24,2
 0F68 8883              std y+0,R24
 0F6A 21E0              ldi R18,1
 0F6C 01E0              ldi R16,1
 0F6E 0E940000          xcall _Set_White
 0F72                   .dbline 577
 0F72           ;                       Set_White_off(1,2,2);
 0F72 82E0              ldi R24,2
 0F74 8883              std y+0,R24
 0F76 22E0              ldi R18,2
 0F78 01E0              ldi R16,1
 0F7A 0E940000          xcall _Set_White_off
 0F7E                   .dbline 578
 0F7E           ;                       cur=132;
 0F7E 44E8              ldi R20,132
 0F80 50E0              ldi R21,0
 0F82                   .dbline 579
 0F82           ;                }else if(cur==134){
 0F82 30C1              xjmp L231
 0F84           L232:
 0F84                   .dbline 579
 0F84 4638              cpi R20,134
 0F86 E0E0              ldi R30,0
 0F88 5E07              cpc R21,R30
 0F8A 79F4              brne L234
 0F8C           X127:
 0F8C                   .dbline 579
 0F8C                   .dbline 580
 0F8C           ;                   Set_White(1,2,2);
 0F8C 82E0              ldi R24,2
 0F8E 8883              std y+0,R24
 0F90 22E0              ldi R18,2
 0F92 01E0              ldi R16,1
 0F94 0E940000          xcall _Set_White
 0F98                   .dbline 581
 0F98           ;                       Set_White_off(1,3,2);
 0F98 82E0              ldi R24,2
 0F9A 8883              std y+0,R24
 0F9C 23E0              ldi R18,3
 0F9E 01E0              ldi R16,1
 0FA0 0E940000          xcall _Set_White_off
 0FA4                   .dbline 582
 0FA4           ;                       cur=133;
 0FA4 45E8              ldi R20,133
 0FA6 50E0              ldi R21,0
 0FA8                   .dbline 583
 0FA8           ;                }else if(cur>10 && cur<=131){
 0FA8 1DC1              xjmp L231
 0FAA           L234:
 0FAA                   .dbline 583
 0FAA 8AE0              ldi R24,10
 0FAC 90E0              ldi R25,0
 0FAE 8417              cp R24,R20
 0FB0 9507              cpc R25,R21
 0FB2 08F0              brlo X156
 0FB4 17C1              xjmp L231
 0FB6           X156:
 0FB6           X128:
 0FB6 83E8              ldi R24,131
 0FB8 8417              cp R24,R20
 0FBA 9507              cpc R25,R21
 0FBC 08F4              brsh X157
 0FBE 12C1              xjmp L231
 0FC0           X157:
 0FC0           X129:
 0FC0                   .dbline 583
 0FC0                   .dbline 584
 0FC0           ;                  oldcur=cur;
 0FC0 5A01              movw R10,R20
 0FC2                   .dbline 585
 0FC2           ;              cur=(cur/11-1)*11;
 0FC2 2BE0              ldi R18,11
 0FC4 30E0              ldi R19,0
 0FC6 8A01              movw R16,R20
 0FC8 0E940000          xcall div16u
 0FCC 9801              movw R18,R16
 0FCE 2150              subi R18,1
 0FD0 3040              sbci R19,0
 0FD2 0BE0              ldi R16,11
 0FD4 10E0              ldi R17,0
 0FD6 0E940000          xcall empy16s
 0FDA A801              movw R20,R16
 0FDC                   .dbline 586
 0FDC           ;                  page4_ac(cur,oldcur);
 0FDC 9501              movw R18,R10
 0FDE 28DE              xcall _page4_ac
 0FE0                   .dbline 587
 0FE0           ;                }
 0FE0                   .dbline 588
 0FE0           ;         }else if(keyV=='d'){
 0FE0 01C1              xjmp L231
 0FE2           L230:
 0FE2                   .dbline 588
 0FE2 6436              cpi R22,100
 0FE4 09F0              breq X158
 0FE6 3CC0              xjmp L238
 0FE8           X158:
 0FE8           X130:
 0FE8                   .dbline 588
 0FE8                   .dbline 589
 0FE8           ;            if(cur==132){
 0FE8 4438              cpi R20,132
 0FEA E0E0              ldi R30,0
 0FEC 5E07              cpc R21,R30
 0FEE 79F4              brne L240
 0FF0           X131:
 0FF0                   .dbline 589
 0FF0                   .dbline 590
 0FF0           ;                   Set_White_off(1,1,2);
 0FF0 82E0              ldi R24,2
 0FF2 8883              std y+0,R24
 0FF4 21E0              ldi R18,1
 0FF6 01E0              ldi R16,1
 0FF8 0E940000          xcall _Set_White_off
 0FFC                   .dbline 591
 0FFC           ;                       Set_White(1,2,2);
 0FFC 82E0              ldi R24,2
 0FFE 8883              std y+0,R24
 1000 22E0              ldi R18,2
 1002 01E0              ldi R16,1
 1004 0E940000          xcall _Set_White
 1008                   .dbline 592
 1008           ;                       cur=133;
 1008 45E8              ldi R20,133
 100A 50E0              ldi R21,0
 100C                   .dbline 593
 100C           ;                }else if(cur==133){
 100C EBC0              xjmp L239
 100E           L240:
 100E                   .dbline 593
 100E 4538              cpi R20,133
 1010 E0E0              ldi R30,0
 1012 5E07              cpc R21,R30
 1014 79F4              brne L242
 1016           X132:
 1016                   .dbline 593
 1016                   .dbline 594
 1016           ;                   Set_White_off(1,2,2);
 1016 82E0              ldi R24,2
 1018 8883              std y+0,R24
 101A 22E0              ldi R18,2
 101C 01E0              ldi R16,1
 101E 0E940000          xcall _Set_White_off
 1022                   .dbline 595
 1022           ;                       Set_White(1,3,2);
 1022 82E0              ldi R24,2
 1024 8883              std y+0,R24
 1026 23E0              ldi R18,3
 1028 01E0              ldi R16,1
 102A 0E940000          xcall _Set_White
 102E                   .dbline 596
 102E           ;                       cur=134;
 102E 46E8              ldi R20,134
 1030 50E0              ldi R21,0
 1032                   .dbline 597
 1032           ;                }else if(cur<121){
 1032 D8C0              xjmp L239
 1034           L242:
 1034                   .dbline 597
 1034 4937              cpi R20,121
 1036 E0E0              ldi R30,0
 1038 5E07              cpc R21,R30
 103A 08F0              brlo X159
 103C D3C0              xjmp L239
 103E           X159:
 103E           X133:
 103E                   .dbline 597
 103E                   .dbline 598
 103E           ;             oldcur=cur;
 103E 5A01              movw R10,R20
 1040                   .dbline 599
 1040           ;             cur=(cur/11+1)*11;
 1040 2BE0              ldi R18,11
 1042 30E0              ldi R19,0
 1044 8A01              movw R16,R20
 1046 0E940000          xcall div16u
 104A 9801              movw R18,R16
 104C 2F5F              subi R18,255  ; offset = 1
 104E 3F4F              sbci R19,255
 1050 0BE0              ldi R16,11
 1052 10E0              ldi R17,0
 1054 0E940000          xcall empy16s
 1058 A801              movw R20,R16
 105A                   .dbline 600
 105A           ;                 page4_ac(cur,oldcur);
 105A 9501              movw R18,R10
 105C E9DD              xcall _page4_ac
 105E                   .dbline 601
 105E           ;               }
 105E                   .dbline 603
 105E           ;               
 105E           ;         }else if(keyV=='l'){
 105E C2C0              xjmp L239
 1060           L238:
 1060                   .dbline 603
 1060 6C36              cpi R22,108
 1062 21F5              brne L246
 1064           X134:
 1064                   .dbline 603
 1064                   .dbline 604
 1064           ;          oldcur=cur;
 1064 5A01              movw R10,R20
 1066                   .dbline 605
 1066           ;         if(cur%11==0){
 1066 2BE0              ldi R18,11
 1068 30E0              ldi R19,0
 106A 8A01              movw R16,R20
 106C 0E940000          xcall mod16u
 1070 0030              cpi R16,0
 1072 0107              cpc R16,R17
 1074 89F4              brne L248
 1076           X135:
 1076                   .dbline 605
 1076                   .dbline 606
 1076           ;               Set_White(1,1,2);
 1076 82E0              ldi R24,2
 1078 8883              std y+0,R24
 107A 21E0              ldi R18,1
 107C 01E0              ldi R16,1
 107E 0E940000          xcall _Set_White
 1082                   .dbline 607
 1082           ;                       cur_set(0);
 1082 0027              clr R16
 1084 1127              clr R17
 1086 0E940000          xcall _cur_set
 108A                   .dbline 608
 108A           ;                       cur_set(4);
 108A 04E0              ldi R16,4
 108C 10E0              ldi R17,0
 108E 0E940000          xcall _cur_set
 1092                   .dbline 609
 1092           ;                       cur=132;
 1092 44E8              ldi R20,132
 1094 50E0              ldi R21,0
 1096                   .dbline 610
 1096           ;          }else if(cur>0){
 1096 A6C0              xjmp L247
 1098           L248:
 1098                   .dbline 610
 1098 4030              cpi R20,0
 109A 4507              cpc R20,R21
 109C 09F4              brne X160
 109E A2C0              xjmp L247
 10A0           X160:
 10A0           X136:
 10A0                   .dbline 610
 10A0                   .dbline 611
 10A0           ;             cur--;
 10A0 4150              subi R20,1
 10A2 5040              sbci R21,0
 10A4                   .dbline 612
 10A4           ;                  page4_ac(cur,oldcur);
 10A4 9501              movw R18,R10
 10A6 8A01              movw R16,R20
 10A8 C3DD              xcall _page4_ac
 10AA                   .dbline 613
 10AA           ;               }
 10AA                   .dbline 615
 10AA           ;         
 10AA           ;         }else if(keyV=='r'){
 10AA 9CC0              xjmp L247
 10AC           L246:
 10AC                   .dbline 615
 10AC 6237              cpi R22,114
 10AE 21F5              brne L252
 10B0           X137:
 10B0                   .dbline 615
 10B0                   .dbline 616
 10B0           ;         if(cur>131){
 10B0 83E8              ldi R24,131
 10B2 90E0              ldi R25,0
 10B4 8417              cp R24,R20
 10B6 9507              cpc R25,R21
 10B8 A0F4              brsh L254
 10BA           X138:
 10BA                   .dbline 616
 10BA                   .dbline 617
 10BA           ;             Set_White_off(1,1,2);
 10BA 82E0              ldi R24,2
 10BC 8883              std y+0,R24
 10BE 21E0              ldi R18,1
 10C0 01E0              ldi R16,1
 10C2 0E940000          xcall _Set_White_off
 10C6                   .dbline 618
 10C6           ;             Set_White_off(1,2,2);
 10C6 82E0              ldi R24,2
 10C8 8883              std y+0,R24
 10CA 22E0              ldi R18,2
 10CC 01E0              ldi R16,1
 10CE 0E940000          xcall _Set_White_off
 10D2                   .dbline 619
 10D2           ;                 Set_White_off(1,3,2);
 10D2 82E0              ldi R24,2
 10D4 8883              std y+0,R24
 10D6 23E0              ldi R18,3
 10D8 01E0              ldi R16,1
 10DA 0E940000          xcall _Set_White_off
 10DE                   .dbline 620
 10DE           ;                 cur=oldcur;
 10DE A501              movw R20,R10
 10E0                   .dbline 621
 10E0           ;         }else  if(cur<131){
 10E0 07C0              xjmp L255
 10E2           L254:
 10E2                   .dbline 621
 10E2 4338              cpi R20,131
 10E4 E0E0              ldi R30,0
 10E6 5E07              cpc R21,R30
 10E8 18F4              brsh L256
 10EA           X139:
 10EA                   .dbline 621
 10EA                   .dbline 622
 10EA           ;                oldcur=cur;
 10EA 5A01              movw R10,R20
 10EC                   .dbline 623
 10EC           ;            cur++;
 10EC 4F5F              subi R20,255  ; offset = 1
 10EE 5F4F              sbci R21,255
 10F0                   .dbline 624
 10F0           ;                }
 10F0           L256:
 10F0           L255:
 10F0                   .dbline 625
 10F0           ;           page4_ac(cur,oldcur);
 10F0 9501              movw R18,R10
 10F2 8A01              movw R16,R20
 10F4 9DDD              xcall _page4_ac
 10F6                   .dbline 626
 10F6           ;         }else if(keyV=='t'){
 10F6 76C0              xjmp L253
 10F8           L252:
 10F8                   .dbline 626
 10F8 6437              cpi R22,116
 10FA 09F0              breq X161
 10FC 5FC0              xjmp L258
 10FE           X161:
 10FE           X140:
 10FE                   .dbline 626
 10FE                   .dbline 627
 10FE           ;               Set_White_off(1,1,2);
 10FE 82E0              ldi R24,2
 1100 8883              std y+0,R24
 1102 21E0              ldi R18,1
 1104 01E0              ldi R16,1
 1106 0E940000          xcall _Set_White_off
 110A                   .dbline 628
 110A           ;                       Set_White_off(1,2,2);
 110A 82E0              ldi R24,2
 110C 8883              std y+0,R24
 110E 22E0              ldi R18,2
 1110 01E0              ldi R16,1
 1112 0E940000          xcall _Set_White_off
 1116                   .dbline 629
 1116           ;                       Set_White_off(1,3,2);
 1116 82E0              ldi R24,2
 1118 8883              std y+0,R24
 111A 23E0              ldi R18,3
 111C 01E0              ldi R16,1
 111E 0E940000          xcall _Set_White_off
 1122                   .dbline 631
 1122           ;                   
 1122           ;            if(cur==132){
 1122 4438              cpi R20,132
 1124 E0E0              ldi R30,0
 1126 5E07              cpc R21,R30
 1128 C9F4              brne L260
 112A           X141:
 112A                   .dbline 631
 112A                   .dbline 632
 112A           ;                  cur_set(0);
 112A 0027              clr R16
 112C 1127              clr R17
 112E 0E940000          xcall _cur_set
 1132                   .dbline 633
 1132           ;                       cur_set(4);
 1132 04E0              ldi R16,4
 1134 10E0              ldi R17,0
 1136 0E940000          xcall _cur_set
 113A                   .dbline 634
 113A           ;                   pageParam[1]=1;//表示是温度数据的，这里处理保存的方法，因为数据在这里。只是跳转过去，参数如果是1表示成功。2表示失败
 113A 81E0              ldi R24,1
 113C 90E0              ldi R25,0
 113E 90930300          sts _pageParam+2+1,R25
 1142 80930200          sts _pageParam+2,R24
 1146                   .dbline 635
 1146           ;                   prePageNum=4;
 1146 84E0              ldi R24,4
 1148 90930100          sts _prePageNum+1,R25
 114C 80930000          sts _prePageNum,R24
 1150                   .dbline 636
 1150           ;                   pageNum=6;
 1150 86E0              ldi R24,6
 1152 90930100          sts _pageNum+1,R25
 1156 80930000          sts _pageNum,R24
 115A                   .dbline 637
 115A           ;                   return;
 115A 45C0              xjmp L217
 115C           L260:
 115C                   .dbline 638
 115C           ;                }else if(cur==133){
 115C 4538              cpi R20,133
 115E E0E0              ldi R30,0
 1160 5E07              cpc R21,R30
 1162 79F4              brne L263
 1164           X142:
 1164                   .dbline 638
 1164                   .dbline 639
 1164           ;                   cur_set(0);
 1164 0027              clr R16
 1166 1127              clr R17
 1168 0E940000          xcall _cur_set
 116C                   .dbline 640
 116C           ;                       cur_set(4);
 116C 04E0              ldi R16,4
 116E 10E0              ldi R17,0
 1170 0E940000          xcall _cur_set
 1174                   .dbline 641
 1174           ;                   pageNum=3;
 1174 83E0              ldi R24,3
 1176 90E0              ldi R25,0
 1178 90930100          sts _pageNum+1,R25
 117C 80930000          sts _pageNum,R24
 1180                   .dbline 642
 1180           ;                   return;
 1180 32C0              xjmp L217
 1182           L263:
 1182                   .dbline 643
 1182           ;                }else if(cur==134){
 1182 4638              cpi R20,134
 1184 E0E0              ldi R30,0
 1186 5E07              cpc R21,R30
 1188 69F5              brne L259
 118A           X143:
 118A                   .dbline 643
 118A                   .dbline 644
 118A           ;                  cur_set(0);
 118A 0027              clr R16
 118C 1127              clr R17
 118E 0E940000          xcall _cur_set
 1192                   .dbline 645
 1192           ;                       cur_set(4);
 1192 04E0              ldi R16,4
 1194 10E0              ldi R17,0
 1196 0E940000          xcall _cur_set
 119A                   .dbline 647
 119A           ;                  //重置。有提示
 119A           ;                       pageParam[2]=1;//表示重置是温度数据的
 119A 81E0              ldi R24,1
 119C 90E0              ldi R25,0
 119E 90930500          sts _pageParam+4+1,R25
 11A2 80930400          sts _pageParam+4,R24
 11A6                   .dbline 648
 11A6           ;                       prePageNum=4;
 11A6 84E0              ldi R24,4
 11A8 90930100          sts _prePageNum+1,R25
 11AC 80930000          sts _prePageNum,R24
 11B0                   .dbline 649
 11B0           ;                   pageNum=7;
 11B0 87E0              ldi R24,7
 11B2 90930100          sts _pageNum+1,R25
 11B6 80930000          sts _pageNum,R24
 11BA                   .dbline 650
 11BA           ;                   return;
 11BA 15C0              xjmp L217
 11BC           L258:
 11BC                   .dbline 653
 11BC           ;                }
 11BC           ;            
 11BC           ;         }else if(keyV=='0' || keyV=='1' || keyV=='2' || keyV=='3' || keyV=='4' || keyV=='5' 
 11BC 6033              cpi R22,48
 11BE 91F0              breq L278
 11C0           X144:
 11C0 6133              cpi R22,49
 11C2 81F0              breq L278
 11C4           X145:
 11C4 6233              cpi R22,50
 11C6 71F0              breq L278
 11C8           X146:
 11C8 6333              cpi R22,51
 11CA 61F0              breq L278
 11CC           X147:
 11CC 6433              cpi R22,52
 11CE 51F0              breq L278
 11D0           X148:
 11D0 6533              cpi R22,53
 11D2 41F0              breq L278
 11D4           X149:
 11D4 6633              cpi R22,54
 11D6 31F0              breq L278
 11D8           X150:
 11D8 6733              cpi R22,55
 11DA 21F0              breq L278
 11DC           X151:
 11DC 6833              cpi R22,56
 11DE 11F0              breq L278
 11E0           X152:
 11E0 6933              cpi R22,57
 11E2 01F4              brne L268
 11E4           X153:
 11E4           L278:
 11E4                   .dbline 654
 11E4           ;                  || keyV=='6'  || keyV=='7' || keyV=='8' || keyV=='9'){
 11E4                   .dbline 656
 11E4           ;                          
 11E4           ;               }
 11E4           L268:
 11E4           L259:
 11E4           L253:
 11E4           L247:
 11E4           L239:
 11E4           L231:
 11E4                   .dbline 657
 11E4           ;       }
 11E4           L226:
 11E4                   .dbline 564
 11E4 93CE              xjmp L225
 11E6           X154:
 11E6                   .dbline -2
 11E6           L217:
 11E6                   .dbline 0 ; func end
 11E6 2296              adiw R28,2
 11E8 0C940000          xjmp pop_xgsetF03C
 11EC                   .dbsym r oldcur 10 i
 11EC                   .dbsym r numL 22 i
 11EC                   .dbsym r numH 12 i
 11EC                   .dbsym r cur 20 i
 11EC                   .dbsym r keyV 22 c
 11EC                   .dbend
 11EC                   .dbfunc e page5 _page5 fV
 11EC           ;            cur -> R20,R21
 11EC           ;           keyV -> R22
                        .even
 11EC           _page5::
 11EC 0E940000          xcall push_xgsetF000
 11F0 2297              sbiw R28,2
 11F2                   .dbline -1
 11F2                   .dbline 660
 11F2           ;  }
 11F2           ;  
 11F2           ;  void page5(void){
 11F2                   .dbline 661
 11F2           ;   uint cur=0;
 11F2                   .dbline 663
 11F2           ;    uchar keyV;
 11F2           ;    lcd_write_str(4,0,"断电自动重置");
 11F2 80E0              ldi R24,<L280
 11F4 90E0              ldi R25,>L280
 11F6 9983              std y+1,R25
 11F8 8883              std y+0,R24
 11FA 2227              clr R18
 11FC 04E0              ldi R16,4
 11FE 0E940000          xcall _lcd_write_str
 1202                   .dbline 664
 1202           ;    lcd_write_str(4,1,"设置时间");
 1202 80E0              ldi R24,<L281
 1204 90E0              ldi R25,>L281
 1206 9983              std y+1,R25
 1208 8883              std y+0,R24
 120A 21E0              ldi R18,1
 120C 04E0              ldi R16,4
 120E 0E940000          xcall _lcd_write_str
 1212                   .dbline 665
 1212           ;    lcd_write_str(4,2,"重置系统");
 1212 80E0              ldi R24,<L282
 1214 90E0              ldi R25,>L282
 1216 9983              std y+1,R25
 1218 8883              std y+0,R24
 121A 22E0              ldi R18,2
 121C 04E0              ldi R16,4
 121E 0E940000          xcall _lcd_write_str
 1222                   .dbline 666
 1222           ;    lcd_write_char(3,0,0xA1);
 1222 81EA              ldi R24,161
 1224 8883              std y+0,R24
 1226 2227              clr R18
 1228 03E0              ldi R16,3
 122A 0E940000          xcall _lcd_write_char
 122E                   .dbline 667
 122E           ;    lcd_write_char_con(0,0xC1);
 122E 21EC              ldi R18,193
 1230 0027              clr R16
 1232 0E940000          xcall _lcd_write_char_con
 1236                   .dbline 671
 1236           ;    
 1236           ;    /* lcd_write_char(1,0,0xA1);
 1236           ;    lcd_write_char_con(0,0xCC);*/
 1236           ;    cur=0;
 1236 4427              clr R20
 1238 5527              clr R21
 123A                   .dbline 672
 123A           ;    Set_White(5,0,10);
 123A 8AE0              ldi R24,10
 123C 8883              std y+0,R24
 123E 2227              clr R18
 1240 05E0              ldi R16,5
 1242 0E940000          xcall _Set_White
 1246 A4C0              xjmp L284
 1248           L283:
 1248                   .dbline 673
 1248           ;    while(1){
 1248                   .dbline 674
 1248           ;       keyV=KeyScan_once();
 1248 0E940000          xcall _KeyScan_once
 124C 602F              mov R22,R16
 124E                   .dbline 675
 124E           ;         if(keyV=='u'){
 124E 0537              cpi R16,117
 1250 39F5              brne L286
 1252           X162:
 1252                   .dbline 675
 1252                   .dbline 676
 1252           ;           switch(cur){
 1252 4130              cpi R20,1
 1254 E0E0              ldi R30,0
 1256 5E07              cpc R21,R30
 1258 29F0              breq L290
 125A           X163:
 125A 4230              cpi R20,2
 125C E0E0              ldi R30,0
 125E 5E07              cpc R21,R30
 1260 81F0              breq L291
 1262           X164:
 1262 96C0              xjmp L287
 1264           L290:
 1264                   .dbline 678
 1264           ;                 case 1:
 1264           ;                  Set_White_off(5,1,8);
 1264 88E0              ldi R24,8
 1266 8883              std y+0,R24
 1268 21E0              ldi R18,1
 126A 05E0              ldi R16,5
 126C 0E940000          xcall _Set_White_off
 1270                   .dbline 679
 1270           ;                  Set_White(5,0,10);
 1270 8AE0              ldi R24,10
 1272 8883              std y+0,R24
 1274 2227              clr R18
 1276 05E0              ldi R16,5
 1278 0E940000          xcall _Set_White
 127C                   .dbline 680
 127C           ;                  cur=0;
 127C 4427              clr R20
 127E 5527              clr R21
 1280                   .dbline 681
 1280           ;                  break;
 1280 87C0              xjmp L287
 1282           L291:
 1282                   .dbline 683
 1282           ;                 case 2: 
 1282           ;                  Set_White_off(5,2,8);
 1282 88E0              ldi R24,8
 1284 8883              std y+0,R24
 1286 22E0              ldi R18,2
 1288 05E0              ldi R16,5
 128A 0E940000          xcall _Set_White_off
 128E                   .dbline 684
 128E           ;                  Set_White(5,1,8);
 128E 88E0              ldi R24,8
 1290 8883              std y+0,R24
 1292 21E0              ldi R18,1
 1294 05E0              ldi R16,5
 1296 0E940000          xcall _Set_White
 129A                   .dbline 685
 129A           ;                  cur=1;
 129A 41E0              ldi R20,1
 129C 50E0              ldi R21,0
 129E                   .dbline 686
 129E           ;                  break;
 129E                   .dbline 688
 129E           ;               }
 129E           ;         }else if(keyV=='d'){
 129E 78C0              xjmp L287
 12A0           L286:
 12A0                   .dbline 688
 12A0 6436              cpi R22,100
 12A2 31F5              brne L292
 12A4           X165:
 12A4                   .dbline 688
 12A4                   .dbline 689
 12A4           ;             switch(cur){
 12A4 4030              cpi R20,0
 12A6 4507              cpc R20,R21
 12A8 29F0              breq L296
 12AA           X166:
 12AA 4130              cpi R20,1
 12AC E0E0              ldi R30,0
 12AE 5E07              cpc R21,R30
 12B0 81F0              breq L297
 12B2           X167:
 12B2 6EC0              xjmp L293
 12B4           L296:
 12B4                   .dbline 691
 12B4           ;                 case 0:
 12B4           ;                  Set_White_off(5,0,10);
 12B4 8AE0              ldi R24,10
 12B6 8883              std y+0,R24
 12B8 2227              clr R18
 12BA 05E0              ldi R16,5
 12BC 0E940000          xcall _Set_White_off
 12C0                   .dbline 692
 12C0           ;                  Set_White(5,1,8);
 12C0 88E0              ldi R24,8
 12C2 8883              std y+0,R24
 12C4 21E0              ldi R18,1
 12C6 05E0              ldi R16,5
 12C8 0E940000          xcall _Set_White
 12CC                   .dbline 693
 12CC           ;                  cur=1;
 12CC 41E0              ldi R20,1
 12CE 50E0              ldi R21,0
 12D0                   .dbline 694
 12D0           ;                  break;
 12D0 5FC0              xjmp L293
 12D2           L297:
 12D2                   .dbline 696
 12D2           ;                 case 1: 
 12D2           ;                  Set_White_off(5,1,8);
 12D2 88E0              ldi R24,8
 12D4 8883              std y+0,R24
 12D6 21E0              ldi R18,1
 12D8 05E0              ldi R16,5
 12DA 0E940000          xcall _Set_White_off
 12DE                   .dbline 697
 12DE           ;                  Set_White(5,2,8);
 12DE 88E0              ldi R24,8
 12E0 8883              std y+0,R24
 12E2 22E0              ldi R18,2
 12E4 05E0              ldi R16,5
 12E6 0E940000          xcall _Set_White
 12EA                   .dbline 698
 12EA           ;                  cur=2;
 12EA 42E0              ldi R20,2
 12EC 50E0              ldi R21,0
 12EE                   .dbline 699
 12EE           ;                  break;
 12EE                   .dbline 701
 12EE           ;               }
 12EE           ;         }else if(keyV=='e'){
 12EE 50C0              xjmp L293
 12F0           L292:
 12F0                   .dbline 701
 12F0 6536              cpi R22,101
 12F2 39F5              brne L298
 12F4           X168:
 12F4                   .dbline 701
 12F4                   .dbline 702
 12F4           ;            switch(cur){
 12F4 4030              cpi R20,0
 12F6 4507              cpc R20,R21
 12F8 49F0              breq L302
 12FA           X169:
 12FA 4130              cpi R20,1
 12FC E0E0              ldi R30,0
 12FE 5E07              cpc R21,R30
 1300 61F0              breq L303
 1302           X170:
 1302 4230              cpi R20,2
 1304 E0E0              ldi R30,0
 1306 5E07              cpc R21,R30
 1308 79F0              breq L304
 130A           X171:
 130A 14C0              xjmp L301
 130C           L302:
 130C                   .dbline 704
 130C           ;                case 0: 
 130C           ;                  Set_White_off(5,0,10);
 130C 8AE0              ldi R24,10
 130E 8883              std y+0,R24
 1310 2227              clr R18
 1312 05E0              ldi R16,5
 1314 0E940000          xcall _Set_White_off
 1318                   .dbline 705
 1318           ;                   break;
 1318 0DC0              xjmp L301
 131A           L303:
 131A                   .dbline 707
 131A           ;                case 1:
 131A           ;                  Set_White_off(5,1,8);
 131A 88E0              ldi R24,8
 131C 8883              std y+0,R24
 131E 21E0              ldi R18,1
 1320 05E0              ldi R16,5
 1322 0E940000          xcall _Set_White_off
 1326                   .dbline 708
 1326           ;                  break;
 1326 06C0              xjmp L301
 1328           L304:
 1328                   .dbline 710
 1328           ;                case 2:
 1328           ;                 Set_White_off(5,2,8);
 1328 88E0              ldi R24,8
 132A 8883              std y+0,R24
 132C 22E0              ldi R18,2
 132E 05E0              ldi R16,5
 1330 0E940000          xcall _Set_White_off
 1334                   .dbline 711
 1334           ;                 break;
 1334                   .dbline 714
 1334           ;       
 1334           ;                 default:
 1334           ;                  break;
 1334           L301:
 1334                   .dbline 716
 1334           ;                }
 1334           ;           pageNum=1;
 1334 81E0              ldi R24,1
 1336 90E0              ldi R25,0
 1338 90930100          sts _pageNum+1,R25
 133C 80930000          sts _pageNum,R24
 1340                   .dbline 717
 1340           ;               return;
 1340 28C0              xjmp L279
 1342           L298:
 1342                   .dbline 718
 1342           ;         }else if(keyV=='t'){
 1342 6437              cpi R22,116
 1344 29F5              brne L305
 1346           X172:
 1346                   .dbline 718
 1346                   .dbline 719
 1346           ;           switch(cur){
 1346 4030              cpi R20,0
 1348 4507              cpc R20,R21
 134A 11F1              breq L308
 134C           X173:
 134C 4130              cpi R20,1
 134E E0E0              ldi R30,0
 1350 5E07              cpc R21,R30
 1352 29F0              breq L310
 1354           X174:
 1354 4230              cpi R20,2
 1356 E0E0              ldi R30,0
 1358 5E07              cpc R21,R30
 135A 69F0              breq L311
 135C           X175:
 135C 19C0              xjmp L307
 135E           L310:
 135E                   .dbline 724
 135E           ;                 case 0:
 135E           ;                    //执行EEPROM操作
 135E           ;                   break;
 135E           ;                 case 1:
 135E           ;                  pageNum=8;
 135E 88E0              ldi R24,8
 1360 90E0              ldi R25,0
 1362 90930100          sts _pageNum+1,R25
 1366 80930000          sts _pageNum,R24
 136A                   .dbline 725
 136A           ;                  Set_White_off(5,1,8);
 136A 8883              std y+0,R24
 136C 21E0              ldi R18,1
 136E 05E0              ldi R16,5
 1370 0E940000          xcall _Set_White_off
 1374                   .dbline 726
 1374           ;                  return;
 1374 0EC0              xjmp L279
 1376           L311:
 1376                   .dbline 729
 1376           ;                 
 1376           ;                 case 2:
 1376           ;                   pageNum=7;
 1376 87E0              ldi R24,7
 1378 90E0              ldi R25,0
 137A 90930100          sts _pageNum+1,R25
 137E 80930000          sts _pageNum,R24
 1382                   .dbline 730
 1382           ;                   Set_White_off(5,2,8);
 1382 88E0              ldi R24,8
 1384 8883              std y+0,R24
 1386 22E0              ldi R18,2
 1388 05E0              ldi R16,5
 138A 0E940000          xcall _Set_White_off
 138E                   .dbline 731
 138E           ;                  return;
 138E 01C0              xjmp L279
 1390           L307:
 1390           L308:
 1390                   .dbline 734
 1390           ;               }
 1390           ;           
 1390           ;         }
 1390           L305:
 1390           L293:
 1390           L287:
 1390                   .dbline 735
 1390           ;    }
 1390           L284:
 1390                   .dbline 673
 1390 5BCF              xjmp L283
 1392           X176:
 1392                   .dbline -2
 1392           L279:
 1392                   .dbline 0 ; func end
 1392 2296              adiw R28,2
 1394 0C940000          xjmp pop_xgsetF000
 1398                   .dbsym r cur 20 i
 1398                   .dbsym r keyV 22 c
 1398                   .dbend
 1398                   .dbfunc e page6 _page6 fV
                        .even
 1398           _page6::
 1398 2297              sbiw R28,2
 139A                   .dbline -1
 139A                   .dbline 738
 139A           ;    
 139A           ;  }
 139A           ;  void page6(void){//复用的方法
 139A                   .dbline 739
 139A           ;  if(pageParam[1]==0){
 139A 20900200          lds R2,_pageParam+2
 139E 30900300          lds R3,_pageParam+2+1
 13A2 2220              tst R2
 13A4 59F4              brne L313
 13A6 3320              tst R3
 13A8 49F4              brne L313
 13AA           X177:
 13AA                   .dbline 739
 13AA                   .dbline 740
 13AA           ;      lcd_write_str(4,1,"时间保存成功！");
 13AA 80E0              ldi R24,<L316
 13AC 90E0              ldi R25,>L316
 13AE 9983              std y+1,R25
 13B0 8883              std y+0,R24
 13B2 21E0              ldi R18,1
 13B4 04E0              ldi R16,4
 13B6 0E940000          xcall _lcd_write_str
 13BA                   .dbline 741
 13BA           ;    }else if(pageParam[1]==1){
 13BA 21C0              xjmp L314
 13BC           L313:
 13BC                   .dbline 741
 13BC 80910200          lds R24,_pageParam+2
 13C0 90910300          lds R25,_pageParam+2+1
 13C4 8130              cpi R24,1
 13C6 E0E0              ldi R30,0
 13C8 9E07              cpc R25,R30
 13CA 49F4              brne L317
 13CC           X178:
 13CC                   .dbline 741
 13CC                   .dbline 742
 13CC           ;      lcd_write_str(4,1,"温度保存成功！");
 13CC 80E0              ldi R24,<L320
 13CE 90E0              ldi R25,>L320
 13D0 9983              std y+1,R25
 13D2 8883              std y+0,R24
 13D4 21E0              ldi R18,1
 13D6 04E0              ldi R16,4
 13D8 0E940000          xcall _lcd_write_str
 13DC                   .dbline 743
 13DC           ;    }else if(pageParam[1]==2){
 13DC 10C0              xjmp L318
 13DE           L317:
 13DE                   .dbline 743
 13DE 80910200          lds R24,_pageParam+2
 13E2 90910300          lds R25,_pageParam+2+1
 13E6 8230              cpi R24,2
 13E8 E0E0              ldi R30,0
 13EA 9E07              cpc R25,R30
 13EC 41F4              brne L321
 13EE           X179:
 13EE                   .dbline 743
 13EE                   .dbline 744
 13EE           ;      lcd_write_str(4,1,"温度保存失败！");
 13EE 80E0              ldi R24,<L324
 13F0 90E0              ldi R25,>L324
 13F2 9983              std y+1,R25
 13F4 8883              std y+0,R24
 13F6 21E0              ldi R18,1
 13F8 04E0              ldi R16,4
 13FA 0E940000          xcall _lcd_write_str
 13FE                   .dbline 745
 13FE           ;    }
 13FE           L321:
 13FE           L318:
 13FE           L314:
 13FE                   .dbline 746
 13FE           ;    delay_ms(500);
 13FE 04EF              ldi R16,500
 1400 11E0              ldi R17,1
 1402 0E940000          xcall _delay_ms
 1406                   .dbline 747
 1406           ;    pageNum=prePageNum;
 1406 20900000          lds R2,_prePageNum
 140A 30900100          lds R3,_prePageNum+1
 140E 30920100          sts _pageNum+1,R3
 1412 20920000          sts _pageNum,R2
 1416                   .dbline -2
 1416           L312:
 1416                   .dbline 0 ; func end
 1416 2296              adiw R28,2
 1418 0895              ret
 141A                   .dbend
 141A                   .dbfunc e page7 _page7 fV
 141A           ;            cur -> R20,R21
 141A           ;           keyV -> R10
                        .even
 141A           _page7::
 141A 0E940000          xcall push_xgsetF00C
 141E 2297              sbiw R28,2
 1420                   .dbline -1
 1420                   .dbline 749
 1420           ;  }
 1420           ;  void page7(void){
 1420                   .dbline 750
 1420           ;    uint cur=1;
 1420 41E0              ldi R20,1
 1422 50E0              ldi R21,0
 1424                   .dbline 752
 1424           ;    uchar keyV;
 1424           ;    lcd_write_str(2,0,"是否重置");
 1424 80E0              ldi R24,<L326
 1426 90E0              ldi R25,>L326
 1428 9983              std y+1,R25
 142A 8883              std y+0,R24
 142C 2227              clr R18
 142E 02E0              ldi R16,2
 1430 0E940000          xcall _lcd_write_str
 1434                   .dbline 753
 1434           ;    lcd_write_str(2,2,"确认");
 1434 80E0              ldi R24,<L327
 1436 90E0              ldi R25,>L327
 1438 9983              std y+1,R25
 143A 8883              std y+0,R24
 143C 22E0              ldi R18,2
 143E 02E0              ldi R16,2
 1440 0E940000          xcall _lcd_write_str
 1444                   .dbline 754
 1444           ;    lcd_write_str(8,2,"取消");
 1444 80E0              ldi R24,<L112
 1446 90E0              ldi R25,>L112
 1448 9983              std y+1,R25
 144A 8883              std y+0,R24
 144C 22E0              ldi R18,2
 144E 08E0              ldi R16,8
 1450 0E940000          xcall _lcd_write_str
 1454                   .dbline 755
 1454           ;    Set_White(9,2,10);
 1454 8AE0              ldi R24,10
 1456 8883              std y+0,R24
 1458 22E0              ldi R18,2
 145A 09E0              ldi R16,9
 145C 0E940000          xcall _Set_White
 1460 74C0              xjmp L329
 1462           L328:
 1462                   .dbline 756
 1462           ;     while(1){
 1462                   .dbline 757
 1462           ;       keyV=KeyScan_once();
 1462 0E940000          xcall _KeyScan_once
 1466 A02E              mov R10,R16
 1468                   .dbline 758
 1468           ;         switch(keyV){
 1468 6A2D              mov R22,R10
 146A 7727              clr R23
 146C 6C36              cpi R22,108
 146E E0E0              ldi R30,0
 1470 7E07              cpc R23,R30
 1472 A1F0              breq L334
 1474           X180:
 1474 8CE6              ldi R24,108
 1476 90E0              ldi R25,0
 1478 8617              cp R24,R22
 147A 9707              cpc R25,R23
 147C 34F0              brlt L345
 147E           X181:
 147E           L344:
 147E 6536              cpi R22,101
 1480 E0E0              ldi R30,0
 1482 7E07              cpc R23,R30
 1484 09F4              brne X189
 1486 4EC0              xjmp L343
 1488           X189:
 1488           X182:
 1488 60C0              xjmp L331
 148A           L345:
 148A 6237              cpi R22,114
 148C E0E0              ldi R30,0
 148E 7E07              cpc R23,R30
 1490 C9F0              breq L337
 1492           X183:
 1492 6437              cpi R22,116
 1494 E0E0              ldi R30,0
 1496 7E07              cpc R23,R30
 1498 41F1              breq L340
 149A           X184:
 149A 57C0              xjmp L331
 149C           L334:
 149C                   .dbline 760
 149C           ;           case 'l':
 149C           ;                  if(cur==1){
 149C 4130              cpi R20,1
 149E E0E0              ldi R30,0
 14A0 5E07              cpc R21,R30
 14A2 09F0              breq X190
 14A4 52C0              xjmp L332
 14A6           X190:
 14A6           X185:
 14A6                   .dbline 760
 14A6                   .dbline 761
 14A6           ;                     Set_White_off(9,2,10);
 14A6 8AE0              ldi R24,10
 14A8 8883              std y+0,R24
 14AA 22E0              ldi R18,2
 14AC 09E0              ldi R16,9
 14AE 0E940000          xcall _Set_White_off
 14B2                   .dbline 762
 14B2           ;                     Set_White(3,2,4);
 14B2 84E0              ldi R24,4
 14B4 8883              std y+0,R24
 14B6 22E0              ldi R18,2
 14B8 03E0              ldi R16,3
 14BA 0E940000          xcall _Set_White
 14BE                   .dbline 763
 14BE           ;                         cur=0;
 14BE 4427              clr R20
 14C0 5527              clr R21
 14C2                   .dbline 764
 14C2           ;                  }
 14C2                   .dbline 765
 14C2           ;                  break;
 14C2 43C0              xjmp L332
 14C4           L337:
 14C4                   .dbline 767
 14C4           ;               case 'r':
 14C4           ;                  if(cur==0){
 14C4 4030              cpi R20,0
 14C6 4507              cpc R20,R21
 14C8 09F0              breq X191
 14CA 3FC0              xjmp L332
 14CC           X191:
 14CC           X186:
 14CC                   .dbline 767
 14CC                   .dbline 768
 14CC           ;                     Set_White_off(3,2,4);
 14CC 84E0              ldi R24,4
 14CE 8883              std y+0,R24
 14D0 22E0              ldi R18,2
 14D2 03E0              ldi R16,3
 14D4 0E940000          xcall _Set_White_off
 14D8                   .dbline 769
 14D8           ;                     Set_White(9,2,10);
 14D8 8AE0              ldi R24,10
 14DA 8883              std y+0,R24
 14DC 22E0              ldi R18,2
 14DE 09E0              ldi R16,9
 14E0 0E940000          xcall _Set_White
 14E4                   .dbline 770
 14E4           ;                         cur=1;
 14E4 41E0              ldi R20,1
 14E6 50E0              ldi R21,0
 14E8                   .dbline 771
 14E8           ;                  }
 14E8                   .dbline 772
 14E8           ;                 break;
 14E8 30C0              xjmp L332
 14EA           L340:
 14EA                   .dbline 775
 14EA           ;               case 't':
 14EA           ;                 //执行相关操作          
 14EA           ;                 if(cur==0){
 14EA 4030              cpi R20,0
 14EC 4507              cpc R20,R21
 14EE 69F4              brne L341
 14F0           X187:
 14F0                   .dbline 775
 14F0                   .dbline 776
 14F0           ;                    Set_White_off(3,2,4);
 14F0 84E0              ldi R24,4
 14F2 8883              std y+0,R24
 14F4 22E0              ldi R18,2
 14F6 03E0              ldi R16,3
 14F8 0E940000          xcall _Set_White_off
 14FC                   .dbline 779
 14FC           ;                        
 14FC           ;                      //进入重置画面。在Page9启动看门狗重置系统、不喂狗
 14FC           ;                      pageNum=9;
 14FC 89E0              ldi R24,9
 14FE 90E0              ldi R25,0
 1500 90930100          sts _pageNum+1,R25
 1504 80930000          sts _pageNum,R24
 1508                   .dbline 780
 1508           ;                 }else {
 1508 21C0              xjmp L325
 150A           L341:
 150A                   .dbline 780
 150A                   .dbline 781
 150A           ;                     Set_White_off(9,2,10);
 150A 8AE0              ldi R24,10
 150C 8883              std y+0,R24
 150E 22E0              ldi R18,2
 1510 09E0              ldi R16,9
 1512 0E940000          xcall _Set_White_off
 1516                   .dbline 782
 1516           ;                      pageNum=5;
 1516 85E0              ldi R24,5
 1518 90E0              ldi R25,0
 151A 90930100          sts _pageNum+1,R25
 151E 80930000          sts _pageNum,R24
 1522                   .dbline 783
 1522           ;                 }
 1522                   .dbline 784
 1522           ;                 return;
 1522 14C0              xjmp L325
 1524           L343:
 1524                   .dbline 786
 1524           ;                case 'e':
 1524           ;                   Set_White_off(3,2,4);
 1524 84E0              ldi R24,4
 1526 8883              std y+0,R24
 1528 22E0              ldi R18,2
 152A 03E0              ldi R16,3
 152C 0E940000          xcall _Set_White_off
 1530                   .dbline 787
 1530           ;                   Set_White_off(9,2,10);
 1530 8AE0              ldi R24,10
 1532 8883              std y+0,R24
 1534 22E0              ldi R18,2
 1536 09E0              ldi R16,9
 1538 0E940000          xcall _Set_White_off
 153C                   .dbline 788
 153C           ;                   pageNum=5;
 153C 85E0              ldi R24,5
 153E 90E0              ldi R25,0
 1540 90930100          sts _pageNum+1,R25
 1544 80930000          sts _pageNum,R24
 1548                   .dbline 789
 1548           ;                   return;
 1548 01C0              xjmp L325
 154A           L331:
 154A           L332:
 154A                   .dbline 791
 154A           ;         }
 154A           ;       }
 154A           L329:
 154A                   .dbline 756
 154A 8BCF              xjmp L328
 154C           X188:
 154C                   .dbline -2
 154C           L325:
 154C                   .dbline 0 ; func end
 154C 2296              adiw R28,2
 154E 0C940000          xjmp pop_xgsetF00C
 1552                   .dbsym r cur 20 i
 1552                   .dbsym r keyV 10 c
 1552                   .dbend
                        .area data(ram, con, rel)
 0000                   .dbfile E:\ICCDemo\Temp_Control\temp_control\pages.c
 0000           L347:
 0000                   .blkb 2
                        .area idata
 0000 0100              .word 1
                        .area data(ram, con, rel)
 0002                   .dbfile E:\ICCDemo\Temp_Control\temp_control\pages.c
 0002                   .blkb 2
                        .area idata
 0002 0200              .word 2
                        .area data(ram, con, rel)
 0004                   .dbfile E:\ICCDemo\Temp_Control\temp_control\pages.c
 0004                   .blkb 2
                        .area idata
 0004 0300              .word 3
                        .area data(ram, con, rel)
 0006                   .dbfile E:\ICCDemo\Temp_Control\temp_control\pages.c
 0006                   .blkb 2
                        .area idata
 0006 0400              .word 4
                        .area data(ram, con, rel)
 0008                   .dbfile E:\ICCDemo\Temp_Control\temp_control\pages.c
 0008                   .blkb 2
                        .area idata
 0008 0600              .word 6
                        .area data(ram, con, rel)
 000A                   .dbfile E:\ICCDemo\Temp_Control\temp_control\pages.c
 000A                   .blkb 2
                        .area idata
 000A 0700              .word 7
                        .area data(ram, con, rel)
 000C                   .dbfile E:\ICCDemo\Temp_Control\temp_control\pages.c
 000C                   .blkb 2
                        .area idata
 000C 0900              .word 9
                        .area data(ram, con, rel)
 000E                   .dbfile E:\ICCDemo\Temp_Control\temp_control\pages.c
 000E                   .blkb 2
                        .area idata
 000E 0A00              .word 10
                        .area data(ram, con, rel)
 0010                   .dbfile E:\ICCDemo\Temp_Control\temp_control\pages.c
 0010                   .blkb 2
                        .area idata
 0010 0200              .word 2
                        .area data(ram, con, rel)
 0012                   .dbfile E:\ICCDemo\Temp_Control\temp_control\pages.c
 0012                   .blkb 2
                        .area idata
 0012 0300              .word 3
                        .area data(ram, con, rel)
 0014                   .dbfile E:\ICCDemo\Temp_Control\temp_control\pages.c
 0014                   .blkb 2
                        .area idata
 0014 0500              .word 5
                        .area data(ram, con, rel)
 0016                   .dbfile E:\ICCDemo\Temp_Control\temp_control\pages.c
 0016                   .blkb 2
                        .area idata
 0016 0600              .word 6
                        .area data(ram, con, rel)
 0018                   .dbfile E:\ICCDemo\Temp_Control\temp_control\pages.c
 0018                   .blkb 2
                        .area idata
 0018 0800              .word 8
                        .area data(ram, con, rel)
 001A                   .dbfile E:\ICCDemo\Temp_Control\temp_control\pages.c
 001A                   .blkb 2
                        .area idata
 001A 0900              .word 9
                        .area data(ram, con, rel)
 001C                   .dbfile E:\ICCDemo\Temp_Control\temp_control\pages.c
                        .area text(rom, con, rel)
 1552                   .dbfile E:\ICCDemo\Temp_Control\temp_control\pages.c
 1552                   .dbfunc e page8 _page8 fV
 1552           ;         dateAc -> y+17
 1552           ;           keyV -> R22
 1552           ;            cur -> R20,R21
 1552           ;           date -> y+2
 1552           ;              i -> R22,R23
                        .even
 1552           _page8::
 1552 0E940000          xcall push_xgsetF000
 1556 AD97              sbiw R28,45
 1558                   .dbline -1
 1558                   .dbline 794
 1558           ;  }
 1558           ;  //由于使用DS1307，暂时不做读取和保存时间的。等实时时钟模块买来
 1558           ;  void page8(void){
 1558                   .dbline 795
 1558           ;    uint cur=0;
 1558 4427              clr R20
 155A 5527              clr R21
 155C                   .dbline 799
 155C           ;    uchar keyV;
 155C           ;    uchar date[15];
 155C           ;    uint i;
 155C           ;     uint dateAc[14]={1,2,3,4,6,7,9,10,2,3,5,6,8,9};
 155C 80E0              ldi R24,<L347
 155E 90E0              ldi R25,>L347
 1560 FE01              movw R30,R28
 1562 7196              adiw R30,17
 1564 0CE1              ldi R16,28
 1566 10E0              ldi R17,0
 1568 FA93              st -y,R31
 156A EA93              st -y,R30
 156C 9A93              st -y,R25
 156E 8A93              st -y,R24
 1570 0E940000          xcall asgnblk
 1574                   .dbline 801
 1574           ;       
 1574           ;    date[0]=2;
 1574 82E0              ldi R24,2
 1576 8A83              std y+2,R24
 1578                   .dbline 802
 1578           ;    date[1]=0;
 1578 2224              clr R2
 157A 2B82              std y+3,R2
 157C                   .dbline 803
 157C           ;    date[2]=1;
 157C 81E0              ldi R24,1
 157E 8C83              std y+4,R24
 1580                   .dbline 804
 1580           ;    date[3]=5;
 1580 85E0              ldi R24,5
 1582 8D83              std y+5,R24
 1584                   .dbline 805
 1584           ;    date[4]=1;
 1584 81E0              ldi R24,1
 1586 8E83              std y+6,R24
 1588                   .dbline 806
 1588           ;    date[5]=2;
 1588 82E0              ldi R24,2
 158A 8F83              std y+7,R24
 158C                   .dbline 807
 158C           ;    date[6]=2;
 158C 8887              std y+8,R24
 158E                   .dbline 808
 158E           ;    date[7]=5;
 158E 85E0              ldi R24,5
 1590 8987              std y+9,R24
 1592                   .dbline 809
 1592           ;    date[8]=1;
 1592 81E0              ldi R24,1
 1594 8A87              std y+10,R24
 1596                   .dbline 810
 1596           ;    date[9]=2;
 1596 82E0              ldi R24,2
 1598 8B87              std y+11,R24
 159A                   .dbline 811
 159A           ;    date[10]=3;
 159A 83E0              ldi R24,3
 159C 8C87              std y+12,R24
 159E                   .dbline 812
 159E           ;    date[11]=0;
 159E 2D86              std y+13,R2
 15A0                   .dbline 813
 15A0           ;    date[12]=5;
 15A0 85E0              ldi R24,5
 15A2 8E87              std y+14,R24
 15A4                   .dbline 814
 15A4           ;    date[13]=0;
 15A4 2F86              std y+15,R2
 15A6                   .dbline 815
 15A6           ;     lcd_write_pos(1,0);
 15A6 2227              clr R18
 15A8 01E0              ldi R16,1
 15AA 0E940000          xcall _lcd_write_pos
 15AE                   .dbline 816
 15AE           ;   for(i=0;i<8;i++){
 15AE 6627              clr R22
 15B0 7727              clr R23
 15B2 1DC0              xjmp L364
 15B4           L361:
 15B4                   .dbline 816
 15B4                   .dbline 817
 15B4           ;    lcd_write_char_con(0,0x30 | date[i]);
 15B4 CE01              movw R24,R28
 15B6 0296              adiw R24,2
 15B8 FB01              movw R30,R22
 15BA E80F              add R30,R24
 15BC F91F              adc R31,R25
 15BE 2081              ldd R18,z+0
 15C0 2063              ori R18,48
 15C2 0027              clr R16
 15C4 0E940000          xcall _lcd_write_char_con
 15C8                   .dbline 818
 15C8           ;     lcd_write_char_con(0,' ');
 15C8 20E2              ldi R18,32
 15CA 0027              clr R16
 15CC 0E940000          xcall _lcd_write_char_con
 15D0                   .dbline 819
 15D0           ;       if(i==3 || i==5){
 15D0 6330              cpi R22,3
 15D2 E0E0              ldi R30,0
 15D4 7E07              cpc R23,R30
 15D6 21F0              breq L367
 15D8           X192:
 15D8 6530              cpi R22,5
 15DA E0E0              ldi R30,0
 15DC 7E07              cpc R23,R30
 15DE 29F4              brne L365
 15E0           X193:
 15E0           L367:
 15E0                   .dbline 819
 15E0                   .dbline 820
 15E0           ;         lcd_write_str_con(0,"- ");
 15E0 20E0              ldi R18,<L368
 15E2 30E0              ldi R19,>L368
 15E4 0027              clr R16
 15E6 0E940000          xcall _lcd_write_str_con
 15EA                   .dbline 821
 15EA           ;       }
 15EA           L365:
 15EA                   .dbline 822
 15EA           ;   }
 15EA           L362:
 15EA                   .dbline 816
 15EA 6F5F              subi R22,255  ; offset = 1
 15EC 7F4F              sbci R23,255
 15EE           L364:
 15EE                   .dbline 816
 15EE 6830              cpi R22,8
 15F0 E0E0              ldi R30,0
 15F2 7E07              cpc R23,R30
 15F4 F8F2              brlo L361
 15F6           X194:
 15F6                   .dbline 823
 15F6           ;    lcd_write_pos(2,1);
 15F6 21E0              ldi R18,1
 15F8 02E0              ldi R16,2
 15FA 0E940000          xcall _lcd_write_pos
 15FE                   .dbline 824
 15FE           ;    for(i=8;i<14;i++){
 15FE 68E0              ldi R22,8
 1600 70E0              ldi R23,0
 1602 1DC0              xjmp L372
 1604           L369:
 1604                   .dbline 824
 1604                   .dbline 825
 1604           ;    lcd_write_char_con(1,0x30 | date[i]);
 1604 CE01              movw R24,R28
 1606 0296              adiw R24,2
 1608 FB01              movw R30,R22
 160A E80F              add R30,R24
 160C F91F              adc R31,R25
 160E 2081              ldd R18,z+0
 1610 2063              ori R18,48
 1612 01E0              ldi R16,1
 1614 0E940000          xcall _lcd_write_char_con
 1618                   .dbline 826
 1618           ;    lcd_write_char_con(0,' ');
 1618 20E2              ldi R18,32
 161A 0027              clr R16
 161C 0E940000          xcall _lcd_write_char_con
 1620                   .dbline 827
 1620           ;    if(i==9 || i==11){
 1620 6930              cpi R22,9
 1622 E0E0              ldi R30,0
 1624 7E07              cpc R23,R30
 1626 21F0              breq L375
 1628           X195:
 1628 6B30              cpi R22,11
 162A E0E0              ldi R30,0
 162C 7E07              cpc R23,R30
 162E 29F4              brne L373
 1630           X196:
 1630           L375:
 1630                   .dbline 827
 1630                   .dbline 828
 1630           ;        lcd_write_str_con(0,": ");
 1630 20E0              ldi R18,<L376
 1632 30E0              ldi R19,>L376
 1634 0027              clr R16
 1636 0E940000          xcall _lcd_write_str_con
 163A                   .dbline 829
 163A           ;    }
 163A           L373:
 163A                   .dbline 830
 163A           ;   } 
 163A           L370:
 163A                   .dbline 824
 163A 6F5F              subi R22,255  ; offset = 1
 163C 7F4F              sbci R23,255
 163E           L372:
 163E                   .dbline 824
 163E 6E30              cpi R22,14
 1640 E0E0              ldi R30,0
 1642 7E07              cpc R23,R30
 1644 F8F2              brlo L369
 1646           X197:
 1646                   .dbline 831
 1646           ;    lcd_write_str(3,2,"保存");
 1646 80E0              ldi R24,<L221
 1648 90E0              ldi R25,>L221
 164A 9983              std y+1,R25
 164C 8883              std y+0,R24
 164E 22E0              ldi R18,2
 1650 03E0              ldi R16,3
 1652 0E940000          xcall _lcd_write_str
 1656                   .dbline 832
 1656           ;    lcd_write_str(8,2,"取消");
 1656 80E0              ldi R24,<L112
 1658 90E0              ldi R25,>L112
 165A 9983              std y+1,R25
 165C 8883              std y+0,R24
 165E 22E0              ldi R18,2
 1660 08E0              ldi R16,8
 1662 0E940000          xcall _lcd_write_str
 1666                   .dbline 835
 1666           ;    //初始化date
 1666           ;   
 1666           ;    cur=0;
 1666 4427              clr R20
 1668 5527              clr R21
 166A                   .dbline 836
 166A           ;    lcd_write_pos(1,0);//初始游标位置
 166A 2227              clr R18
 166C 01E0              ldi R16,1
 166E 0E940000          xcall _lcd_write_pos
 1672                   .dbline 837
 1672           ;    cur_set(3);//上半屏幕游标设置
 1672 03E0              ldi R16,3
 1674 10E0              ldi R17,0
 1676 0E940000          xcall _cur_set
 167A 8AC1              xjmp L378
 167C           L377:
 167C                   .dbline 838
 167C           ;    while(1){
 167C                   .dbline 839
 167C           ;      pageTime(3);//
 167C 03E0              ldi R16,3
 167E 10E0              ldi R17,0
 1680 0E940000          xcall _pageTime
 1684                   .dbline 840
 1684           ;        keyV=KeyScan_once();
 1684 0E940000          xcall _KeyScan_once
 1688 602F              mov R22,R16
 168A                   .dbline 841
 168A           ;        if(keyV=='u'){
 168A 0537              cpi R16,117
 168C 71F5              brne L380
 168E           X198:
 168E                   .dbline 841
 168E                   .dbline 842
 168E           ;          if(cur>13){//调到时间第一个
 168E 8DE0              ldi R24,13
 1690 90E0              ldi R25,0
 1692 8417              cp R24,R20
 1694 9507              cpc R25,R21
 1696 B8F4              brsh L382
 1698           X199:
 1698                   .dbline 842
 1698                   .dbline 843
 1698           ;               Set_White_off(4,2,5);
 1698 85E0              ldi R24,5
 169A 8883              std y+0,R24
 169C 22E0              ldi R18,2
 169E 04E0              ldi R16,4
 16A0 0E940000          xcall _Set_White_off
 16A4                   .dbline 844
 16A4           ;                       Set_White_off(9,2,10);
 16A4 8AE0              ldi R24,10
 16A6 8883              std y+0,R24
 16A8 22E0              ldi R18,2
 16AA 09E0              ldi R16,9
 16AC 0E940000          xcall _Set_White_off
 16B0                   .dbline 845
 16B0           ;               lcd_write_pos(2,1);
 16B0 21E0              ldi R18,1
 16B2 02E0              ldi R16,2
 16B4 0E940000          xcall _lcd_write_pos
 16B8                   .dbline 846
 16B8           ;                   cur_set(3);
 16B8 03E0              ldi R16,3
 16BA 10E0              ldi R17,0
 16BC 0E940000          xcall _cur_set
 16C0                   .dbline 847
 16C0           ;                       cur=8; 
 16C0 48E0              ldi R20,8
 16C2 50E0              ldi R21,0
 16C4                   .dbline 848
 16C4           ;                  }else if(cur>7 && cur <14){//调到日期第一个
 16C4 65C1              xjmp L381
 16C6           L382:
 16C6                   .dbline 848
 16C6 87E0              ldi R24,7
 16C8 90E0              ldi R25,0
 16CA 8417              cp R24,R20
 16CC 9507              cpc R25,R21
 16CE 08F0              brlo X238
 16D0 5FC1              xjmp L381
 16D2           X238:
 16D2           X200:
 16D2 4E30              cpi R20,14
 16D4 E0E0              ldi R30,0
 16D6 5E07              cpc R21,R30
 16D8 08F0              brlo X239
 16DA 5AC1              xjmp L381
 16DC           X239:
 16DC           X201:
 16DC                   .dbline 848
 16DC                   .dbline 849
 16DC           ;                   lcd_write_pos(1,0);
 16DC 2227              clr R18
 16DE 01E0              ldi R16,1
 16E0 0E940000          xcall _lcd_write_pos
 16E4                   .dbline 850
 16E4           ;                       cur=0; 
 16E4 4427              clr R20
 16E6 5527              clr R21
 16E8                   .dbline 851
 16E8           ;                  }
 16E8                   .dbline 852
 16E8           ;        }else if(keyV=='d'){
 16E8 53C1              xjmp L381
 16EA           L380:
 16EA                   .dbline 852
 16EA 6436              cpi R22,100
 16EC 19F5              brne L386
 16EE           X202:
 16EE                   .dbline 852
 16EE                   .dbline 853
 16EE           ;            if(cur>7 && cur <14){//在时间上，第三行，默认要保存，所以调到保存上
 16EE 87E0              ldi R24,7
 16F0 90E0              ldi R25,0
 16F2 8417              cp R24,R20
 16F4 9507              cpc R25,R21
 16F6 88F4              brsh L388
 16F8           X203:
 16F8 4E30              cpi R20,14
 16FA E0E0              ldi R30,0
 16FC 5E07              cpc R21,R30
 16FE 68F4              brsh L388
 1700           X204:
 1700                   .dbline 853
 1700                   .dbline 854
 1700           ;                     cur_set(0);//关下半屏幕游标
 1700 0027              clr R16
 1702 1127              clr R17
 1704 0E940000          xcall _cur_set
 1708                   .dbline 855
 1708           ;                         Set_White(4,2,5);
 1708 85E0              ldi R24,5
 170A 8883              std y+0,R24
 170C 22E0              ldi R18,2
 170E 04E0              ldi R16,4
 1710 0E940000          xcall _Set_White
 1714                   .dbline 856
 1714           ;                         cur=14;
 1714 4EE0              ldi R20,14
 1716 50E0              ldi R21,0
 1718                   .dbline 857
 1718           ;                }else if(cur<=7){ //调到时间第一个
 1718 3BC1              xjmp L387
 171A           L388:
 171A                   .dbline 857
 171A 87E0              ldi R24,7
 171C 90E0              ldi R25,0
 171E 8417              cp R24,R20
 1720 9507              cpc R25,R21
 1722 08F4              brsh X240
 1724 35C1              xjmp L387
 1726           X240:
 1726           X205:
 1726                   .dbline 857
 1726                   .dbline 858
 1726           ;                   lcd_write_pos(2,1);
 1726 21E0              ldi R18,1
 1728 02E0              ldi R16,2
 172A 0E940000          xcall _lcd_write_pos
 172E                   .dbline 859
 172E           ;                       cur=8; 
 172E 48E0              ldi R20,8
 1730 50E0              ldi R21,0
 1732                   .dbline 860
 1732           ;                }
 1732                   .dbline 861
 1732           ;        }else if(keyV=='l'){
 1732 2EC1              xjmp L387
 1734           L386:
 1734                   .dbline 861
 1734 6C36              cpi R22,108
 1736 09F0              breq X241
 1738 43C0              xjmp L392
 173A           X241:
 173A           X206:
 173A                   .dbline 861
 173A                   .dbline 862
 173A           ;                       if(cur<=8 && cur>0){
 173A 88E0              ldi R24,8
 173C 90E0              ldi R25,0
 173E 8417              cp R24,R20
 1740 9507              cpc R25,R21
 1742 90F0              brlo L394
 1744           X207:
 1744 4030              cpi R20,0
 1746 4507              cpc R20,R21
 1748 79F0              breq L394
 174A           X208:
 174A                   .dbline 862
 174A                   .dbline 863
 174A           ;                        cur--;
 174A 4150              subi R20,1
 174C 5040              sbci R21,0
 174E                   .dbline 864
 174E           ;                        lcd_write_pos(dateAc[cur],0);
 174E 2227              clr R18
 1750 CE01              movw R24,R28
 1752 4196              adiw R24,17
 1754 FA01              movw R30,R20
 1756 EE0F              lsl R30
 1758 FF1F              rol R31
 175A E80F              add R30,R24
 175C F91F              adc R31,R25
 175E 0081              ldd R16,z+0
 1760 1181              ldd R17,z+1
 1762 0E940000          xcall _lcd_write_pos
 1766                   .dbline 865
 1766           ;                       }else if (cur>8 && cur<14){
 1766 14C1              xjmp L393
 1768           L394:
 1768                   .dbline 865
 1768 88E0              ldi R24,8
 176A 90E0              ldi R25,0
 176C 8417              cp R24,R20
 176E 9507              cpc R25,R21
 1770 98F4              brsh L396
 1772           X209:
 1772 4E30              cpi R20,14
 1774 E0E0              ldi R30,0
 1776 5E07              cpc R21,R30
 1778 78F4              brsh L396
 177A           X210:
 177A                   .dbline 865
 177A                   .dbline 866
 177A           ;                        cur--;
 177A 4150              subi R20,1
 177C 5040              sbci R21,0
 177E                   .dbline 867
 177E           ;                        lcd_write_pos(dateAc[cur],1);
 177E 21E0              ldi R18,1
 1780 CE01              movw R24,R28
 1782 4196              adiw R24,17
 1784 FA01              movw R30,R20
 1786 EE0F              lsl R30
 1788 FF1F              rol R31
 178A E80F              add R30,R24
 178C F91F              adc R31,R25
 178E 0081              ldd R16,z+0
 1790 1181              ldd R17,z+1
 1792 0E940000          xcall _lcd_write_pos
 1796                   .dbline 868
 1796           ;                       }else if (cur==15){
 1796 FCC0              xjmp L393
 1798           L396:
 1798                   .dbline 868
 1798 4F30              cpi R20,15
 179A E0E0              ldi R30,0
 179C 5E07              cpc R21,R30
 179E 09F0              breq X242
 17A0 F7C0              xjmp L393
 17A2           X242:
 17A2           X211:
 17A2                   .dbline 868
 17A2                   .dbline 869
 17A2           ;                           Set_White_off(9,2,10);
 17A2 8AE0              ldi R24,10
 17A4 8883              std y+0,R24
 17A6 22E0              ldi R18,2
 17A8 09E0              ldi R16,9
 17AA 0E940000          xcall _Set_White_off
 17AE                   .dbline 870
 17AE           ;                           Set_White(4,2,5);
 17AE 85E0              ldi R24,5
 17B0 8883              std y+0,R24
 17B2 22E0              ldi R18,2
 17B4 04E0              ldi R16,4
 17B6 0E940000          xcall _Set_White
 17BA                   .dbline 871
 17BA           ;                               cur=14;
 17BA 4EE0              ldi R20,14
 17BC 50E0              ldi R21,0
 17BE                   .dbline 872
 17BE           ;                       }
 17BE                   .dbline 875
 17BE           ;                       
 17BE           ;               
 17BE           ;        }else if(keyV=='r'){
 17BE E8C0              xjmp L393
 17C0           L392:
 17C0                   .dbline 875
 17C0 6237              cpi R22,114
 17C2 09F0              breq X243
 17C4 3AC0              xjmp L400
 17C6           X243:
 17C6           X212:
 17C6                   .dbline 875
 17C6                   .dbline 876
 17C6           ;              if(cur<7){
 17C6 4730              cpi R20,7
 17C8 E0E0              ldi R30,0
 17CA 5E07              cpc R21,R30
 17CC 78F4              brsh L402
 17CE           X213:
 17CE                   .dbline 876
 17CE                   .dbline 877
 17CE           ;                          cur++;
 17CE 4F5F              subi R20,255  ; offset = 1
 17D0 5F4F              sbci R21,255
 17D2                   .dbline 878
 17D2           ;                          lcd_write_pos(dateAc[cur],0);
 17D2 2227              clr R18
 17D4 CE01              movw R24,R28
 17D6 4196              adiw R24,17
 17D8 FA01              movw R30,R20
 17DA EE0F              lsl R30
 17DC FF1F              rol R31
 17DE E80F              add R30,R24
 17E0 F91F              adc R31,R25
 17E2 0081              ldd R16,z+0
 17E4 1181              ldd R17,z+1
 17E6 0E940000          xcall _lcd_write_pos
 17EA                   .dbline 879
 17EA           ;                       }else if (cur<13){
 17EA D2C0              xjmp L401
 17EC           L402:
 17EC                   .dbline 879
 17EC 4D30              cpi R20,13
 17EE E0E0              ldi R30,0
 17F0 5E07              cpc R21,R30
 17F2 78F4              brsh L404
 17F4           X214:
 17F4                   .dbline 879
 17F4                   .dbline 880
 17F4           ;                          cur++;
 17F4 4F5F              subi R20,255  ; offset = 1
 17F6 5F4F              sbci R21,255
 17F8                   .dbline 881
 17F8           ;                          lcd_write_pos(dateAc[cur],1);
 17F8 21E0              ldi R18,1
 17FA CE01              movw R24,R28
 17FC 4196              adiw R24,17
 17FE FA01              movw R30,R20
 1800 EE0F              lsl R30
 1802 FF1F              rol R31
 1804 E80F              add R30,R24
 1806 F91F              adc R31,R25
 1808 0081              ldd R16,z+0
 180A 1181              ldd R17,z+1
 180C 0E940000          xcall _lcd_write_pos
 1810                   .dbline 882
 1810           ;                       }else if (cur==14){
 1810 BFC0              xjmp L401
 1812           L404:
 1812                   .dbline 882
 1812 4E30              cpi R20,14
 1814 E0E0              ldi R30,0
 1816 5E07              cpc R21,R30
 1818 09F0              breq X244
 181A BAC0              xjmp L401
 181C           X244:
 181C           X215:
 181C                   .dbline 882
 181C                   .dbline 883
 181C           ;                           Set_White_off(4,2,5);
 181C 85E0              ldi R24,5
 181E 8883              std y+0,R24
 1820 22E0              ldi R18,2
 1822 04E0              ldi R16,4
 1824 0E940000          xcall _Set_White_off
 1828                   .dbline 884
 1828           ;                               Set_White(9,2,10);
 1828 8AE0              ldi R24,10
 182A 8883              std y+0,R24
 182C 22E0              ldi R18,2
 182E 09E0              ldi R16,9
 1830 0E940000          xcall _Set_White
 1834                   .dbline 885
 1834           ;                               cur=15;
 1834 4FE0              ldi R20,15
 1836 50E0              ldi R21,0
 1838                   .dbline 886
 1838           ;                       }
 1838                   .dbline 887
 1838           ;        }else if(keyV=='e'){
 1838 ABC0              xjmp L401
 183A           L400:
 183A                   .dbline 887
 183A 6536              cpi R22,101
 183C B9F4              brne L408
 183E           X216:
 183E                   .dbline 887
 183E                   .dbline 888
 183E           ;            cur_set(0);//关上半屏幕游标
 183E 0027              clr R16
 1840 1127              clr R17
 1842 0E940000          xcall _cur_set
 1846                   .dbline 889
 1846           ;                 Set_White_off(4,2,5);
 1846 85E0              ldi R24,5
 1848 8883              std y+0,R24
 184A 22E0              ldi R18,2
 184C 04E0              ldi R16,4
 184E 0E940000          xcall _Set_White_off
 1852                   .dbline 890
 1852           ;                 Set_White_off(9,2,10);
 1852 8AE0              ldi R24,10
 1854 8883              std y+0,R24
 1856 22E0              ldi R18,2
 1858 09E0              ldi R16,9
 185A 0E940000          xcall _Set_White_off
 185E                   .dbline 891
 185E           ;                pageNum=1;
 185E 81E0              ldi R24,1
 1860 90E0              ldi R25,0
 1862 90930100          sts _pageNum+1,R25
 1866 80930000          sts _pageNum,R24
 186A                   .dbline 892
 186A           ;                return;
 186A 93C0              xjmp L346
 186C           L408:
 186C                   .dbline 894
 186C           ;            //退出界面
 186C           ;        }else if(keyV=='t'){
 186C 6437              cpi R22,116
 186E 91F5              brne L410
 1870           X217:
 1870                   .dbline 894
 1870                   .dbline 895
 1870           ;             if(cur==14){
 1870 4E30              cpi R20,14
 1872 E0E0              ldi R30,0
 1874 5E07              cpc R21,R30
 1876 91F4              brne L412
 1878           X218:
 1878                   .dbline 895
 1878                   .dbline 897
 1878           ;                       //保存操作
 1878           ;                               pageParam[1]=0;//标记是时间的保存
 1878 2224              clr R2
 187A 3324              clr R3
 187C 30920300          sts _pageParam+2+1,R3
 1880 20920200          sts _pageParam+2,R2
 1884                   .dbline 898
 1884           ;                               prePageNum=8;
 1884 88E0              ldi R24,8
 1886 90E0              ldi R25,0
 1888 90930100          sts _prePageNum+1,R25
 188C 80930000          sts _prePageNum,R24
 1890                   .dbline 899
 1890           ;                               pageNum=6;
 1890 86E0              ldi R24,6
 1892 90930100          sts _pageNum+1,R25
 1896 80930000          sts _pageNum,R24
 189A                   .dbline 900
 189A           ;                               return;
 189A 7BC0              xjmp L346
 189C           L412:
 189C                   .dbline 901
 189C           ;                }else if(cur==15){
 189C 4F30              cpi R20,15
 189E E0E0              ldi R30,0
 18A0 5E07              cpc R21,R30
 18A2 09F0              breq X245
 18A4 75C0              xjmp L411
 18A6           X245:
 18A6           X219:
 18A6                   .dbline 901
 18A6                   .dbline 903
 18A6           ;                       //取消操作
 18A6           ;                        cur_set(0);//关上半屏幕游标
 18A6 0027              clr R16
 18A8 1127              clr R17
 18AA 0E940000          xcall _cur_set
 18AE                   .dbline 904
 18AE           ;                 Set_White_off(4,2,5);
 18AE 85E0              ldi R24,5
 18B0 8883              std y+0,R24
 18B2 22E0              ldi R18,2
 18B4 04E0              ldi R16,4
 18B6 0E940000          xcall _Set_White_off
 18BA                   .dbline 905
 18BA           ;                 Set_White_off(9,2,10);
 18BA 8AE0              ldi R24,10
 18BC 8883              std y+0,R24
 18BE 22E0              ldi R18,2
 18C0 09E0              ldi R16,9
 18C2 0E940000          xcall _Set_White_off
 18C6                   .dbline 906
 18C6           ;                pageNum=1;
 18C6 81E0              ldi R24,1
 18C8 90E0              ldi R25,0
 18CA 90930100          sts _pageNum+1,R25
 18CE 80930000          sts _pageNum,R24
 18D2                   .dbline 907
 18D2           ;                return;
 18D2 5FC0              xjmp L346
 18D4           L410:
 18D4                   .dbline 909
 18D4           ;                }
 18D4           ;        }else if(keyV=='0' || keyV=='1' || keyV=='2' || keyV=='3' || keyV=='4' || keyV=='5' 
 18D4 6033              cpi R22,48
 18D6 99F0              breq L427
 18D8           X220:
 18D8 6133              cpi R22,49
 18DA 89F0              breq L427
 18DC           X221:
 18DC 6233              cpi R22,50
 18DE 79F0              breq L427
 18E0           X222:
 18E0 6333              cpi R22,51
 18E2 69F0              breq L427
 18E4           X223:
 18E4 6433              cpi R22,52
 18E6 59F0              breq L427
 18E8           X224:
 18E8 6533              cpi R22,53
 18EA 49F0              breq L427
 18EC           X225:
 18EC 6633              cpi R22,54
 18EE 39F0              breq L427
 18F0           X226:
 18F0 6733              cpi R22,55
 18F2 29F0              breq L427
 18F4           X227:
 18F4 6833              cpi R22,56
 18F6 19F0              breq L427
 18F8           X228:
 18F8 6933              cpi R22,57
 18FA 09F0              breq X246
 18FC 49C0              xjmp L417
 18FE           X246:
 18FE           X229:
 18FE           L427:
 18FE                   .dbline 910
 18FE           ;                  || keyV=='6'  || keyV=='7' || keyV=='8' || keyV=='9'){
 18FE                   .dbline 911
 18FE           ;                       if(cur<14){
 18FE 4E30              cpi R20,14
 1900 E0E0              ldi R30,0
 1902 5E07              cpc R21,R30
 1904 08F0              brlo X247
 1906 44C0              xjmp L428
 1908           X247:
 1908           X230:
 1908                   .dbline 911
 1908                   .dbline 912
 1908           ;                        lcd_write_char_con(0,0x30 | keyV);
 1908 262F              mov R18,R22
 190A 2063              ori R18,48
 190C 0027              clr R16
 190E 0E940000          xcall _lcd_write_char_con
 1912                   .dbline 913
 1912           ;                        lcd_write_char_con(0,' ');
 1912 20E2              ldi R18,32
 1914 0027              clr R16
 1916 0E940000          xcall _lcd_write_char_con
 191A                   .dbline 914
 191A           ;                        date[cur]=keyV;
 191A CE01              movw R24,R28
 191C 0296              adiw R24,2
 191E FA01              movw R30,R20
 1920 E80F              add R30,R24
 1922 F91F              adc R31,R25
 1924 6083              std z+0,R22
 1926                   .dbline 915
 1926           ;                         if(cur==3 || cur==5){
 1926 4330              cpi R20,3
 1928 E0E0              ldi R30,0
 192A 5E07              cpc R21,R30
 192C 21F0              breq L432
 192E           X231:
 192E 4530              cpi R20,5
 1930 E0E0              ldi R30,0
 1932 5E07              cpc R21,R30
 1934 31F4              brne L430
 1936           X232:
 1936           L432:
 1936                   .dbline 915
 1936                   .dbline 916
 1936           ;                           lcd_write_str_con(0,"- ");
 1936 20E0              ldi R18,<L368
 1938 30E0              ldi R19,>L368
 193A 0027              clr R16
 193C 0E940000          xcall _lcd_write_str_con
 1940                   .dbline 917
 1940           ;                        }else if(cur==9 || cur==11){
 1940 0DC0              xjmp L431
 1942           L430:
 1942                   .dbline 917
 1942 4930              cpi R20,9
 1944 E0E0              ldi R30,0
 1946 5E07              cpc R21,R30
 1948 21F0              breq L435
 194A           X233:
 194A 4B30              cpi R20,11
 194C E0E0              ldi R30,0
 194E 5E07              cpc R21,R30
 1950 29F4              brne L433
 1952           X234:
 1952           L435:
 1952                   .dbline 917
 1952                   .dbline 918
 1952           ;                           lcd_write_str_con(0,": ");
 1952 20E0              ldi R18,<L376
 1954 30E0              ldi R19,>L376
 1956 0027              clr R16
 1958 0E940000          xcall _lcd_write_str_con
 195C                   .dbline 919
 195C           ;                        }
 195C           L433:
 195C           L431:
 195C                   .dbline 920
 195C           ;                        cur++;
 195C 4F5F              subi R20,255  ; offset = 1
 195E 5F4F              sbci R21,255
 1960                   .dbline 921
 1960           ;                        if(cur==8){
 1960 4830              cpi R20,8
 1962 E0E0              ldi R30,0
 1964 5E07              cpc R21,R30
 1966 31F4              brne L436
 1968           X235:
 1968                   .dbline 921
 1968                   .dbline 922
 1968           ;                           lcd_write_pos(dateAc[8],1);
 1968 21E0              ldi R18,1
 196A 09A1              ldd R16,y+33
 196C 1AA1              ldd R17,y+34
 196E 0E940000          xcall _lcd_write_pos
 1972                   .dbline 923
 1972           ;                        }else if(cur==14){
 1972 0EC0              xjmp L437
 1974           L436:
 1974                   .dbline 923
 1974 4E30              cpi R20,14
 1976 E0E0              ldi R30,0
 1978 5E07              cpc R21,R30
 197A 51F4              brne L439
 197C           X236:
 197C                   .dbline 923
 197C                   .dbline 924
 197C           ;                         cur_set(0);//关下半屏幕游标
 197C 0027              clr R16
 197E 1127              clr R17
 1980 0E940000          xcall _cur_set
 1984                   .dbline 925
 1984           ;                         Set_White(4,2,5);
 1984 85E0              ldi R24,5
 1986 8883              std y+0,R24
 1988 22E0              ldi R18,2
 198A 04E0              ldi R16,4
 198C 0E940000          xcall _Set_White
 1990                   .dbline 926
 1990           ;                        }
 1990           L439:
 1990           L437:
 1990                   .dbline 927
 1990           ;                       }
 1990           L428:
 1990                   .dbline 928
 1990           ;        }
 1990           L417:
 1990           L411:
 1990           L401:
 1990           L393:
 1990           L387:
 1990           L381:
 1990                   .dbline 929
 1990           ;    }
 1990           L378:
 1990                   .dbline 838
 1990 75CE              xjmp L377
 1992           X237:
 1992                   .dbline -2
 1992           L346:
 1992                   .dbline 0 ; func end
 1992 AD96              adiw R28,45
 1994 0C940000          xjmp pop_xgsetF000
 1998                   .dbsym l dateAc 17 A[28:14]i
 1998                   .dbsym r keyV 22 c
 1998                   .dbsym r cur 20 i
 1998                   .dbsym l date 2 A[15:15]c
 1998                   .dbsym r i 22 i
 1998                   .dbend
 1998                   .dbfunc e page9 _page9 fV
                        .even
 1998           _page9::
 1998 2297              sbiw R28,2
 199A                   .dbline -1
 199A                   .dbline 931
 199A           ;  }
 199A           ; void page9(void){//复用的方法
 199A                   .dbline 932
 199A           ;   if(pageParam[2]==0){
 199A 20900400          lds R2,_pageParam+4
 199E 30900500          lds R3,_pageParam+4+1
 19A2 2220              tst R2
 19A4 59F4              brne L442
 19A6 3320              tst R3
 19A8 49F4              brne L442
 19AA           X248:
 19AA                   .dbline 932
 19AA                   .dbline 933
 19AA           ;      lcd_write_str(4,1,"系统重置中。。。");
 19AA 80E0              ldi R24,<L445
 19AC 90E0              ldi R25,>L445
 19AE 9983              std y+1,R25
 19B0 8883              std y+0,R24
 19B2 21E0              ldi R18,1
 19B4 04E0              ldi R16,4
 19B6 0E940000          xcall _lcd_write_str
 19BA                   .dbline 934
 19BA           ;    }else if(pageParam[2]==1){
 19BA 10C0              xjmp L443
 19BC           L442:
 19BC                   .dbline 934
 19BC 80910400          lds R24,_pageParam+4
 19C0 90910500          lds R25,_pageParam+4+1
 19C4 8130              cpi R24,1
 19C6 E0E0              ldi R30,0
 19C8 9E07              cpc R25,R30
 19CA 41F4              brne L446
 19CC           X249:
 19CC                   .dbline 934
 19CC                   .dbline 935
 19CC           ;      lcd_write_str(4,1,"数据重置中。。。");
 19CC 80E0              ldi R24,<L449
 19CE 90E0              ldi R25,>L449
 19D0 9983              std y+1,R25
 19D2 8883              std y+0,R24
 19D4 21E0              ldi R18,1
 19D6 04E0              ldi R16,4
 19D8 0E940000          xcall _lcd_write_str
 19DC                   .dbline 936
 19DC           ;    }
 19DC           L446:
 19DC           L443:
 19DC                   .dbline 937
 19DC           ;    delay_ms(500);
 19DC 04EF              ldi R16,500
 19DE 11E0              ldi R17,1
 19E0 0E940000          xcall _delay_ms
 19E4                   .dbline 938
 19E4           ;    pageNum=prePageNum;
 19E4 20900000          lds R2,_prePageNum
 19E8 30900100          lds R3,_prePageNum+1
 19EC 30920100          sts _pageNum+1,R3
 19F0 20920000          sts _pageNum,R2
 19F4                   .dbline -2
 19F4           L441:
 19F4                   .dbline 0 ; func end
 19F4 2296              adiw R28,2
 19F6 0895              ret
 19F8                   .dbend
 19F8                   .dbfunc e dispatchPages _dispatchPages fV
                        .even
 19F8           _dispatchPages::
 19F8                   .dbline -1
 19F8                   .dbline 941
 19F8           ;  }
 19F8           ; //分发Pages
 19F8           ; void dispatchPages(void){
 19F8                   .dbline 942
 19F8           ;       lcd_clear();//清屏幕
 19F8 0E940000          xcall _lcd_clear
 19FC                   .dbline 943
 19FC           ;       if(pageNum==1){
 19FC 80910000          lds R24,_pageNum
 1A00 90910100          lds R25,_pageNum+1
 1A04 8130              cpi R24,1
 1A06 E0E0              ldi R30,0
 1A08 9E07              cpc R25,R30
 1A0A 19F4              brne L451
 1A0C           X250:
 1A0C                   .dbline 943
 1A0C                   .dbline 944
 1A0C           ;           page1();
 1A0C 0E941C00          xcall _page1
 1A10                   .dbline 945
 1A10           ;         }else if(pageNum==2){
 1A10 51C0              xjmp L452
 1A12           L451:
 1A12                   .dbline 945
 1A12 80910000          lds R24,_pageNum
 1A16 90910100          lds R25,_pageNum+1
 1A1A 8230              cpi R24,2
 1A1C E0E0              ldi R30,0
 1A1E 9E07              cpc R25,R30
 1A20 19F4              brne L453
 1A22           X251:
 1A22                   .dbline 945
 1A22                   .dbline 946
 1A22           ;           page2();
 1A22 0E948D03          xcall _page2
 1A26                   .dbline 947
 1A26           ;         }else if(pageNum==3){
 1A26 46C0              xjmp L454
 1A28           L453:
 1A28                   .dbline 947
 1A28 80910000          lds R24,_pageNum
 1A2C 90910100          lds R25,_pageNum+1
 1A30 8330              cpi R24,3
 1A32 E0E0              ldi R30,0
 1A34 9E07              cpc R25,R30
 1A36 19F4              brne L455
 1A38           X252:
 1A38                   .dbline 947
 1A38                   .dbline 948
 1A38           ;           page3();
 1A38 0E940404          xcall _page3
 1A3C                   .dbline 949
 1A3C           ;         }else if(pageNum==4){
 1A3C 3BC0              xjmp L456
 1A3E           L455:
 1A3E                   .dbline 949
 1A3E 80910000          lds R24,_pageNum
 1A42 90910100          lds R25,_pageNum+1
 1A46 8430              cpi R24,4
 1A48 E0E0              ldi R30,0
 1A4A 9E07              cpc R25,R30
 1A4C 11F4              brne L457
 1A4E           X253:
 1A4E                   .dbline 949
 1A4E                   .dbline 950
 1A4E           ;           page4();
 1A4E CAD9              xcall _page4
 1A50                   .dbline 951
 1A50           ;         }else if(pageNum==5){
 1A50 31C0              xjmp L458
 1A52           L457:
 1A52                   .dbline 951
 1A52 80910000          lds R24,_pageNum
 1A56 90910100          lds R25,_pageNum+1
 1A5A 8530              cpi R24,5
 1A5C E0E0              ldi R30,0
 1A5E 9E07              cpc R25,R30
 1A60 11F4              brne L459
 1A62           X254:
 1A62                   .dbline 951
 1A62                   .dbline 952
 1A62           ;           page5();
 1A62 C4DB              xcall _page5
 1A64                   .dbline 953
 1A64           ;         }else if(pageNum==6){
 1A64 27C0              xjmp L460
 1A66           L459:
 1A66                   .dbline 953
 1A66 80910000          lds R24,_pageNum
 1A6A 90910100          lds R25,_pageNum+1
 1A6E 8630              cpi R24,6
 1A70 E0E0              ldi R30,0
 1A72 9E07              cpc R25,R30
 1A74 11F4              brne L461
 1A76           X255:
 1A76                   .dbline 953
 1A76                   .dbline 954
 1A76           ;           page6();
 1A76 90DC              xcall _page6
 1A78                   .dbline 955
 1A78           ;         }else if(pageNum==7){
 1A78 1DC0              xjmp L462
 1A7A           L461:
 1A7A                   .dbline 955
 1A7A 80910000          lds R24,_pageNum
 1A7E 90910100          lds R25,_pageNum+1
 1A82 8730              cpi R24,7
 1A84 E0E0              ldi R30,0
 1A86 9E07              cpc R25,R30
 1A88 11F4              brne L463
 1A8A           X256:
 1A8A                   .dbline 955
 1A8A                   .dbline 956
 1A8A           ;           page7();
 1A8A C7DC              xcall _page7
 1A8C                   .dbline 957
 1A8C           ;         }else if(pageNum==8){
 1A8C 13C0              xjmp L464
 1A8E           L463:
 1A8E                   .dbline 957
 1A8E 80910000          lds R24,_pageNum
 1A92 90910100          lds R25,_pageNum+1
 1A96 8830              cpi R24,8
 1A98 E0E0              ldi R30,0
 1A9A 9E07              cpc R25,R30
 1A9C 11F4              brne L465
 1A9E           X257:
 1A9E                   .dbline 957
 1A9E                   .dbline 958
 1A9E           ;           page8();
 1A9E 59DD              xcall _page8
 1AA0                   .dbline 959
 1AA0           ;         }else if(pageNum==9){
 1AA0 09C0              xjmp L466
 1AA2           L465:
 1AA2                   .dbline 959
 1AA2 80910000          lds R24,_pageNum
 1AA6 90910100          lds R25,_pageNum+1
 1AAA 8930              cpi R24,9
 1AAC E0E0              ldi R30,0
 1AAE 9E07              cpc R25,R30
 1AB0 09F4              brne L467
 1AB2           X258:
 1AB2                   .dbline 959
 1AB2                   .dbline 960
 1AB2           ;           page9();
 1AB2 72DF              xcall _page9
 1AB4                   .dbline 961
 1AB4           ;         }
 1AB4           L467:
 1AB4           L466:
 1AB4           L464:
 1AB4           L462:
 1AB4           L460:
 1AB4           L458:
 1AB4           L456:
 1AB4           L454:
 1AB4           L452:
 1AB4                   .dbline -2
 1AB4           L450:
 1AB4                   .dbline 0 ; func end
 1AB4 0895              ret
 1AB6                   .dbend
                        .area data(ram, con, rel)
 001C                   .dbfile E:\ICCDemo\Temp_Control\temp_control\pages.c
 001C           L449:
 001C                   .blkb 17
                        .area idata
 001C CAFDBEDDD6D8D6C3D6D0A1A3A1A3A1A3  .byte 202,253,190,221,214,216,214,195,214,208,161,163,161,163,161,163
 002C 00                .byte 0
                        .area data(ram, con, rel)
 002D                   .dbfile E:\ICCDemo\Temp_Control\temp_control\pages.c
 002D           L445:
 002D                   .blkb 17
                        .area idata
 002D CFB5CDB3D6D8D6C3D6D0A1A3A1A3A1A3  .byte 207,181,205,179,214,216,214,195,214,208,161,163,161,163,161,163
 003D 00                .byte 0
                        .area data(ram, con, rel)
 003E                   .dbfile E:\ICCDemo\Temp_Control\temp_control\pages.c
 003E           L376:
 003E                   .blkb 3
                        .area idata
 003E 3A2000            .byte 58,32,0
                        .area data(ram, con, rel)
 0041                   .dbfile E:\ICCDemo\Temp_Control\temp_control\pages.c
 0041           L368:
 0041                   .blkb 3
                        .area idata
 0041 2D2000            .byte 45,32,0
                        .area data(ram, con, rel)
 0044                   .dbfile E:\ICCDemo\Temp_Control\temp_control\pages.c
 0044           L327:
 0044                   .blkb 5
                        .area idata
 0044 C8B7C8CF00        .byte 200,183,200,207,0
                        .area data(ram, con, rel)
 0049                   .dbfile E:\ICCDemo\Temp_Control\temp_control\pages.c
 0049           L326:
 0049                   .blkb 9
                        .area idata
 0049 CAC7B7F1D6D8D6C300        .byte 202,199,183,241,214,216,214,195,0
                        .area data(ram, con, rel)
 0052                   .dbfile E:\ICCDemo\Temp_Control\temp_control\pages.c
 0052           L324:
 0052                   .blkb 15
                        .area idata
 0052 CEC2B6C8B1A3B4E6CAA7B0DCA3A100    .byte 206,194,182,200,177,163,180,230,202,167,176,220,163,161,0
                        .area data(ram, con, rel)
 0061                   .dbfile E:\ICCDemo\Temp_Control\temp_control\pages.c
 0061           L320:
 0061                   .blkb 15
                        .area idata
 0061 CEC2B6C8B1A3B4E6B3C9B9A6A3A100    .byte 206,194,182,200,177,163,180,230,179,201,185,166,163,161,0
                        .area data(ram, con, rel)
 0070                   .dbfile E:\ICCDemo\Temp_Control\temp_control\pages.c
 0070           L316:
 0070                   .blkb 15
                        .area idata
 0070 CAB1BCE4B1A3B4E6B3C9B9A6A3A100    .byte 202,177,188,228,177,163,180,230,179,201,185,166,163,161,0
                        .area data(ram, con, rel)
 007F                   .dbfile E:\ICCDemo\Temp_Control\temp_control\pages.c
 007F           L282:
 007F                   .blkb 9
                        .area idata
 007F D6D8D6C3CFB5CDB300        .byte 214,216,214,195,207,181,205,179,0
                        .area data(ram, con, rel)
 0088                   .dbfile E:\ICCDemo\Temp_Control\temp_control\pages.c
 0088           L281:
 0088                   .blkb 9
                        .area idata
 0088 C9E8D6C3CAB1BCE400        .byte 201,232,214,195,202,177,188,228,0
                        .area data(ram, con, rel)
 0091                   .dbfile E:\ICCDemo\Temp_Control\temp_control\pages.c
 0091           L280:
 0091                   .blkb 13
                        .area idata
 0091 B6CFB5E7D7D4B6AFD6D8D6C300        .byte 182,207,181,231,215,212,182,175,214,216,214,195,0
                        .area data(ram, con, rel)
 009E                   .dbfile E:\ICCDemo\Temp_Control\temp_control\pages.c
 009E           L224:
 009E                   .blkb 19
                        .area idata
 009E 30313A203135202030313A2031322031  .byte 48,49,58,32,49,53,32,32,48,49,58,32,49,50,32,49
 00AE 353000            .byte 53,48,0
                        .area data(ram, con, rel)
 00B1                   .dbfile E:\ICCDemo\Temp_Control\temp_control\pages.c
 00B1           L223:
 00B1                   .blkb 18
                        .area idata
 00B1 30313A203332202030313A2030302031  .byte 48,49,58,32,51,50,32,32,48,49,58,32,48,48,32,49
 00C1 3000              .byte 48,0
                        .area data(ram, con, rel)
 00C3                   .dbfile E:\ICCDemo\Temp_Control\temp_control\pages.c
 00C3           L222:
 00C3                   .blkb 19
                        .area idata
 00C3 30313A203030202030313A2030302031  .byte 48,49,58,32,48,48,32,32,48,49,58,32,48,48,32,49
 00D3 303000            .byte 48,48,0
                        .area data(ram, con, rel)
 00D6                   .dbfile E:\ICCDemo\Temp_Control\temp_control\pages.c
 00D6           L221:
 00D6                   .blkb 5
                        .area idata
 00D6 B1A3B4E600        .byte 177,163,180,230,0
                        .area data(ram, con, rel)
 00DB                   .dbfile E:\ICCDemo\Temp_Control\temp_control\pages.c
 00DB           L220:
 00DB                   .blkb 5
                        .area idata
 00DB CEC2B6C800        .byte 206,194,182,200,0
                        .area data(ram, con, rel)
 00E0                   .dbfile E:\ICCDemo\Temp_Control\temp_control\pages.c
 00E0           L219:
 00E0                   .blkb 5
                        .area idata
 00E0 BAE3CEC200        .byte 186,227,206,194,0
                        .area data(ram, con, rel)
 00E5                   .dbfile E:\ICCDemo\Temp_Control\temp_control\pages.c
 00E5           L218:
 00E5                   .blkb 5
                        .area idata
 00E5 C9FDCEC200        .byte 201,253,206,194,0
                        .area data(ram, con, rel)
 00EA                   .dbfile E:\ICCDemo\Temp_Control\temp_control\pages.c
 00EA           L214:
 00EA                   .blkb 2
                        .area idata
 00EA 2000              .byte 32,0
                        .area data(ram, con, rel)
 00EC                   .dbfile E:\ICCDemo\Temp_Control\temp_control\pages.c
 00EC           L139:
 00EC                   .blkb 6
                        .area idata
 00EC 20313A313000      .byte 32,49,58,49,48,0
                        .area data(ram, con, rel)
 00F2                   .dbfile E:\ICCDemo\Temp_Control\temp_control\pages.c
 00F2           L138:
 00F2                   .blkb 6
                        .area idata
 00F2 BDD7B6CE3100      .byte 189,215,182,206,49,0
                        .area data(ram, con, rel)
 00F8                   .dbfile E:\ICCDemo\Temp_Control\temp_control\pages.c
 00F8           L137:
 00F8                   .blkb 4
                        .area idata
 00F8 31303000          .byte 49,48,48,0
                        .area data(ram, con, rel)
 00FC                   .dbfile E:\ICCDemo\Temp_Control\temp_control\pages.c
 00FC           L133:
 00FC                   .blkb 5
                        .area idata
 00FC D6D8D6C300        .byte 214,216,214,195,0
                        .area data(ram, con, rel)
 0101                   .dbfile E:\ICCDemo\Temp_Control\temp_control\pages.c
 0101           L132:
 0101                   .blkb 5
                        .area idata
 0101 D4CBD0D000        .byte 212,203,208,208,0
                        .area data(ram, con, rel)
 0106                   .dbfile E:\ICCDemo\Temp_Control\temp_control\pages.c
 0106           L131:
 0106                   .blkb 5
                        .area idata
 0106 B1E0BCAD00        .byte 177,224,188,173,0
                        .area data(ram, con, rel)
 010B                   .dbfile E:\ICCDemo\Temp_Control\temp_control\pages.c
 010B           L130:
 010B                   .blkb 6
                        .area idata
 010B D7B4CCAC3A00      .byte 215,180,204,172,58,0
                        .area data(ram, con, rel)
 0111                   .dbfile E:\ICCDemo\Temp_Control\temp_control\pages.c
 0111           L129:
 0111                   .blkb 6
                        .area idata
 0111 CEC2B6C83A00      .byte 206,194,182,200,58,0
                        .area data(ram, con, rel)
 0117                   .dbfile E:\ICCDemo\Temp_Control\temp_control\pages.c
 0117           L128:
 0117                   .blkb 2
                        .area idata
 0117 5400              .byte 'T,0
                        .area data(ram, con, rel)
 0119                   .dbfile E:\ICCDemo\Temp_Control\temp_control\pages.c
 0119           L112:
 0119                   .blkb 5
                        .area idata
 0119 C8A1CFFB00        .byte 200,161,207,251,0
                        .area data(ram, con, rel)
 011E                   .dbfile E:\ICCDemo\Temp_Control\temp_control\pages.c
 011E           L111:
 011E                   .blkb 5
                        .area idata
 011E BBD6B8B400        .byte 187,214,184,180,0
                        .area data(ram, con, rel)
 0123                   .dbfile E:\ICCDemo\Temp_Control\temp_control\pages.c
 0123           L110:
 0123                   .blkb 17
                        .area idata
 0123 CAC7B7F1BBD6B8B4C9CFB4CEB9A4D7F7  .byte 202,199,183,241,187,214,184,180,201,207,180,206,185,164,215,247
 0133 00                .byte 0
                        .area data(ram, con, rel)
 0134                   .dbfile E:\ICCDemo\Temp_Control\temp_control\pages.c
 0134           L43:
 0134                   .blkb 5
                        .area idata
 0134 BCD3D4D800        .byte 188,211,212,216,0
                        .area data(ram, con, rel)
 0139                   .dbfile E:\ICCDemo\Temp_Control\temp_control\pages.c
 0139           L41:
 0139                   .blkb 5
                        .area idata
 0139 B5C8B4FD00        .byte 181,200,180,253,0
                        .area data(ram, con, rel)
 013E                   .dbfile E:\ICCDemo\Temp_Control\temp_control\pages.c
 013E           L39:
 013E                   .blkb 5
                        .area idata
 013E BDE1CAF800        .byte 189,225,202,248,0
                        .area data(ram, con, rel)
 0143                   .dbfile E:\ICCDemo\Temp_Control\temp_control\pages.c
 0143           L37:
 0143                   .blkb 5
                        .area idata
 0143 D4DDCDA300        .byte 212,221,205,163,0
                        .area data(ram, con, rel)
 0148                   .dbfile E:\ICCDemo\Temp_Control\temp_control\pages.c
 0148           L35:
 0148                   .blkb 5
                        .area idata
 0148 B9CAD5CF00        .byte 185,202,213,207,0
                        .area data(ram, con, rel)
 014D                   .dbfile E:\ICCDemo\Temp_Control\temp_control\pages.c
 014D           L33:
 014D                   .blkb 4
                        .area idata
 014D 31353000          .byte 49,53,48,0
                        .area data(ram, con, rel)
 0151                   .dbfile E:\ICCDemo\Temp_Control\temp_control\pages.c
 0151           L31:
 0151                   .blkb 5
                        .area idata
 0151 CDA3D6B900        .byte 205,163,214,185,0
                        .area data(ram, con, rel)
 0156                   .dbfile E:\ICCDemo\Temp_Control\temp_control\pages.c
 0156           L11:
 0156                   .blkb 5
                        .area idata
 0156 C9E8D6C300        .byte 201,232,214,195,0
                        .area data(ram, con, rel)
 015B                   .dbfile E:\ICCDemo\Temp_Control\temp_control\pages.c
 015B           L10:
 015B                   .blkb 9
                        .area idata
 015B CDA3D6B92020202000        .byte 205,163,214,185,32,32,32,32,0
                        .area data(ram, con, rel)
 0164                   .dbfile E:\ICCDemo\Temp_Control\temp_control\pages.c
 0164           L9:
 0164                   .blkb 9
                        .area idata
 0164 BFAACABC2020202000        .byte 191,170,202,188,32,32,32,32,0
                        .area data(ram, con, rel)
 016D                   .dbfile E:\ICCDemo\Temp_Control\temp_control\pages.c
 016D           L8:
 016D                   .blkb 9
                        .area idata
 016D 2054343AB9CAD5CF00        .byte 32,'T,52,58,185,202,213,207,0
                        .area data(ram, con, rel)
 0176                   .dbfile E:\ICCDemo\Temp_Control\temp_control\pages.c
 0176           L7:
 0176                   .blkb 9
                        .area idata
 0176 2054333ACDA3D6B900        .byte 32,'T,51,58,205,163,214,185,0
                        .area data(ram, con, rel)
 017F                   .dbfile E:\ICCDemo\Temp_Control\temp_control\pages.c
 017F           L6:
 017F                   .blkb 8
                        .area idata
 017F 2054323A38303000  .byte 32,'T,50,58,56,48,48,0
                        .area data(ram, con, rel)
 0187                   .dbfile E:\ICCDemo\Temp_Control\temp_control\pages.c
 0187           L5:
 0187                   .blkb 8
                        .area idata
 0187 2054313A31303000  .byte 32,'T,49,58,49,48,48,0
                        .area data(ram, con, rel)
 018F                   .dbfile E:\ICCDemo\Temp_Control\temp_control\pages.c
 018F           L2:
 018F                   .blkb 6
                        .area idata
 018F CAB1BCE43A00      .byte 202,177,188,228,58,0
                        .area data(ram, con, rel)
 0195                   .dbfile E:\ICCDemo\Temp_Control\temp_control\pages.c
 0195           ;                
 0195           ; }
