                        .module pages.c
                        .area text(rom, con, rel)
 0000                   .dbfile pages.c
 0000                   .dbfile E:\ICCDemo\Temp_Control\temp_control\pages.c
 0000                   .dbfunc e pageTime _pageTime fV
 0000           ;              y -> R10,R11
                        .even
 0000           _pageTime::
 0000 AA92              st -y,R10
 0002 BA92              st -y,R11
 0004 5801              movw R10,R16
 0006 2297              sbiw R28,2
 0008                   .dbline -1
 0008                   .dbline 22
 0008           ; #include<iom128v.h>
 0008           ; #include "main.h"
 0008           ; #include "lcd.h"
 0008           ; #include "time1307.h"
 0008           ; #include "timertask.h"
 0008           ; #include "key.h"
 0008           ; #include "delay.h"
 0008           ; #include "temp.h"
 0008           ; #include "eeprom.h"
 0008           ; //下面这个头文件里包含WDR();喂狗的方法
 0008           ; //#include <AVRdef.h>
 0008           ; 
 0008           ; //************************
 0008           ; // 所有界面信息在这里,用到全局变量， 
 0008           ; // unsigned int pageNum;//当前页面，如需跳转改变这个值就行
 0008           ; // unsigned int pageParam[5];//传递参数。界面间参数暂存
 0008           ; // unsigned int prePageNum;
 0008           ; //************************
 0008           ; 
 0008           ; //用于显第一行日期信息，其中Page1、Page3 、Page8使用，
 0008           ; //由定时器触发该函数，进入这三个界面是启动定时器，退出时关闭
 0008           ; void pageTime(uint y){
 0008                   .dbline 24
 0008           ;                 //关定时器
 0008           ;    lcd_write_str(0,y,"时间:");
 0008 80E0              ldi R24,<L2
 000A 90E0              ldi R25,>L2
 000C 9983              std y+1,R25
 000E 8883              std y+0,R24
 0010 2A2D              mov R18,R10
 0012 0027              clr R16
 0014 0E940000          xcall _lcd_write_str
 0018                   .dbline 25
 0018           ;    showTime_page(y);
 0018 8501              movw R16,R10
 001A 0E940000          xcall _showTime_page
 001E                   .dbline -2
 001E           L1:
 001E                   .dbline 0 ; func end
 001E 2296              adiw R28,2
 0020 B990              ld R11,y+
 0022 A990              ld R10,y+
 0024 0895              ret
 0026                   .dbsym r y 10 i
 0026                   .dbend
 0026                   .dbfunc e pageTime2 _pageTime2 fV
 0026           ;              y -> R10,R11
                        .even
 0026           _pageTime2::
 0026 AA92              st -y,R10
 0028 BA92              st -y,R11
 002A 5801              movw R10,R16
 002C                   .dbline -1
 002C                   .dbline 28
 002C           ;                  //开定时器 
 002C           ; }
 002C           ; void pageTime2(uint y){
 002C                   .dbline 31
 002C           ;                 //关定时器
 002C           ;    //lcd_write_str(0,y,"时间:");
 002C           ;    showTime_page(y);
 002C 8501              movw R16,R10
 002E 0E940000          xcall _showTime_page
 0032                   .dbline -2
 0032           L3:
 0032                   .dbline 0 ; func end
 0032 B990              ld R11,y+
 0034 A990              ld R10,y+
 0036 0895              ret
 0038                   .dbsym r y 10 i
 0038                   .dbend
 0038                   .dbfunc e page1 _page1 fV
 0038           ;            cur -> R20,R21
 0038           ;           keyV -> R10
 0038           ;              y -> R22,R23
 0038           ;              i -> R10,R11
                        .even
 0038           _page1::
 0038 0E940000          xcall push_xgsetF03C
 003C 2297              sbiw R28,2
 003E                   .dbline -1
 003E                   .dbline 35
 003E           ;                  //开定时器 
 003E           ; }
 003E           ; //page1,首页的界面
 003E           ; void page1(void){
 003E                   .dbline 36
 003E           ;    uint cur=0;
 003E                   .dbline 40
 003E           ;    uchar keyV;
 003E           ;    uint i;//用于循环
 003E           ;    uint y;//确定是那个半屏幕
 003E           ;    prePageNum=1;//首页不会再有上一界面，这里设置。虽然违反规则
 003E 81E0              ldi R24,1
 0040 90E0              ldi R25,0
 0042 90930100          sts _prePageNum+1,R25
 0046 80930000          sts _prePageNum,R24
 004A                   .dbline 42
 004A           ;    //初始化起始选择
 004A           ;     lcd_write_str(1,1," T1:");
 004A 80E0              ldi R24,<L5
 004C 90E0              ldi R25,>L5
 004E 9983              std y+1,R25
 0050 8883              std y+0,R24
 0052 21E0              ldi R18,1
 0054 01E0              ldi R16,1
 0056 0E940000          xcall _lcd_write_str
 005A                   .dbline 43
 005A           ;     lcd_write_str(6,1," T2:");
 005A 80E0              ldi R24,<L6
 005C 90E0              ldi R25,>L6
 005E 9983              std y+1,R25
 0060 8883              std y+0,R24
 0062 21E0              ldi R18,1
 0064 06E0              ldi R16,6
 0066 0E940000          xcall _lcd_write_str
 006A                   .dbline 44
 006A           ;     lcd_write_str(1,2," T3:");
 006A 80E0              ldi R24,<L7
 006C 90E0              ldi R25,>L7
 006E 9983              std y+1,R25
 0070 8883              std y+0,R24
 0072 22E0              ldi R18,2
 0074 01E0              ldi R16,1
 0076 0E940000          xcall _lcd_write_str
 007A                   .dbline 45
 007A           ;     lcd_write_str(6,2," T4:");
 007A 80E0              ldi R24,<L8
 007C 90E0              ldi R25,>L8
 007E 9983              std y+1,R25
 0080 8883              std y+0,R24
 0082 22E0              ldi R18,2
 0084 06E0              ldi R16,6
 0086 0E940000          xcall _lcd_write_str
 008A                   .dbline 48
 008A           ; 
 008A           ;       
 008A           ;       lcd_write_str(1,3,"开始    ");
 008A 80E0              ldi R24,<L9
 008C 90E0              ldi R25,>L9
 008E 9983              std y+1,R25
 0090 8883              std y+0,R24
 0092 23E0              ldi R18,3
 0094 01E0              ldi R16,1
 0096 0E940000          xcall _lcd_write_str
 009A                   .dbline 49
 009A           ;     lcd_write_str_con(3,"停止    ");
 009A 20E0              ldi R18,<L10
 009C 30E0              ldi R19,>L10
 009E 03E0              ldi R16,3
 00A0 0E940000          xcall _lcd_write_str_con
 00A4                   .dbline 50
 00A4           ;       lcd_write_str_con(3,"设置");
 00A4 20E0              ldi R18,<L11
 00A6 30E0              ldi R19,>L11
 00A8 03E0              ldi R16,3
 00AA 0E940000          xcall _lcd_write_str_con
 00AE                   .dbline 51
 00AE           ;       lcd_write_str(1,3,"开始    ");
 00AE 80E0              ldi R24,<L9
 00B0 90E0              ldi R25,>L9
 00B2 9983              std y+1,R25
 00B4 8883              std y+0,R24
 00B6 23E0              ldi R18,3
 00B8 01E0              ldi R16,1
 00BA 0E940000          xcall _lcd_write_str
 00BE                   .dbline 52
 00BE           ;     lcd_write_str_con(3,"停止    ");
 00BE 20E0              ldi R18,<L10
 00C0 30E0              ldi R19,>L10
 00C2 03E0              ldi R16,3
 00C4 0E940000          xcall _lcd_write_str_con
 00C8                   .dbline 53
 00C8           ;       lcd_write_str_con(3,"设置"); 
 00C8 20E0              ldi R18,<L11
 00CA 30E0              ldi R19,>L11
 00CC 03E0              ldi R16,3
 00CE 0E940000          xcall _lcd_write_str_con
 00D2                   .dbline 54
 00D2           ;       cur=0;
 00D2 4427              clr R20
 00D4 5527              clr R21
 00D6                   .dbline 55
 00D6           ;       Set_White(2,1,3);
 00D6 83E0              ldi R24,3
 00D8 8883              std y+0,R24
 00DA 21E0              ldi R18,1
 00DC 02E0              ldi R16,2
 00DE 0E940000          xcall _Set_White
 00E2 89C3              xjmp L13
 00E4           L12:
 00E4                   .dbline 56
 00E4           ;       while(1){
 00E4                   .dbline 57
 00E4           ;        pageTime(0);
 00E4 0027              clr R16
 00E6 1127              clr R17
 00E8 8BDF              xcall _pageTime
 00EA                   .dbline 58
 00EA           ;       for(i=0;i<4;i++){
 00EA AA24              clr R10
 00EC BB24              clr R11
 00EE DFC0              xjmp L18
 00F0           L15:
 00F0                   .dbline 58
 00F0                   .dbline 59
 00F0           ;         if(i==0){
 00F0 AA20              tst R10
 00F2 49F4              brne L19
 00F4 BB20              tst R11
 00F6 39F4              brne L19
 00F8           X0:
 00F8                   .dbline 59
 00F8                   .dbline 60
 00F8           ;           y=1;
 00F8 61E0              ldi R22,1
 00FA 70E0              ldi R23,0
 00FC                   .dbline 61
 00FC           ;           lcd_write_pos(3,1);
 00FC 21E0              ldi R18,1
 00FE 03E0              ldi R16,3
 0100 0E940000          xcall _lcd_write_pos
 0104                   .dbline 62
 0104           ;         }else if(i==1){
 0104 23C0              xjmp L20
 0106           L19:
 0106                   .dbline 62
 0106 C501              movw R24,R10
 0108 8130              cpi R24,1
 010A E0E0              ldi R30,0
 010C 9E07              cpc R25,R30
 010E 39F4              brne L21
 0110           X1:
 0110                   .dbline 62
 0110                   .dbline 63
 0110           ;           y=1;
 0110 61E0              ldi R22,1
 0112 70E0              ldi R23,0
 0114                   .dbline 64
 0114           ;           lcd_write_pos(8,1);
 0114 21E0              ldi R18,1
 0116 08E0              ldi R16,8
 0118 0E940000          xcall _lcd_write_pos
 011C                   .dbline 65
 011C           ;         }else if(i==2){
 011C 17C0              xjmp L22
 011E           L21:
 011E                   .dbline 65
 011E C501              movw R24,R10
 0120 8230              cpi R24,2
 0122 E0E0              ldi R30,0
 0124 9E07              cpc R25,R30
 0126 39F4              brne L23
 0128           X2:
 0128                   .dbline 65
 0128                   .dbline 66
 0128           ;           y=2;
 0128 62E0              ldi R22,2
 012A 70E0              ldi R23,0
 012C                   .dbline 67
 012C           ;           lcd_write_pos(3,2);
 012C 22E0              ldi R18,2
 012E 03E0              ldi R16,3
 0130 0E940000          xcall _lcd_write_pos
 0134                   .dbline 68
 0134           ;         }else if(i==3){
 0134 0BC0              xjmp L24
 0136           L23:
 0136                   .dbline 68
 0136 C501              movw R24,R10
 0138 8330              cpi R24,3
 013A E0E0              ldi R30,0
 013C 9E07              cpc R25,R30
 013E 31F4              brne L25
 0140           X3:
 0140                   .dbline 68
 0140                   .dbline 69
 0140           ;           y=2;
 0140 62E0              ldi R22,2
 0142 70E0              ldi R23,0
 0144                   .dbline 70
 0144           ;           lcd_write_pos(8,2);
 0144 22E0              ldi R18,2
 0146 08E0              ldi R16,8
 0148 0E940000          xcall _lcd_write_pos
 014C                   .dbline 71
 014C           ;         }
 014C           L25:
 014C           L24:
 014C           L22:
 014C           L20:
 014C                   .dbline 72
 014C           ;          switch(temps[i].flag){
 014C 04E4              ldi R16,324
 014E 11E0              ldi R17,1
 0150 9501              movw R18,R10
 0152 0E940000          xcall empy16s
 0156 80E0              ldi R24,<_temps
 0158 90E0              ldi R25,>_temps
 015A F801              movw R30,R16
 015C E80F              add R30,R24
 015E F91F              adc R31,R25
 0160 C080              ldd R12,z+0
 0162 D180              ldd R13,z+1
 0164 CC20              tst R12
 0166 11F4              brne X4
 0168 DD20              tst R13
 016A F9F0              breq L30
 016C           X4:
 016C C601              movw R24,R12
 016E 8130              cpi R24,1
 0170 E0E0              ldi R30,0
 0172 9E07              cpc R25,R30
 0174 01F1              breq L32
 0176           X5:
 0176 8230              cpi R24,2
 0178 E0E0              ldi R30,0
 017A 9E07              cpc R25,R30
 017C 09F4              brne X58
 017E 77C0              xjmp L36
 0180           X58:
 0180           X6:
 0180 8330              cpi R24,3
 0182 E0E0              ldi R30,0
 0184 9E07              cpc R25,R30
 0186 09F4              brne X59
 0188 78C0              xjmp L38
 018A           X59:
 018A           X7:
 018A 8430              cpi R24,4
 018C E0E0              ldi R30,0
 018E 9E07              cpc R25,R30
 0190 09F4              brne X60
 0192 79C0              xjmp L40
 0194           X60:
 0194           X8:
 0194 8530              cpi R24,5
 0196 E0E0              ldi R30,0
 0198 9E07              cpc R25,R30
 019A 09F4              brne X61
 019C 7AC0              xjmp L42
 019E           X61:
 019E           X9:
 019E 8630              cpi R24,6
 01A0 E0E0              ldi R30,0
 01A2 9E07              cpc R25,R30
 01A4 09F4              brne X62
 01A6 7BC0              xjmp L44
 01A8           X62:
 01A8           X10:
 01A8 7FC0              xjmp L28
 01AA           L30:
 01AA                   .dbline 74
 01AA           ;            case 0:
 01AA           ;                  lcd_write_str_con(y,"停止");
 01AA 20E0              ldi R18,<L31
 01AC 30E0              ldi R19,>L31
 01AE 062F              mov R16,R22
 01B0 0E940000          xcall _lcd_write_str_con
 01B4                   .dbline 75
 01B4           ;                  break;
 01B4 79C0              xjmp L28
 01B6           L32:
 01B6                   .dbline 77
 01B6           ;                case 1:
 01B6           ;                  lcd_write_char_con(y,0x30 | (int)temps[i].actualtemp/100);
 01B6 04E4              ldi R16,324
 01B8 11E0              ldi R17,1
 01BA 9501              movw R18,R10
 01BC 0E940000          xcall empy16s
 01C0 80E0              ldi R24,<_temps+292
 01C2 90E0              ldi R25,>_temps+292
 01C4 F801              movw R30,R16
 01C6 E80F              add R30,R24
 01C8 F91F              adc R31,R25
 01CA 0081              ldd R16,z+0
 01CC 1181              ldd R17,z+1
 01CE 2281              ldd R18,z+2
 01D0 3381              ldd R19,z+3
 01D2 0E940000          xcall fpint
 01D6 24E6              ldi R18,100
 01D8 30E0              ldi R19,0
 01DA 0E940000          xcall div16s
 01DE 9801              movw R18,R16
 01E0 2063              ori R18,48
 01E2 062F              mov R16,R22
 01E4 0E940000          xcall _lcd_write_char_con
 01E8                   .dbline 78
 01E8           ;                  lcd_write_char_con(y,0x30 | ((int)temps[i].actualtemp/10)%10);
 01E8 04E4              ldi R16,324
 01EA 11E0              ldi R17,1
 01EC 9501              movw R18,R10
 01EE 0E940000          xcall empy16s
 01F2 80E0              ldi R24,<_temps+292
 01F4 90E0              ldi R25,>_temps+292
 01F6 F801              movw R30,R16
 01F8 E80F              add R30,R24
 01FA F91F              adc R31,R25
 01FC 0081              ldd R16,z+0
 01FE 1181              ldd R17,z+1
 0200 2281              ldd R18,z+2
 0202 3381              ldd R19,z+3
 0204 0E940000          xcall fpint
 0208 2AE0              ldi R18,10
 020A 30E0              ldi R19,0
 020C 0E940000          xcall div16s
 0210 2AE0              ldi R18,10
 0212 30E0              ldi R19,0
 0214 0E940000          xcall mod16s
 0218 9801              movw R18,R16
 021A 2063              ori R18,48
 021C 062F              mov R16,R22
 021E 0E940000          xcall _lcd_write_char_con
 0222                   .dbline 79
 0222           ;                  lcd_write_char_con(y,0x30 | (int)temps[i].actualtemp%10);
 0222 04E4              ldi R16,324
 0224 11E0              ldi R17,1
 0226 9501              movw R18,R10
 0228 0E940000          xcall empy16s
 022C 80E0              ldi R24,<_temps+292
 022E 90E0              ldi R25,>_temps+292
 0230 F801              movw R30,R16
 0232 E80F              add R30,R24
 0234 F91F              adc R31,R25
 0236 0081              ldd R16,z+0
 0238 1181              ldd R17,z+1
 023A 2281              ldd R18,z+2
 023C 3381              ldd R19,z+3
 023E 0E940000          xcall fpint
 0242 2AE0              ldi R18,10
 0244 30E0              ldi R19,0
 0246 0E940000          xcall mod16s
 024A 9801              movw R18,R16
 024C 2063              ori R18,48
 024E 062F              mov R16,R22
 0250 0E940000          xcall _lcd_write_char_con
 0254                   .dbline 80
 0254           ;                  lcd_write_char_con(y,' ');
 0254 20E2              ldi R18,32
 0256 062F              mov R16,R22
 0258 0E940000          xcall _lcd_write_char_con
 025C                   .dbline 81
 025C           ;                  lcd_write_char_con(y,0xA1);
 025C 21EA              ldi R18,161
 025E 062F              mov R16,R22
 0260 0E940000          xcall _lcd_write_char_con
 0264                   .dbline 82
 0264           ;           lcd_write_char_con(y,0xE6);
 0264 26EE              ldi R18,230
 0266 062F              mov R16,R22
 0268 0E940000          xcall _lcd_write_char_con
 026C                   .dbline 83
 026C           ;                  break;
 026C 1DC0              xjmp L28
 026E           L36:
 026E                   .dbline 85
 026E           ;                case 2:
 026E           ;                  lcd_write_str_con(y,"故障");
 026E 20E0              ldi R18,<L37
 0270 30E0              ldi R19,>L37
 0272 062F              mov R16,R22
 0274 0E940000          xcall _lcd_write_str_con
 0278                   .dbline 86
 0278           ;                  break;
 0278 17C0              xjmp L28
 027A           L38:
 027A                   .dbline 88
 027A           ;                case 3:
 027A           ;                  lcd_write_str_con(y,"暂停");
 027A 20E0              ldi R18,<L39
 027C 30E0              ldi R19,>L39
 027E 062F              mov R16,R22
 0280 0E940000          xcall _lcd_write_str_con
 0284                   .dbline 89
 0284           ;                  break;
 0284 11C0              xjmp L28
 0286           L40:
 0286                   .dbline 91
 0286           ;                case 4:
 0286           ;                  lcd_write_str_con(y,"结束");
 0286 20E0              ldi R18,<L41
 0288 30E0              ldi R19,>L41
 028A 062F              mov R16,R22
 028C 0E940000          xcall _lcd_write_str_con
 0290                   .dbline 92
 0290           ;                  break;
 0290 0BC0              xjmp L28
 0292           L42:
 0292                   .dbline 94
 0292           ;                case 5:
 0292           ;                  lcd_write_str_con(y,"等待");
 0292 20E0              ldi R18,<L43
 0294 30E0              ldi R19,>L43
 0296 062F              mov R16,R22
 0298 0E940000          xcall _lcd_write_str_con
 029C                   .dbline 95
 029C           ;                  break;
 029C 05C0              xjmp L28
 029E           L44:
 029E                   .dbline 97
 029E           ;                case 6:
 029E           ;                  lcd_write_str_con(y,"暂停");
 029E 20E0              ldi R18,<L39
 02A0 30E0              ldi R19,>L39
 02A2 062F              mov R16,R22
 02A4 0E940000          xcall _lcd_write_str_con
 02A8                   .dbline 98
 02A8           ;                  break;
 02A8                   .dbline 99
 02A8           ;                  break;
 02A8                   .dbline 101
 02A8           ;                default:
 02A8           ;                  break;
 02A8           L28:
 02A8                   .dbline 103
 02A8           ;          }
 02A8           ;       }
 02A8           L16:
 02A8                   .dbline 58
 02A8 C501              movw R24,R10
 02AA 0196              adiw R24,1
 02AC 5C01              movw R10,R24
 02AE           L18:
 02AE                   .dbline 58
 02AE C501              movw R24,R10
 02B0 8430              cpi R24,4
 02B2 E0E0              ldi R30,0
 02B4 9E07              cpc R25,R30
 02B6 08F4              brsh X63
 02B8 1BCF              xjmp L15
 02BA           X63:
 02BA           X11:
 02BA                   .dbline 104
 02BA           ;        keyV=KeyScan_once();
 02BA 0E940000          xcall _KeyScan_once
 02BE A02E              mov R10,R16
 02C0                   .dbline 105
 02C0           ;        if(keyV=='a'){
 02C0 0136              cpi R16,97
 02C2 09F0              breq X64
 02C4 53C0              xjmp L45
 02C6           X64:
 02C6           X12:
 02C6                   .dbline 105
 02C6                   .dbline 107
 02C6           ;             //pageNum=8;//跳转到设置时间的界面
 02C6           ;                  pageNum=8;
 02C6 88E0              ldi R24,8
 02C8 90E0              ldi R25,0
 02CA 90930100          sts _pageNum+1,R25
 02CE 80930000          sts _pageNum,R24
 02D2                   .dbline 108
 02D2           ;          switch(cur){
 02D2 4030              cpi R20,0
 02D4 4507              cpc R20,R21
 02D6 C9F0              breq L49
 02D8           X13:
 02D8 4130              cpi R20,1
 02DA E0E0              ldi R30,0
 02DC 5E07              cpc R21,R30
 02DE E1F0              breq L50
 02E0           X14:
 02E0 4230              cpi R20,2
 02E2 E0E0              ldi R30,0
 02E4 5E07              cpc R21,R30
 02E6 F9F0              breq L51
 02E8           X15:
 02E8 4330              cpi R20,3
 02EA E0E0              ldi R30,0
 02EC 5E07              cpc R21,R30
 02EE 11F1              breq L52
 02F0           X16:
 02F0 4430              cpi R20,4
 02F2 E0E0              ldi R30,0
 02F4 5E07              cpc R21,R30
 02F6 29F1              breq L53
 02F8           X17:
 02F8 4530              cpi R20,5
 02FA E0E0              ldi R30,0
 02FC 5E07              cpc R21,R30
 02FE 41F1              breq L54
 0300           X18:
 0300 4630              cpi R20,6
 0302 E0E0              ldi R30,0
 0304 5E07              cpc R21,R30
 0306 59F1              breq L55
 0308           X19:
 0308 77C2              xjmp L4
 030A           L49:
 030A                   .dbline 110
 030A           ;                case 0: 
 030A           ;                   Set_White_off(2,1,3);
 030A 83E0              ldi R24,3
 030C 8883              std y+0,R24
 030E 21E0              ldi R18,1
 0310 02E0              ldi R16,2
 0312 0E940000          xcall _Set_White_off
 0316                   .dbline 111
 0316           ;                   break;
 0316 70C2              xjmp L4
 0318           L50:
 0318                   .dbline 113
 0318           ;                case 1:
 0318           ;                  Set_White_off(7,1,8);
 0318 88E0              ldi R24,8
 031A 8883              std y+0,R24
 031C 21E0              ldi R18,1
 031E 07E0              ldi R16,7
 0320 0E940000          xcall _Set_White_off
 0324                   .dbline 114
 0324           ;                  break;
 0324 69C2              xjmp L4
 0326           L51:
 0326                   .dbline 116
 0326           ;                case 2:
 0326           ;                 Set_White_off(2,2,3);
 0326 83E0              ldi R24,3
 0328 8883              std y+0,R24
 032A 22E0              ldi R18,2
 032C 02E0              ldi R16,2
 032E 0E940000          xcall _Set_White_off
 0332                   .dbline 117
 0332           ;                 break;
 0332 62C2              xjmp L4
 0334           L52:
 0334                   .dbline 119
 0334           ;                case 3:
 0334           ;                  Set_White_off(7,2,8);
 0334 88E0              ldi R24,8
 0336 8883              std y+0,R24
 0338 22E0              ldi R18,2
 033A 07E0              ldi R16,7
 033C 0E940000          xcall _Set_White_off
 0340                   .dbline 120
 0340           ;                   break;
 0340 5BC2              xjmp L4
 0342           L53:
 0342                   .dbline 122
 0342           ;               case 4:
 0342           ;                   Set_White_off(2,3,3);
 0342 83E0              ldi R24,3
 0344 8883              std y+0,R24
 0346 23E0              ldi R18,3
 0348 02E0              ldi R16,2
 034A 0E940000          xcall _Set_White_off
 034E                   .dbline 123
 034E           ;                   break;
 034E 54C2              xjmp L4
 0350           L54:
 0350                   .dbline 125
 0350           ;               case 5:
 0350           ;                   Set_White_off(6,3,7);
 0350 87E0              ldi R24,7
 0352 8883              std y+0,R24
 0354 23E0              ldi R18,3
 0356 06E0              ldi R16,6
 0358 0E940000          xcall _Set_White_off
 035C                   .dbline 126
 035C           ;                   break;
 035C 4DC2              xjmp L4
 035E           L55:
 035E                   .dbline 128
 035E           ;                case 6:
 035E           ;                  Set_White_off(10,3,11);
 035E 8BE0              ldi R24,11
 0360 8883              std y+0,R24
 0362 23E0              ldi R18,3
 0364 0AE0              ldi R16,10
 0366 0E940000          xcall _Set_White_off
 036A                   .dbline 129
 036A           ;                   break;
 036A                   .dbline 131
 036A           ;                 default:
 036A           ;                  break;
 036A                   .dbline 133
 036A           ;                }
 036A           ;          return ;
 036A 46C2              xjmp L4
 036C           L45:
 036C                   .dbline 134
 036C           ;       }else if(keyV=='d'){
 036C 8A2D              mov R24,R10
 036E 8436              cpi R24,100
 0370 09F0              breq X65
 0372 4CC0              xjmp L56
 0374           X65:
 0374           X20:
 0374                   .dbline 134
 0374                   .dbline 135
 0374           ;            switch(cur){
 0374 4030              cpi R20,0
 0376 4507              cpc R20,R21
 0378 69F0              breq L60
 037A           X21:
 037A 4130              cpi R20,1
 037C E0E0              ldi R30,0
 037E 5E07              cpc R21,R30
 0380 C1F0              breq L61
 0382           X22:
 0382 4230              cpi R20,2
 0384 E0E0              ldi R30,0
 0386 5E07              cpc R21,R30
 0388 19F1              breq L62
 038A           X23:
 038A 4330              cpi R20,3
 038C E0E0              ldi R30,0
 038E 5E07              cpc R21,R30
 0390 71F1              breq L63
 0392           X24:
 0392 31C2              xjmp L57
 0394           L60:
 0394                   .dbline 137
 0394           ;                 case 0:
 0394           ;                  Set_White_off(2,1,3);
 0394 83E0              ldi R24,3
 0396 8883              std y+0,R24
 0398 21E0              ldi R18,1
 039A 02E0              ldi R16,2
 039C 0E940000          xcall _Set_White_off
 03A0                   .dbline 138
 03A0           ;                  Set_White(2,2,3);
 03A0 83E0              ldi R24,3
 03A2 8883              std y+0,R24
 03A4 22E0              ldi R18,2
 03A6 02E0              ldi R16,2
 03A8 0E940000          xcall _Set_White
 03AC                   .dbline 139
 03AC           ;                  cur=2;
 03AC 42E0              ldi R20,2
 03AE 50E0              ldi R21,0
 03B0                   .dbline 140
 03B0           ;                  break;
 03B0 22C2              xjmp L57
 03B2           L61:
 03B2                   .dbline 142
 03B2           ;                 case 1:
 03B2           ;                  Set_White_off(7,1,8);
 03B2 88E0              ldi R24,8
 03B4 8883              std y+0,R24
 03B6 21E0              ldi R18,1
 03B8 07E0              ldi R16,7
 03BA 0E940000          xcall _Set_White_off
 03BE                   .dbline 143
 03BE           ;                  Set_White(7,2,8);
 03BE 88E0              ldi R24,8
 03C0 8883              std y+0,R24
 03C2 22E0              ldi R18,2
 03C4 07E0              ldi R16,7
 03C6 0E940000          xcall _Set_White
 03CA                   .dbline 144
 03CA           ;                  cur=3;
 03CA 43E0              ldi R20,3
 03CC 50E0              ldi R21,0
 03CE                   .dbline 145
 03CE           ;                  break;
 03CE 13C2              xjmp L57
 03D0           L62:
 03D0                   .dbline 147
 03D0           ;                 case 2:
 03D0           ;                  Set_White_off(2,2,3);
 03D0 83E0              ldi R24,3
 03D2 8883              std y+0,R24
 03D4 22E0              ldi R18,2
 03D6 02E0              ldi R16,2
 03D8 0E940000          xcall _Set_White_off
 03DC                   .dbline 148
 03DC           ;                  Set_White(2,3,3);
 03DC 83E0              ldi R24,3
 03DE 8883              std y+0,R24
 03E0 23E0              ldi R18,3
 03E2 02E0              ldi R16,2
 03E4 0E940000          xcall _Set_White
 03E8                   .dbline 149
 03E8           ;                  cur=4;
 03E8 44E0              ldi R20,4
 03EA 50E0              ldi R21,0
 03EC                   .dbline 150
 03EC           ;                  break;
 03EC 04C2              xjmp L57
 03EE           L63:
 03EE                   .dbline 152
 03EE           ;                 case 3:
 03EE           ;                  Set_White_off(7,2,8);
 03EE 88E0              ldi R24,8
 03F0 8883              std y+0,R24
 03F2 22E0              ldi R18,2
 03F4 07E0              ldi R16,7
 03F6 0E940000          xcall _Set_White_off
 03FA                   .dbline 153
 03FA           ;                  Set_White(6,3,7);
 03FA 87E0              ldi R24,7
 03FC 8883              std y+0,R24
 03FE 23E0              ldi R18,3
 0400 06E0              ldi R16,6
 0402 0E940000          xcall _Set_White
 0406                   .dbline 154
 0406           ;                  cur=5;
 0406 45E0              ldi R20,5
 0408 50E0              ldi R21,0
 040A                   .dbline 155
 040A           ;                  break;
 040A                   .dbline 157
 040A           ;                 default:
 040A           ;                  break;
 040A                   .dbline 159
 040A           ;                }
 040A           ;       }else if(keyV=='u'){switch(cur){
 040A F5C1              xjmp L57
 040C           L56:
 040C                   .dbline 159
 040C 8A2D              mov R24,R10
 040E 8537              cpi R24,117
 0410 09F0              breq X66
 0412 61C0              xjmp L64
 0414           X66:
 0414           X25:
 0414                   .dbline 159
 0414                   .dbline 159
 0414 4230              cpi R20,2
 0416 E0E0              ldi R30,0
 0418 5E07              cpc R21,R30
 041A 91F0              breq L68
 041C           X26:
 041C 4330              cpi R20,3
 041E E0E0              ldi R30,0
 0420 5E07              cpc R21,R30
 0422 E9F0              breq L69
 0424           X27:
 0424 4430              cpi R20,4
 0426 E0E0              ldi R30,0
 0428 5E07              cpc R21,R30
 042A 41F1              breq L70
 042C           X28:
 042C 4530              cpi R20,5
 042E E0E0              ldi R30,0
 0430 5E07              cpc R21,R30
 0432 99F1              breq L71
 0434           X29:
 0434 4630              cpi R20,6
 0436 E0E0              ldi R30,0
 0438 5E07              cpc R21,R30
 043A 09F4              brne X67
 043C 3DC0              xjmp L72
 043E           X67:
 043E           X30:
 043E DBC1              xjmp L65
 0440           L68:
 0440                   .dbline 161
 0440           ;                 case 2:
 0440           ;                  Set_White_off(2,2,3);
 0440 83E0              ldi R24,3
 0442 8883              std y+0,R24
 0444 22E0              ldi R18,2
 0446 02E0              ldi R16,2
 0448 0E940000          xcall _Set_White_off
 044C                   .dbline 162
 044C           ;                  Set_White(2,1,3);
 044C 83E0              ldi R24,3
 044E 8883              std y+0,R24
 0450 21E0              ldi R18,1
 0452 02E0              ldi R16,2
 0454 0E940000          xcall _Set_White
 0458                   .dbline 163
 0458           ;                  cur=0;
 0458 4427              clr R20
 045A 5527              clr R21
 045C                   .dbline 164
 045C           ;                  break;
 045C CCC1              xjmp L65
 045E           L69:
 045E                   .dbline 166
 045E           ;                 case 3:
 045E           ;                  Set_White_off(7,2,8);
 045E 88E0              ldi R24,8
 0460 8883              std y+0,R24
 0462 22E0              ldi R18,2
 0464 07E0              ldi R16,7
 0466 0E940000          xcall _Set_White_off
 046A                   .dbline 167
 046A           ;                  Set_White(7,1,8);
 046A 88E0              ldi R24,8
 046C 8883              std y+0,R24
 046E 21E0              ldi R18,1
 0470 07E0              ldi R16,7
 0472 0E940000          xcall _Set_White
 0476                   .dbline 168
 0476           ;                  cur=1;
 0476 41E0              ldi R20,1
 0478 50E0              ldi R21,0
 047A                   .dbline 169
 047A           ;                  break;
 047A BDC1              xjmp L65
 047C           L70:
 047C                   .dbline 171
 047C           ;                 case 4:
 047C           ;                  Set_White_off(2,3,5);
 047C 85E0              ldi R24,5
 047E 8883              std y+0,R24
 0480 23E0              ldi R18,3
 0482 02E0              ldi R16,2
 0484 0E940000          xcall _Set_White_off
 0488                   .dbline 172
 0488           ;                  Set_White(2,2,3);
 0488 83E0              ldi R24,3
 048A 8883              std y+0,R24
 048C 22E0              ldi R18,2
 048E 02E0              ldi R16,2
 0490 0E940000          xcall _Set_White
 0494                   .dbline 173
 0494           ;                  cur=2;
 0494 42E0              ldi R20,2
 0496 50E0              ldi R21,0
 0498                   .dbline 174
 0498           ;                  break;
 0498 AEC1              xjmp L65
 049A           L71:
 049A                   .dbline 176
 049A           ;                 case 5:
 049A           ;                  Set_White_off(6,3,7);
 049A 87E0              ldi R24,7
 049C 8883              std y+0,R24
 049E 23E0              ldi R18,3
 04A0 06E0              ldi R16,6
 04A2 0E940000          xcall _Set_White_off
 04A6                   .dbline 177
 04A6           ;                  Set_White(7,2,8);
 04A6 88E0              ldi R24,8
 04A8 8883              std y+0,R24
 04AA 22E0              ldi R18,2
 04AC 07E0              ldi R16,7
 04AE 0E940000          xcall _Set_White
 04B2                   .dbline 178
 04B2           ;                  cur=3;
 04B2 43E0              ldi R20,3
 04B4 50E0              ldi R21,0
 04B6                   .dbline 179
 04B6           ;                  break;
 04B6 9FC1              xjmp L65
 04B8           L72:
 04B8                   .dbline 181
 04B8           ;                 case 6:
 04B8           ;                  Set_White_off(10,3,11);
 04B8 8BE0              ldi R24,11
 04BA 8883              std y+0,R24
 04BC 23E0              ldi R18,3
 04BE 0AE0              ldi R16,10
 04C0 0E940000          xcall _Set_White_off
 04C4                   .dbline 182
 04C4           ;                  Set_White(7,2,8);
 04C4 88E0              ldi R24,8
 04C6 8883              std y+0,R24
 04C8 22E0              ldi R18,2
 04CA 07E0              ldi R16,7
 04CC 0E940000          xcall _Set_White
 04D0                   .dbline 183
 04D0           ;                  cur=3;
 04D0 43E0              ldi R20,3
 04D2 50E0              ldi R21,0
 04D4                   .dbline 184
 04D4           ;                  break;
 04D4                   .dbline 186
 04D4           ;                 default:
 04D4           ;                  break;
 04D4                   .dbline 188
 04D4           ;                }
 04D4           ;       }else if(keyV=='l'){switch(cur){
 04D4 90C1              xjmp L65
 04D6           L64:
 04D6                   .dbline 188
 04D6 8A2D              mov R24,R10
 04D8 8C36              cpi R24,108
 04DA 09F0              breq X68
 04DC 4DC0              xjmp L73
 04DE           X68:
 04DE           X31:
 04DE                   .dbline 188
 04DE                   .dbline 188
 04DE 4130              cpi R20,1
 04E0 E0E0              ldi R30,0
 04E2 5E07              cpc R21,R30
 04E4 69F0              breq L77
 04E6           X32:
 04E6 4330              cpi R20,3
 04E8 E0E0              ldi R30,0
 04EA 5E07              cpc R21,R30
 04EC C1F0              breq L78
 04EE           X33:
 04EE 4530              cpi R20,5
 04F0 E0E0              ldi R30,0
 04F2 5E07              cpc R21,R30
 04F4 19F1              breq L79
 04F6           X34:
 04F6 4630              cpi R20,6
 04F8 E0E0              ldi R30,0
 04FA 5E07              cpc R21,R30
 04FC 71F1              breq L80
 04FE           X35:
 04FE 7BC1              xjmp L74
 0500           L77:
 0500                   .dbline 190
 0500           ;                 case 1:
 0500           ;                  Set_White_off(7,1,8);
 0500 88E0              ldi R24,8
 0502 8883              std y+0,R24
 0504 21E0              ldi R18,1
 0506 07E0              ldi R16,7
 0508 0E940000          xcall _Set_White_off
 050C                   .dbline 191
 050C           ;                  Set_White(2,1,3);
 050C 83E0              ldi R24,3
 050E 8883              std y+0,R24
 0510 21E0              ldi R18,1
 0512 02E0              ldi R16,2
 0514 0E940000          xcall _Set_White
 0518                   .dbline 192
 0518           ;                  cur=0;
 0518 4427              clr R20
 051A 5527              clr R21
 051C                   .dbline 193
 051C           ;                  break;
 051C 6CC1              xjmp L74
 051E           L78:
 051E                   .dbline 195
 051E           ;                 case 3:
 051E           ;                  Set_White_off(7,2,8);
 051E 88E0              ldi R24,8
 0520 8883              std y+0,R24
 0522 22E0              ldi R18,2
 0524 07E0              ldi R16,7
 0526 0E940000          xcall _Set_White_off
 052A                   .dbline 196
 052A           ;                  Set_White(2,2,3);
 052A 83E0              ldi R24,3
 052C 8883              std y+0,R24
 052E 22E0              ldi R18,2
 0530 02E0              ldi R16,2
 0532 0E940000          xcall _Set_White
 0536                   .dbline 197
 0536           ;                  cur=2;
 0536 42E0              ldi R20,2
 0538 50E0              ldi R21,0
 053A                   .dbline 198
 053A           ;                  break;
 053A 5DC1              xjmp L74
 053C           L79:
 053C                   .dbline 200
 053C           ;                 case 5:
 053C           ;                  Set_White_off(6,3,7);
 053C 87E0              ldi R24,7
 053E 8883              std y+0,R24
 0540 23E0              ldi R18,3
 0542 06E0              ldi R16,6
 0544 0E940000          xcall _Set_White_off
 0548                   .dbline 201
 0548           ;                  Set_White(2,3,3);
 0548 83E0              ldi R24,3
 054A 8883              std y+0,R24
 054C 23E0              ldi R18,3
 054E 02E0              ldi R16,2
 0550 0E940000          xcall _Set_White
 0554                   .dbline 202
 0554           ;                  cur=4;
 0554 44E0              ldi R20,4
 0556 50E0              ldi R21,0
 0558                   .dbline 203
 0558           ;                  break;
 0558 4EC1              xjmp L74
 055A           L80:
 055A                   .dbline 205
 055A           ;                 case 6:
 055A           ;                  Set_White_off(10,3,11);
 055A 8BE0              ldi R24,11
 055C 8883              std y+0,R24
 055E 23E0              ldi R18,3
 0560 0AE0              ldi R16,10
 0562 0E940000          xcall _Set_White_off
 0566                   .dbline 206
 0566           ;                  Set_White(6,3,7);
 0566 87E0              ldi R24,7
 0568 8883              std y+0,R24
 056A 23E0              ldi R18,3
 056C 06E0              ldi R16,6
 056E 0E940000          xcall _Set_White
 0572                   .dbline 207
 0572           ;                  cur=5;
 0572 45E0              ldi R20,5
 0574 50E0              ldi R21,0
 0576                   .dbline 208
 0576           ;                  break;
 0576                   .dbline 210
 0576           ;                 default:
 0576           ;                  break;
 0576                   .dbline 212
 0576           ;                }
 0576           ;       }else if(keyV=='r'){
 0576 3FC1              xjmp L74
 0578           L73:
 0578                   .dbline 212
 0578 8A2D              mov R24,R10
 057A 8237              cpi R24,114
 057C 09F0              breq X69
 057E 4CC0              xjmp L81
 0580           X69:
 0580           X36:
 0580                   .dbline 212
 0580                   .dbline 213
 0580           ;       switch(cur){
 0580 4030              cpi R20,0
 0582 4507              cpc R20,R21
 0584 69F0              breq L85
 0586           X37:
 0586 4230              cpi R20,2
 0588 E0E0              ldi R30,0
 058A 5E07              cpc R21,R30
 058C C1F0              breq L86
 058E           X38:
 058E 4430              cpi R20,4
 0590 E0E0              ldi R30,0
 0592 5E07              cpc R21,R30
 0594 19F1              breq L87
 0596           X39:
 0596 4530              cpi R20,5
 0598 E0E0              ldi R30,0
 059A 5E07              cpc R21,R30
 059C 71F1              breq L88
 059E           X40:
 059E 2BC1              xjmp L82
 05A0           L85:
 05A0                   .dbline 215
 05A0           ;                 case 0:
 05A0           ;                  Set_White_off(2,1,3);
 05A0 83E0              ldi R24,3
 05A2 8883              std y+0,R24
 05A4 21E0              ldi R18,1
 05A6 02E0              ldi R16,2
 05A8 0E940000          xcall _Set_White_off
 05AC                   .dbline 216
 05AC           ;                  Set_White(7,1,8);
 05AC 88E0              ldi R24,8
 05AE 8883              std y+0,R24
 05B0 21E0              ldi R18,1
 05B2 07E0              ldi R16,7
 05B4 0E940000          xcall _Set_White
 05B8                   .dbline 217
 05B8           ;                  cur=1;
 05B8 41E0              ldi R20,1
 05BA 50E0              ldi R21,0
 05BC                   .dbline 218
 05BC           ;                  break;
 05BC 1CC1              xjmp L82
 05BE           L86:
 05BE                   .dbline 220
 05BE           ;                 case 2:
 05BE           ;                  Set_White_off(2,2,3);
 05BE 83E0              ldi R24,3
 05C0 8883              std y+0,R24
 05C2 22E0              ldi R18,2
 05C4 02E0              ldi R16,2
 05C6 0E940000          xcall _Set_White_off
 05CA                   .dbline 221
 05CA           ;                  Set_White(7,2,8);
 05CA 88E0              ldi R24,8
 05CC 8883              std y+0,R24
 05CE 22E0              ldi R18,2
 05D0 07E0              ldi R16,7
 05D2 0E940000          xcall _Set_White
 05D6                   .dbline 222
 05D6           ;                  cur=3;
 05D6 43E0              ldi R20,3
 05D8 50E0              ldi R21,0
 05DA                   .dbline 223
 05DA           ;                  break;
 05DA 0DC1              xjmp L82
 05DC           L87:
 05DC                   .dbline 225
 05DC           ;                 case 4:
 05DC           ;                  Set_White_off(2,3,3);
 05DC 83E0              ldi R24,3
 05DE 8883              std y+0,R24
 05E0 23E0              ldi R18,3
 05E2 02E0              ldi R16,2
 05E4 0E940000          xcall _Set_White_off
 05E8                   .dbline 226
 05E8           ;                  Set_White(6,3,7);
 05E8 87E0              ldi R24,7
 05EA 8883              std y+0,R24
 05EC 23E0              ldi R18,3
 05EE 06E0              ldi R16,6
 05F0 0E940000          xcall _Set_White
 05F4                   .dbline 227
 05F4           ;                  cur=5;
 05F4 45E0              ldi R20,5
 05F6 50E0              ldi R21,0
 05F8                   .dbline 228
 05F8           ;                  break;
 05F8 FEC0              xjmp L82
 05FA           L88:
 05FA                   .dbline 230
 05FA           ;                 case 5:
 05FA           ;                  Set_White_off(6,3,7);
 05FA 87E0              ldi R24,7
 05FC 8883              std y+0,R24
 05FE 23E0              ldi R18,3
 0600 06E0              ldi R16,6
 0602 0E940000          xcall _Set_White_off
 0606                   .dbline 231
 0606           ;                  Set_White(10,3,11);
 0606 8BE0              ldi R24,11
 0608 8883              std y+0,R24
 060A 23E0              ldi R18,3
 060C 0AE0              ldi R16,10
 060E 0E940000          xcall _Set_White
 0612                   .dbline 232
 0612           ;                  cur=6;
 0612 46E0              ldi R20,6
 0614 50E0              ldi R21,0
 0616                   .dbline 233
 0616           ;                  break;
 0616                   .dbline 235
 0616           ;                 default:
 0616           ;                  break;
 0616                   .dbline 237
 0616           ;                }
 0616           ;       }else if(keyV=='s'){
 0616 EFC0              xjmp L82
 0618           L81:
 0618                   .dbline 237
 0618 8A2D              mov R24,R10
 061A 8337              cpi R24,115
 061C 09F0              breq X70
 061E 53C0              xjmp L89
 0620           X70:
 0620           X41:
 0620                   .dbline 237
 0620                   .dbline 238
 0620           ;          pageNum=5;
 0620 85E0              ldi R24,5
 0622 90E0              ldi R25,0
 0624 90930100          sts _pageNum+1,R25
 0628 80930000          sts _pageNum,R24
 062C                   .dbline 239
 062C           ;          switch(cur){
 062C 4030              cpi R20,0
 062E 4507              cpc R20,R21
 0630 C9F0              breq L93
 0632           X42:
 0632 4130              cpi R20,1
 0634 E0E0              ldi R30,0
 0636 5E07              cpc R21,R30
 0638 E1F0              breq L94
 063A           X43:
 063A 4230              cpi R20,2
 063C E0E0              ldi R30,0
 063E 5E07              cpc R21,R30
 0640 F9F0              breq L95
 0642           X44:
 0642 4330              cpi R20,3
 0644 E0E0              ldi R30,0
 0646 5E07              cpc R21,R30
 0648 11F1              breq L96
 064A           X45:
 064A 4430              cpi R20,4
 064C E0E0              ldi R30,0
 064E 5E07              cpc R21,R30
 0650 29F1              breq L97
 0652           X46:
 0652 4530              cpi R20,5
 0654 E0E0              ldi R30,0
 0656 5E07              cpc R21,R30
 0658 41F1              breq L98
 065A           X47:
 065A 4630              cpi R20,6
 065C E0E0              ldi R30,0
 065E 5E07              cpc R21,R30
 0660 59F1              breq L99
 0662           X48:
 0662 CAC0              xjmp L4
 0664           L93:
 0664                   .dbline 241
 0664           ;                case 0: 
 0664           ;                   Set_White_off(2,1,3);
 0664 83E0              ldi R24,3
 0666 8883              std y+0,R24
 0668 21E0              ldi R18,1
 066A 02E0              ldi R16,2
 066C 0E940000          xcall _Set_White_off
 0670                   .dbline 242
 0670           ;                   break;
 0670 C3C0              xjmp L4
 0672           L94:
 0672                   .dbline 244
 0672           ;                case 1:
 0672           ;                  Set_White_off(7,1,8);
 0672 88E0              ldi R24,8
 0674 8883              std y+0,R24
 0676 21E0              ldi R18,1
 0678 07E0              ldi R16,7
 067A 0E940000          xcall _Set_White_off
 067E                   .dbline 245
 067E           ;                  break;
 067E BCC0              xjmp L4
 0680           L95:
 0680                   .dbline 247
 0680           ;                case 2:
 0680           ;                 Set_White_off(2,2,3);
 0680 83E0              ldi R24,3
 0682 8883              std y+0,R24
 0684 22E0              ldi R18,2
 0686 02E0              ldi R16,2
 0688 0E940000          xcall _Set_White_off
 068C                   .dbline 248
 068C           ;                 break;
 068C B5C0              xjmp L4
 068E           L96:
 068E                   .dbline 250
 068E           ;                case 3:
 068E           ;                  Set_White_off(7,2,8);
 068E 88E0              ldi R24,8
 0690 8883              std y+0,R24
 0692 22E0              ldi R18,2
 0694 07E0              ldi R16,7
 0696 0E940000          xcall _Set_White_off
 069A                   .dbline 251
 069A           ;                   break;
 069A AEC0              xjmp L4
 069C           L97:
 069C                   .dbline 253
 069C           ;                case 4:
 069C           ;                   Set_White_off(2,3,3);
 069C 83E0              ldi R24,3
 069E 8883              std y+0,R24
 06A0 23E0              ldi R18,3
 06A2 02E0              ldi R16,2
 06A4 0E940000          xcall _Set_White_off
 06A8                   .dbline 254
 06A8           ;                   break;
 06A8 A7C0              xjmp L4
 06AA           L98:
 06AA                   .dbline 256
 06AA           ;               case 5:
 06AA           ;                   Set_White_off(6,3,7);
 06AA 87E0              ldi R24,7
 06AC 8883              std y+0,R24
 06AE 23E0              ldi R18,3
 06B0 06E0              ldi R16,6
 06B2 0E940000          xcall _Set_White_off
 06B6                   .dbline 257
 06B6           ;                   break;
 06B6 A0C0              xjmp L4
 06B8           L99:
 06B8                   .dbline 259
 06B8           ;                case 6:
 06B8           ;                  Set_White_off(10,3,11);
 06B8 8BE0              ldi R24,11
 06BA 8883              std y+0,R24
 06BC 23E0              ldi R18,3
 06BE 0AE0              ldi R16,10
 06C0 0E940000          xcall _Set_White_off
 06C4                   .dbline 260
 06C4           ;                   break;
 06C4                   .dbline 262
 06C4           ;                 default:
 06C4           ;                  break;
 06C4                   .dbline 264
 06C4           ;                }
 06C4           ;          return ;
 06C4 99C0              xjmp L4
 06C6           L89:
 06C6                   .dbline 265
 06C6           ;       }else if(keyV=='t'){
 06C6 8A2D              mov R24,R10
 06C8 8437              cpi R24,116
 06CA 09F0              breq X71
 06CC 94C0              xjmp L100
 06CE           X71:
 06CE           X49:
 06CE                   .dbline 265
 06CE                   .dbline 266
 06CE           ;          switch(cur){
 06CE 4030              cpi R20,0
 06D0 4507              cpc R20,R21
 06D2 F1F0              breq L104
 06D4           X50:
 06D4 4130              cpi R20,1
 06D6 E0E0              ldi R30,0
 06D8 5E07              cpc R21,R30
 06DA 91F1              breq L105
 06DC           X51:
 06DC 4230              cpi R20,2
 06DE E0E0              ldi R30,0
 06E0 5E07              cpc R21,R30
 06E2 09F4              brne X72
 06E4 43C0              xjmp L106
 06E6           X72:
 06E6           X52:
 06E6 4330              cpi R20,3
 06E8 E0E0              ldi R30,0
 06EA 5E07              cpc R21,R30
 06EC 09F4              brne X73
 06EE 55C0              xjmp L107
 06F0           X73:
 06F0           X53:
 06F0 4430              cpi R20,4
 06F2 E0E0              ldi R30,0
 06F4 5E07              cpc R21,R30
 06F6 09F4              brne X74
 06F8 66C0              xjmp L108
 06FA           X74:
 06FA           X54:
 06FA 4530              cpi R20,5
 06FC E0E0              ldi R30,0
 06FE 5E07              cpc R21,R30
 0700 09F4              brne X75
 0702 64C0              xjmp L109
 0704           X75:
 0704           X55:
 0704 4630              cpi R20,6
 0706 E0E0              ldi R30,0
 0708 5E07              cpc R21,R30
 070A 09F4              brne X76
 070C 62C0              xjmp L110
 070E           X76:
 070E           X56:
 070E 73C0              xjmp L103
 0710           L104:
 0710                   .dbline 268
 0710           ;                case 0: 
 0710           ;                   Set_White_off(2,1,3);
 0710 83E0              ldi R24,3
 0712 8883              std y+0,R24
 0714 21E0              ldi R18,1
 0716 02E0              ldi R16,2
 0718 0E940000          xcall _Set_White_off
 071C                   .dbline 269
 071C           ;                   prePageNum=1;
 071C 81E0              ldi R24,1
 071E 90E0              ldi R25,0
 0720 90930100          sts _prePageNum+1,R25
 0724 80930000          sts _prePageNum,R24
 0728                   .dbline 270
 0728           ;                   pageParam[0]=0;//传递使用第一个，对应不同的温度
 0728 2224              clr R2
 072A 3324              clr R3
 072C 30920100          sts _pageParam+1,R3
 0730 20920000          sts _pageParam,R2
 0734                   .dbline 271
 0734           ;                   pageNum=3;
 0734 83E0              ldi R24,3
 0736 90930100          sts _pageNum+1,R25
 073A 80930000          sts _pageNum,R24
 073E                   .dbline 272
 073E           ;                   return;
 073E 5CC0              xjmp L4
 0740           L105:
 0740                   .dbline 274
 0740           ;                case 1:
 0740           ;                  Set_White_off(7,1,8);
 0740 88E0              ldi R24,8
 0742 8883              std y+0,R24
 0744 21E0              ldi R18,1
 0746 07E0              ldi R16,7
 0748 0E940000          xcall _Set_White_off
 074C                   .dbline 275
 074C           ;                   prePageNum=1;
 074C 81E0              ldi R24,1
 074E 90E0              ldi R25,0
 0750 90930100          sts _prePageNum+1,R25
 0754 80930000          sts _prePageNum,R24
 0758                   .dbline 276
 0758           ;                  pageParam[0]=1;//传递使用第一个，对应不同的温度
 0758 90930100          sts _pageParam+1,R25
 075C 80930000          sts _pageParam,R24
 0760                   .dbline 277
 0760           ;                   pageNum=3;
 0760 83E0              ldi R24,3
 0762 90930100          sts _pageNum+1,R25
 0766 80930000          sts _pageNum,R24
 076A                   .dbline 278
 076A           ;                   return;
 076A 46C0              xjmp L4
 076C           L106:
 076C                   .dbline 280
 076C           ;                case 2:
 076C           ;                 Set_White_off(2,2,3);
 076C 83E0              ldi R24,3
 076E 8883              std y+0,R24
 0770 22E0              ldi R18,2
 0772 02E0              ldi R16,2
 0774 0E940000          xcall _Set_White_off
 0778                   .dbline 281
 0778           ;                   prePageNum=1;
 0778 81E0              ldi R24,1
 077A 90E0              ldi R25,0
 077C 90930100          sts _prePageNum+1,R25
 0780 80930000          sts _prePageNum,R24
 0784                   .dbline 282
 0784           ;                   pageParam[0]=2;//传递使用第一个，对应不同的温度
 0784 82E0              ldi R24,2
 0786 90930100          sts _pageParam+1,R25
 078A 80930000          sts _pageParam,R24
 078E                   .dbline 283
 078E           ;                  pageNum=3;
 078E 83E0              ldi R24,3
 0790 90930100          sts _pageNum+1,R25
 0794 80930000          sts _pageNum,R24
 0798                   .dbline 284
 0798           ;                  return;
 0798 2FC0              xjmp L4
 079A           L107:
 079A                   .dbline 286
 079A           ;                case 3:
 079A           ;                  Set_White_off(7,2,8);
 079A 88E0              ldi R24,8
 079C 8883              std y+0,R24
 079E 22E0              ldi R18,2
 07A0 07E0              ldi R16,7
 07A2 0E940000          xcall _Set_White_off
 07A6                   .dbline 287
 07A6           ;                    prePageNum=1;
 07A6 81E0              ldi R24,1
 07A8 90E0              ldi R25,0
 07AA 90930100          sts _prePageNum+1,R25
 07AE 80930000          sts _prePageNum,R24
 07B2                   .dbline 288
 07B2           ;                   pageParam[0]=3;//传递使用第一个，对应不同的温度
 07B2 83E0              ldi R24,3
 07B4 90930100          sts _pageParam+1,R25
 07B8 80930000          sts _pageParam,R24
 07BC                   .dbline 289
 07BC           ;                   pageNum=3;
 07BC 90930100          sts _pageNum+1,R25
 07C0 80930000          sts _pageNum,R24
 07C4                   .dbline 290
 07C4           ;                   return;
 07C4 19C0              xjmp L4
 07C6           L108:
 07C6                   .dbline 293
 07C6           ;                case 4:
 07C6           ;                   //调用函数全部开始，参数正确的
 07C6           ;                       set_all_start();
 07C6 0E940000          xcall _set_all_start
 07CA                   .dbline 294
 07CA           ;                  break;
 07CA 15C0              xjmp L103
 07CC           L109:
 07CC                   .dbline 297
 07CC           ;                case 5:
 07CC           ;                   //全部停止
 07CC           ;                       set_all_stop();
 07CC 0E940000          xcall _set_all_stop
 07D0                   .dbline 298
 07D0           ;                  break;
 07D0 12C0              xjmp L103
 07D2           L110:
 07D2                   .dbline 300
 07D2           ;                case 6://设置
 07D2           ;                  Set_White_off(10,3,11);
 07D2 8BE0              ldi R24,11
 07D4 8883              std y+0,R24
 07D6 23E0              ldi R18,3
 07D8 0AE0              ldi R16,10
 07DA 0E940000          xcall _Set_White_off
 07DE                   .dbline 301
 07DE           ;                  prePageNum=1;
 07DE 81E0              ldi R24,1
 07E0 90E0              ldi R25,0
 07E2 90930100          sts _prePageNum+1,R25
 07E6 80930000          sts _prePageNum,R24
 07EA                   .dbline 302
 07EA           ;                  pageNum=5;
 07EA 85E0              ldi R24,5
 07EC 90930100          sts _pageNum+1,R25
 07F0 80930000          sts _pageNum,R24
 07F4                   .dbline 303
 07F4           ;                   return;
 07F4 01C0              xjmp L4
 07F6           L103:
 07F6                   .dbline 308
 07F6           ;                 default:
 07F6           ;                  break;
 07F6           ;                }
 07F6           ;       
 07F6           ;       }
 07F6           L100:
 07F6           L82:
 07F6           L74:
 07F6           L65:
 07F6           L57:
 07F6                   .dbline 309
 07F6           ;   }
 07F6           L13:
 07F6                   .dbline 56
 07F6 76CC              xjmp L12
 07F8           X57:
 07F8                   .dbline -2
 07F8           L4:
 07F8                   .dbline 0 ; func end
 07F8 2296              adiw R28,2
 07FA 0C940000          xjmp pop_xgsetF03C
 07FE                   .dbsym r cur 20 i
 07FE                   .dbsym r keyV 10 c
 07FE                   .dbsym r y 22 i
 07FE                   .dbsym r i 10 i
 07FE                   .dbend
 07FE                   .dbfunc e page2 _page2 fV
 07FE           ;            ft2 -> R10,R11
 07FE           ;            ft1 -> R12,R13
 07FE           ;            ft0 -> R14,R15
 07FE           ;            ft3 -> R22,R23
 07FE           ;            cur -> R20,R21
 07FE           ;           keyV -> R10
                        .even
 07FE           _page2::
 07FE 0E940000          xcall push_xgsetF0FC
 0802 2297              sbiw R28,2
 0804                   .dbline -1
 0804                   .dbline 312
 0804           ;    return;
 0804           ; }
 0804           ;  void page2(void){
 0804                   .dbline 313
 0804           ;    uint cur=0;
 0804 4427              clr R20
 0806 5527              clr R21
 0808                   .dbline 316
 0808           ;    uchar keyV;
 0808           ;    uint ft0,ft1,ft2,ft3;
 0808           ;    ft0=EEPROM_read(1,0);
 0808 2227              clr R18
 080A 3327              clr R19
 080C 01E0              ldi R16,1
 080E 10E0              ldi R17,0
 0810 0E940000          xcall _EEPROM_read
 0814 7801              movw R14,R16
 0816                   .dbline 317
 0816           ;    ft1=EEPROM_read(2,0);
 0816 2227              clr R18
 0818 3327              clr R19
 081A 02E0              ldi R16,2
 081C 10E0              ldi R17,0
 081E 0E940000          xcall _EEPROM_read
 0822 6801              movw R12,R16
 0824                   .dbline 318
 0824           ;    ft2=EEPROM_read(3,0);
 0824 2227              clr R18
 0826 3327              clr R19
 0828 03E0              ldi R16,3
 082A 10E0              ldi R17,0
 082C 0E940000          xcall _EEPROM_read
 0830 5801              movw R10,R16
 0832                   .dbline 319
 0832           ;    ft3=EEPROM_read(4,0);
 0832 2227              clr R18
 0834 3327              clr R19
 0836 04E0              ldi R16,4
 0838 10E0              ldi R17,0
 083A 0E940000          xcall _EEPROM_read
 083E B801              movw R22,R16
 0840                   .dbline 320
 0840           ;  if(!(ft0==0 && ft1==0 && ft2==0 && ft3==0)){//判断是否有数据，任何一个有数据就询问是否恢复
 0840 EE20              tst R14
 0842 71F4              brne L116
 0844 FF20              tst R15
 0846 61F4              brne L116
 0848           X77:
 0848 CC20              tst R12
 084A 51F4              brne L116
 084C DD20              tst R13
 084E 41F4              brne L116
 0850           X78:
 0850 AA20              tst R10
 0852 31F4              brne L116
 0854 BB20              tst R11
 0856 21F4              brne L116
 0858           X79:
 0858 0030              cpi R16,0
 085A 0107              cpc R16,R17
 085C 09F4              brne X91
 085E 03C1              xjmp L112
 0860           X91:
 0860           X80:
 0860           L116:
 0860                   .dbline 320
 0860                   .dbline 322
 0860           ;    //初始画面，会有读取EEPROM的判断默认操作，本次只是画界面
 0860           ;    lcd_write_str(2,0,"是否恢复上次工作");
 0860 80E0              ldi R24,<L117
 0862 90E0              ldi R25,>L117
 0864 9983              std y+1,R25
 0866 8883              std y+0,R24
 0868 2227              clr R18
 086A 02E0              ldi R16,2
 086C 0E940000          xcall _lcd_write_str
 0870                   .dbline 323
 0870           ;    lcd_write_str(2,2,"恢复");
 0870 80E0              ldi R24,<L118
 0872 90E0              ldi R25,>L118
 0874 9983              std y+1,R25
 0876 8883              std y+0,R24
 0878 22E0              ldi R18,2
 087A 02E0              ldi R16,2
 087C 0E940000          xcall _lcd_write_str
 0880                   .dbline 324
 0880           ;    lcd_write_str(8,2,"取消");
 0880 80E0              ldi R24,<L119
 0882 90E0              ldi R25,>L119
 0884 9983              std y+1,R25
 0886 8883              std y+0,R24
 0888 22E0              ldi R18,2
 088A 08E0              ldi R16,8
 088C 0E940000          xcall _lcd_write_str
 0890                   .dbline 325
 0890           ;    ft3=EEPROM_read(0,0);//复用读取首选项
 0890 2227              clr R18
 0892 3327              clr R19
 0894 0027              clr R16
 0896 1127              clr R17
 0898 0E940000          xcall _EEPROM_read
 089C 5801              movw R10,R16
 089E B501              movw R22,R10
 08A0                   .dbline 326
 08A0           ;    if(ft3==1){//默认恢复
 08A0 0130              cpi R16,1
 08A2 E0E0              ldi R30,0
 08A4 1E07              cpc R17,R30
 08A6 49F4              brne L120
 08A8           X81:
 08A8                   .dbline 326
 08A8                   .dbline 327
 08A8           ;      cur=0;
 08A8 4427              clr R20
 08AA 5527              clr R21
 08AC                   .dbline 328
 08AC           ;      Set_White(3,2,4);
 08AC 84E0              ldi R24,4
 08AE 8883              std y+0,R24
 08B0 22E0              ldi R18,2
 08B2 03E0              ldi R16,3
 08B4 0E940000          xcall _Set_White
 08B8                   .dbline 329
 08B8           ;    }else{
 08B8 08C0              xjmp L121
 08BA           L120:
 08BA                   .dbline 329
 08BA                   .dbline 330
 08BA           ;      cur=1;
 08BA 41E0              ldi R20,1
 08BC 50E0              ldi R21,0
 08BE                   .dbline 331
 08BE           ;      Set_White(9,2,10);
 08BE 8AE0              ldi R24,10
 08C0 8883              std y+0,R24
 08C2 22E0              ldi R18,2
 08C4 09E0              ldi R16,9
 08C6 0E940000          xcall _Set_White
 08CA                   .dbline 332
 08CA           ;    }
 08CA           L121:
 08CA                   .dbline 333
 08CA           ;    Timerinit_0(0x00); //使用定时器，定时一段时间更改标记，while中读取这个标记确定是否结束while
 08CA 0027              clr R16
 08CC 0E940000          xcall _Timerinit_0
 08D0 C9C0              xjmp L123
 08D2           L122:
 08D2                   .dbline 334
 08D2           ;     while(1){
 08D2                   .dbline 335
 08D2           ;       if(waitflag==1){
 08D2 80910000          lds R24,_waitflag
 08D6 90910100          lds R25,_waitflag+1
 08DA 8130              cpi R24,1
 08DC E0E0              ldi R30,0
 08DE 9E07              cpc R25,R30
 08E0 91F5              brne L125
 08E2           X82:
 08E2                   .dbline 335
 08E2                   .dbline 337
 08E2           ;         //执行相关操作
 08E2           ;                  Set_White_off(9,2,10);
 08E2 8AE0              ldi R24,10
 08E4 8883              std y+0,R24
 08E6 22E0              ldi R18,2
 08E8 09E0              ldi R16,9
 08EA 0E940000          xcall _Set_White_off
 08EE                   .dbline 338
 08EE           ;                   Set_White_off(3,2,4);
 08EE 84E0              ldi R24,4
 08F0 8883              std y+0,R24
 08F2 22E0              ldi R18,2
 08F4 03E0              ldi R16,3
 08F6 0E940000          xcall _Set_White_off
 08FA                   .dbline 339
 08FA           ;                       if(cur==0){
 08FA 4030              cpi R20,0
 08FC 4507              cpc R20,R21
 08FE 81F4              brne L127
 0900           X83:
 0900                   .dbline 339
 0900                   .dbline 340
 0900           ;                         lcd_clear();
 0900 0E940000          xcall _lcd_clear
 0904                   .dbline 341
 0904           ;                         lcd_write_str(5,2,"恢复中. . .");
 0904 80E0              ldi R24,<L129
 0906 90E0              ldi R25,>L129
 0908 9983              std y+1,R25
 090A 8883              std y+0,R24
 090C 22E0              ldi R18,2
 090E 05E0              ldi R16,5
 0910 0E940000          xcall _lcd_write_str
 0914                   .dbline 342
 0914           ;                         data_recover();//恢复数据，可以跳转到界面后操作。暂时放在这
 0914 0E940000          xcall _data_recover
 0918                   .dbline 343
 0918           ;                         delay_ms(200);
 0918 08EC              ldi R16,200
 091A 10E0              ldi R17,0
 091C 0E940000          xcall _delay_ms
 0920                   .dbline 344
 0920           ;                       }
 0920           L127:
 0920                   .dbline 345
 0920           ;                 pageNum=1;
 0920 81E0              ldi R24,1
 0922 90E0              ldi R25,0
 0924 90930100          sts _pageNum+1,R25
 0928 80930000          sts _pageNum,R24
 092C                   .dbline 346
 092C           ;                 t0_flag=1;
 092C 90930100          sts _t0_flag+1,R25
 0930 80930000          sts _t0_flag,R24
 0934                   .dbline 347
 0934           ;                 waitflag=32;
 0934 80E2              ldi R24,32
 0936 90930100          sts _waitflag+1,R25
 093A 80930000          sts _waitflag,R24
 093E                   .dbline 348
 093E           ;                 Timerinit_0(0x00);//计时器功能改变，用作读取温度使用.32次计数完成0.5s
 093E 0027              clr R16
 0940 0E940000          xcall _Timerinit_0
 0944                   .dbline 349
 0944           ;                 return;
 0944 A2C0              xjmp L111
 0946           L125:
 0946                   .dbline 351
 0946           ;         }
 0946           ;       keyV=KeyScan_once();
 0946 0E940000          xcall _KeyScan_once
 094A A02E              mov R10,R16
 094C                   .dbline 352
 094C           ;         switch(keyV){
 094C 6A2D              mov R22,R10
 094E 7727              clr R23
 0950 6C36              cpi R22,108
 0952 E0E0              ldi R30,0
 0954 7E07              cpc R23,R30
 0956 79F0              breq L133
 0958           X84:
 0958 6C36              cpi R22,108
 095A E0E0              ldi R30,0
 095C 7E07              cpc R23,R30
 095E 0CF4              brge X92
 0960 81C0              xjmp L130
 0962           X92:
 0962           X85:
 0962           L142:
 0962 6237              cpi R22,114
 0964 E0E0              ldi R30,0
 0966 7E07              cpc R23,R30
 0968 41F1              breq L136
 096A           X86:
 096A 6437              cpi R22,116
 096C E0E0              ldi R30,0
 096E 7E07              cpc R23,R30
 0970 09F4              brne X93
 0972 44C0              xjmp L139
 0974           X93:
 0974           X87:
 0974 77C0              xjmp L130
 0976           L133:
 0976                   .dbline 354
 0976           ;           case 'l':
 0976           ;                  TCCR0=0x00;//定时器停止
 0976 2224              clr R2
 0978 23BE              out 0x33,R2
 097A                   .dbline 355
 097A           ;                  lcd_write_char(10,0,' ');
 097A 80E2              ldi R24,32
 097C 8883              std y+0,R24
 097E 2227              clr R18
 0980 0AE0              ldi R16,10
 0982 0E940000          xcall _lcd_write_char
 0986                   .dbline 356
 0986           ;              lcd_write_char(11,0,' ');        
 0986 80E2              ldi R24,32
 0988 8883              std y+0,R24
 098A 2227              clr R18
 098C 0BE0              ldi R16,11
 098E 0E940000          xcall _lcd_write_char
 0992                   .dbline 357
 0992           ;                  if(cur==1){
 0992 4130              cpi R20,1
 0994 E0E0              ldi R30,0
 0996 5E07              cpc R21,R30
 0998 09F0              breq X94
 099A 64C0              xjmp L131
 099C           X94:
 099C           X88:
 099C                   .dbline 357
 099C                   .dbline 358
 099C           ;                     Set_White_off(9,2,10);
 099C 8AE0              ldi R24,10
 099E 8883              std y+0,R24
 09A0 22E0              ldi R18,2
 09A2 09E0              ldi R16,9
 09A4 0E940000          xcall _Set_White_off
 09A8                   .dbline 359
 09A8           ;                     Set_White(3,2,4);
 09A8 84E0              ldi R24,4
 09AA 8883              std y+0,R24
 09AC 22E0              ldi R18,2
 09AE 03E0              ldi R16,3
 09B0 0E940000          xcall _Set_White
 09B4                   .dbline 360
 09B4           ;                         cur=0;
 09B4 4427              clr R20
 09B6 5527              clr R21
 09B8                   .dbline 361
 09B8           ;                  }
 09B8                   .dbline 362
 09B8           ;                  break;
 09B8 55C0              xjmp L131
 09BA           L136:
 09BA                   .dbline 364
 09BA           ;               case 'r':
 09BA           ;                  TCCR0=0x00;//定时器停止
 09BA 2224              clr R2
 09BC 23BE              out 0x33,R2
 09BE                   .dbline 365
 09BE           ;                  lcd_write_char(10,0,' ');
 09BE 80E2              ldi R24,32
 09C0 8883              std y+0,R24
 09C2 2227              clr R18
 09C4 0AE0              ldi R16,10
 09C6 0E940000          xcall _lcd_write_char
 09CA                   .dbline 366
 09CA           ;              lcd_write_char(11,0,' ');        
 09CA 80E2              ldi R24,32
 09CC 8883              std y+0,R24
 09CE 2227              clr R18
 09D0 0BE0              ldi R16,11
 09D2 0E940000          xcall _lcd_write_char
 09D6                   .dbline 367
 09D6           ;                  if(cur==0){
 09D6 4030              cpi R20,0
 09D8 4507              cpc R20,R21
 09DA 09F0              breq X95
 09DC 43C0              xjmp L131
 09DE           X95:
 09DE           X89:
 09DE                   .dbline 367
 09DE                   .dbline 368
 09DE           ;                     Set_White_off(3,2,4);
 09DE 84E0              ldi R24,4
 09E0 8883              std y+0,R24
 09E2 22E0              ldi R18,2
 09E4 03E0              ldi R16,3
 09E6 0E940000          xcall _Set_White_off
 09EA                   .dbline 369
 09EA           ;                     Set_White(9,2,10);
 09EA 8AE0              ldi R24,10
 09EC 8883              std y+0,R24
 09EE 22E0              ldi R18,2
 09F0 09E0              ldi R16,9
 09F2 0E940000          xcall _Set_White
 09F6                   .dbline 370
 09F6           ;                         cur=1;
 09F6 41E0              ldi R20,1
 09F8 50E0              ldi R21,0
 09FA                   .dbline 371
 09FA           ;                  }
 09FA                   .dbline 373
 09FA           ;                  
 09FA           ;                 break;
 09FA 34C0              xjmp L131
 09FC           L139:
 09FC                   .dbline 376
 09FC           ;               case 't':
 09FC           ;                 //执行相关操作
 09FC           ;                  TCCR0=0x00;//定时器停止
 09FC 2224              clr R2
 09FE 23BE              out 0x33,R2
 0A00                   .dbline 377
 0A00           ;                  Set_White_off(9,2,10);
 0A00 8AE0              ldi R24,10
 0A02 8883              std y+0,R24
 0A04 22E0              ldi R18,2
 0A06 09E0              ldi R16,9
 0A08 0E940000          xcall _Set_White_off
 0A0C                   .dbline 378
 0A0C           ;                   Set_White_off(3,2,4);
 0A0C 84E0              ldi R24,4
 0A0E 8883              std y+0,R24
 0A10 22E0              ldi R18,2
 0A12 03E0              ldi R16,3
 0A14 0E940000          xcall _Set_White_off
 0A18                   .dbline 379
 0A18           ;                       if(cur==0){
 0A18 4030              cpi R20,0
 0A1A 4507              cpc R20,R21
 0A1C 81F4              brne L140
 0A1E           X90:
 0A1E                   .dbline 379
 0A1E                   .dbline 380
 0A1E           ;                         lcd_clear();
 0A1E 0E940000          xcall _lcd_clear
 0A22                   .dbline 381
 0A22           ;                         lcd_write_str(5,2,"恢复中. . .");
 0A22 80E0              ldi R24,<L129
 0A24 90E0              ldi R25,>L129
 0A26 9983              std y+1,R25
 0A28 8883              std y+0,R24
 0A2A 22E0              ldi R18,2
 0A2C 05E0              ldi R16,5
 0A2E 0E940000          xcall _lcd_write_str
 0A32                   .dbline 382
 0A32           ;                         data_recover();//恢复数据，可以跳转到界面后操作。暂时放在这
 0A32 0E940000          xcall _data_recover
 0A36                   .dbline 383
 0A36           ;                         delay_ms(200);
 0A36 08EC              ldi R16,200
 0A38 10E0              ldi R17,0
 0A3A 0E940000          xcall _delay_ms
 0A3E                   .dbline 384
 0A3E           ;                       }
 0A3E           L140:
 0A3E                   .dbline 385
 0A3E           ;                 pageNum=1;
 0A3E 81E0              ldi R24,1
 0A40 90E0              ldi R25,0
 0A42 90930100          sts _pageNum+1,R25
 0A46 80930000          sts _pageNum,R24
 0A4A                   .dbline 386
 0A4A           ;                 t0_flag=1;
 0A4A 90930100          sts _t0_flag+1,R25
 0A4E 80930000          sts _t0_flag,R24
 0A52                   .dbline 387
 0A52           ;                 waitflag=32;
 0A52 80E2              ldi R24,32
 0A54 90930100          sts _waitflag+1,R25
 0A58 80930000          sts _waitflag,R24
 0A5C                   .dbline 388
 0A5C           ;                 Timerinit_0(0x00);//计时器功能改变，用作读取温度使用.32次计数完成0.5s
 0A5C 0027              clr R16
 0A5E 0E940000          xcall _Timerinit_0
 0A62                   .dbline 389
 0A62           ;                 return;
 0A62 13C0              xjmp L111
 0A64           L130:
 0A64           L131:
 0A64                   .dbline 391
 0A64           ;         }
 0A64           ;       }
 0A64           L123:
 0A64                   .dbline 334
 0A64 36CF              xjmp L122
 0A66           L112:
 0A66                   .dbline 392
 0A66           ;   }else{
 0A66                   .dbline 393
 0A66           ;      pageNum=1;
 0A66 81E0              ldi R24,1
 0A68 90E0              ldi R25,0
 0A6A 90930100          sts _pageNum+1,R25
 0A6E 80930000          sts _pageNum,R24
 0A72                   .dbline 394
 0A72           ;        t0_flag=1;
 0A72 90930100          sts _t0_flag+1,R25
 0A76 80930000          sts _t0_flag,R24
 0A7A                   .dbline 395
 0A7A           ;        waitflag=32;
 0A7A 80E2              ldi R24,32
 0A7C 90930100          sts _waitflag+1,R25
 0A80 80930000          sts _waitflag,R24
 0A84                   .dbline 396
 0A84           ;        Timerinit_0(0x00);//计时器功能改变，用作读取温度使用.32次计数完成0.5s
 0A84 0027              clr R16
 0A86 0E940000          xcall _Timerinit_0
 0A8A                   .dbline 397
 0A8A           ;      return;
 0A8A           L113:
 0A8A                   .dbline -2
 0A8A           L111:
 0A8A                   .dbline 0 ; func end
 0A8A 2296              adiw R28,2
 0A8C 0C940000          xjmp pop_xgsetF0FC
 0A90                   .dbsym r ft2 10 i
 0A90                   .dbsym r ft1 12 i
 0A90                   .dbsym r ft0 14 i
 0A90                   .dbsym r ft3 22 i
 0A90                   .dbsym r cur 20 i
 0A90                   .dbsym r keyV 10 c
 0A90                   .dbend
 0A90                   .dbfunc e page3 _page3 fV
 0A90           ;            cur -> R20,R21
 0A90           ;      timecache -> R22,R23
 0A90           ;           keyV -> R22
                        .even
 0A90           _page3::
 0A90 0E940000          xcall push_xgsetF000
 0A94 2297              sbiw R28,2
 0A96                   .dbline -1
 0A96                   .dbline 400
 0A96           ;   }
 0A96           ;  }
 0A96           ;  void page3(void){
 0A96                   .dbline 401
 0A96           ;   uint cur=0;
 0A96 4427              clr R20
 0A98 5527              clr R21
 0A9A                   .dbline 404
 0A9A           ;    uchar keyV;
 0A9A           ;    uint timecache;
 0A9A           ;    lcd_write_str(0,0,"T");
 0A9A 80E0              ldi R24,<L144
 0A9C 90E0              ldi R25,>L144
 0A9E 9983              std y+1,R25
 0AA0 8883              std y+0,R24
 0AA2 2227              clr R18
 0AA4 0027              clr R16
 0AA6 0E940000          xcall _lcd_write_str
 0AAA                   .dbline 405
 0AAA           ;     lcd_write_char_con(0,0x30 | (pageParam[0]+1));
 0AAA 20910000          lds R18,_pageParam
 0AAE 30910100          lds R19,_pageParam+1
 0AB2 2F5F              subi R18,255  ; offset = 1
 0AB4 3F4F              sbci R19,255
 0AB6 2063              ori R18,48
 0AB8 0027              clr R16
 0ABA 0E940000          xcall _lcd_write_char_con
 0ABE                   .dbline 406
 0ABE           ;       lcd_write_char_con(0,':');
 0ABE 2AE3              ldi R18,58
 0AC0 0027              clr R16
 0AC2 0E940000          xcall _lcd_write_char_con
 0AC6                   .dbline 407
 0AC6           ;    lcd_write_str(1,1,"温度:");
 0AC6 80E0              ldi R24,<L145
 0AC8 90E0              ldi R25,>L145
 0ACA 9983              std y+1,R25
 0ACC 8883              std y+0,R24
 0ACE 21E0              ldi R18,1
 0AD0 01E0              ldi R16,1
 0AD2 0E940000          xcall _lcd_write_str
 0AD6                   .dbline 408
 0AD6           ;    lcd_write_str(7,1,"目标:");
 0AD6 80E0              ldi R24,<L146
 0AD8 90E0              ldi R25,>L146
 0ADA 9983              std y+1,R25
 0ADC 8883              std y+0,R24
 0ADE 21E0              ldi R18,1
 0AE0 07E0              ldi R16,7
 0AE2 0E940000          xcall _lcd_write_str
 0AE6                   .dbline 409
 0AE6           ;    lcd_write_str(1,2,"状态:");
 0AE6 80E0              ldi R24,<L147
 0AE8 90E0              ldi R25,>L147
 0AEA 9983              std y+1,R25
 0AEC 8883              std y+0,R24
 0AEE 22E0              ldi R18,2
 0AF0 01E0              ldi R16,1
 0AF2 0E940000          xcall _lcd_write_str
 0AF6                   .dbline 410
 0AF6           ;    lcd_write_str(0,3,"编辑");
 0AF6 80E0              ldi R24,<L148
 0AF8 90E0              ldi R25,>L148
 0AFA 9983              std y+1,R25
 0AFC 8883              std y+0,R24
 0AFE 23E0              ldi R18,3
 0B00 0027              clr R16
 0B02 0E940000          xcall _lcd_write_str
 0B06                   .dbline 411
 0B06           ;    lcd_write_str(3,3,"运行");
 0B06 80E0              ldi R24,<L149
 0B08 90E0              ldi R25,>L149
 0B0A 9983              std y+1,R25
 0B0C 8883              std y+0,R24
 0B0E 23E0              ldi R18,3
 0B10 03E0              ldi R16,3
 0B12 0E940000          xcall _lcd_write_str
 0B16                   .dbline 412
 0B16           ;    lcd_write_str(7,3,"暂停");
 0B16 80E0              ldi R24,<L39
 0B18 90E0              ldi R25,>L39
 0B1A 9983              std y+1,R25
 0B1C 8883              std y+0,R24
 0B1E 23E0              ldi R18,3
 0B20 07E0              ldi R16,7
 0B22 0E940000          xcall _lcd_write_str
 0B26                   .dbline 413
 0B26           ;    lcd_write_str(10,3,"重置");
 0B26 80E0              ldi R24,<L150
 0B28 90E0              ldi R25,>L150
 0B2A 9983              std y+1,R25
 0B2C 8883              std y+0,R24
 0B2E 23E0              ldi R18,3
 0B30 0AE0              ldi R16,10
 0B32 0E940000          xcall _lcd_write_str
 0B36                   .dbline 414
 0B36           ;    Set_White(1,3,2);
 0B36 82E0              ldi R24,2
 0B38 8883              std y+0,R24
 0B3A 23E0              ldi R18,3
 0B3C 01E0              ldi R16,1
 0B3E 0E940000          xcall _Set_White
 0B42 3BC3              xjmp L152
 0B44           L151:
 0B44                   .dbline 416
 0B44           ;    //Set_White(9,2,10);
 0B44           ;     while(1){
 0B44                   .dbline 417
 0B44           ;       lcd_write_pos(2,0);
 0B44 2227              clr R18
 0B46 02E0              ldi R16,2
 0B48 0E940000          xcall _lcd_write_pos
 0B4C                   .dbline 418
 0B4C           ;       pageTime2(0);
 0B4C 0027              clr R16
 0B4E 1127              clr R17
 0B50 6ADA              xcall _pageTime2
 0B52                   .dbline 420
 0B52           ;       //写温度
 0B52           ;       if(temps[pageParam[0]].flag!=2){
 0B52 20910000          lds R18,_pageParam
 0B56 30910100          lds R19,_pageParam+1
 0B5A 04E4              ldi R16,324
 0B5C 11E0              ldi R17,1
 0B5E 0E940000          xcall empy16s
 0B62 80E0              ldi R24,<_temps
 0B64 90E0              ldi R25,>_temps
 0B66 F801              movw R30,R16
 0B68 E80F              add R30,R24
 0B6A F91F              adc R31,R25
 0B6C 8081              ldd R24,z+0
 0B6E 9181              ldd R25,z+1
 0B70 8230              cpi R24,2
 0B72 E0E0              ldi R30,0
 0B74 9E07              cpc R25,R30
 0B76 09F4              brne X122
 0B78 68C0              xjmp L154
 0B7A           X122:
 0B7A           X96:
 0B7A                   .dbline 420
 0B7A                   .dbline 421
 0B7A           ;         lcd_write_pos(4,1);
 0B7A 21E0              ldi R18,1
 0B7C 04E0              ldi R16,4
 0B7E 0E940000          xcall _lcd_write_pos
 0B82                   .dbline 422
 0B82           ;         lcd_write_char_con(1,0x30 | ((int)temps[pageParam[0]].actualtemp)/100);
 0B82 20910000          lds R18,_pageParam
 0B86 30910100          lds R19,_pageParam+1
 0B8A 04E4              ldi R16,324
 0B8C 11E0              ldi R17,1
 0B8E 0E940000          xcall empy16s
 0B92 80E0              ldi R24,<_temps+292
 0B94 90E0              ldi R25,>_temps+292
 0B96 F801              movw R30,R16
 0B98 E80F              add R30,R24
 0B9A F91F              adc R31,R25
 0B9C 0081              ldd R16,z+0
 0B9E 1181              ldd R17,z+1
 0BA0 2281              ldd R18,z+2
 0BA2 3381              ldd R19,z+3
 0BA4 0E940000          xcall fpint
 0BA8 24E6              ldi R18,100
 0BAA 30E0              ldi R19,0
 0BAC 0E940000          xcall div16s
 0BB0 9801              movw R18,R16
 0BB2 2063              ori R18,48
 0BB4 01E0              ldi R16,1
 0BB6 0E940000          xcall _lcd_write_char_con
 0BBA                   .dbline 423
 0BBA           ;         lcd_write_char_con(1,0x30 | (((int)temps[pageParam[0]].actualtemp)/10)%10);
 0BBA 20910000          lds R18,_pageParam
 0BBE 30910100          lds R19,_pageParam+1
 0BC2 04E4              ldi R16,324
 0BC4 11E0              ldi R17,1
 0BC6 0E940000          xcall empy16s
 0BCA 80E0              ldi R24,<_temps+292
 0BCC 90E0              ldi R25,>_temps+292
 0BCE F801              movw R30,R16
 0BD0 E80F              add R30,R24
 0BD2 F91F              adc R31,R25
 0BD4 0081              ldd R16,z+0
 0BD6 1181              ldd R17,z+1
 0BD8 2281              ldd R18,z+2
 0BDA 3381              ldd R19,z+3
 0BDC 0E940000          xcall fpint
 0BE0 2AE0              ldi R18,10
 0BE2 30E0              ldi R19,0
 0BE4 0E940000          xcall div16s
 0BE8 2AE0              ldi R18,10
 0BEA 30E0              ldi R19,0
 0BEC 0E940000          xcall mod16s
 0BF0 9801              movw R18,R16
 0BF2 2063              ori R18,48
 0BF4 01E0              ldi R16,1
 0BF6 0E940000          xcall _lcd_write_char_con
 0BFA                   .dbline 424
 0BFA           ;         lcd_write_char_con(1,0x30 | ((int)temps[pageParam[0]].actualtemp)%10);
 0BFA 20910000          lds R18,_pageParam
 0BFE 30910100          lds R19,_pageParam+1
 0C02 04E4              ldi R16,324
 0C04 11E0              ldi R17,1
 0C06 0E940000          xcall empy16s
 0C0A 80E0              ldi R24,<_temps+292
 0C0C 90E0              ldi R25,>_temps+292
 0C0E F801              movw R30,R16
 0C10 E80F              add R30,R24
 0C12 F91F              adc R31,R25
 0C14 0081              ldd R16,z+0
 0C16 1181              ldd R17,z+1
 0C18 2281              ldd R18,z+2
 0C1A 3381              ldd R19,z+3
 0C1C 0E940000          xcall fpint
 0C20 2AE0              ldi R18,10
 0C22 30E0              ldi R19,0
 0C24 0E940000          xcall mod16s
 0C28 9801              movw R18,R16
 0C2A 2063              ori R18,48
 0C2C 01E0              ldi R16,1
 0C2E 0E940000          xcall _lcd_write_char_con
 0C32                   .dbline 425
 0C32           ;         lcd_write_char_con(1,' ');
 0C32 20E2              ldi R18,32
 0C34 01E0              ldi R16,1
 0C36 0E940000          xcall _lcd_write_char_con
 0C3A                   .dbline 426
 0C3A           ;         lcd_write_char_con(1,0xA1);
 0C3A 21EA              ldi R18,161
 0C3C 01E0              ldi R16,1
 0C3E 0E940000          xcall _lcd_write_char_con
 0C42                   .dbline 427
 0C42           ;       lcd_write_char_con(1,0xE6);
 0C42 26EE              ldi R18,230
 0C44 01E0              ldi R16,1
 0C46 0E940000          xcall _lcd_write_char_con
 0C4A                   .dbline 428
 0C4A           ;       }
 0C4A           L154:
 0C4A                   .dbline 430
 0C4A           ;       //数据需要读入
 0C4A           ;       lcd_write_pos(4,2);
 0C4A 22E0              ldi R18,2
 0C4C 04E0              ldi R16,4
 0C4E 0E940000          xcall _lcd_write_pos
 0C52                   .dbline 431
 0C52           ;       switch(temps[pageParam[0]].flag){
 0C52 20910000          lds R18,_pageParam
 0C56 30910100          lds R19,_pageParam+1
 0C5A 04E4              ldi R16,324
 0C5C 11E0              ldi R17,1
 0C5E 0E940000          xcall empy16s
 0C62 80E0              ldi R24,<_temps
 0C64 90E0              ldi R25,>_temps
 0C66 F801              movw R30,R16
 0C68 E80F              add R30,R24
 0C6A F91F              adc R31,R25
 0C6C 6081              ldd R22,z+0
 0C6E 7181              ldd R23,z+1
 0C70 6030              cpi R22,0
 0C72 6707              cpc R22,R23
 0C74 F1F0              breq L162
 0C76           X97:
 0C76 6130              cpi R22,1
 0C78 E0E0              ldi R30,0
 0C7A 7E07              cpc R23,R30
 0C7C 01F1              breq L163
 0C7E           X98:
 0C7E 6230              cpi R22,2
 0C80 E0E0              ldi R30,0
 0C82 7E07              cpc R23,R30
 0C84 09F4              brne X123
 0C86 60C1              xjmp L177
 0C88           X123:
 0C88           X99:
 0C88 6330              cpi R22,3
 0C8A E0E0              ldi R30,0
 0C8C 7E07              cpc R23,R30
 0C8E 09F4              brne X124
 0C90 61C1              xjmp L178
 0C92           X124:
 0C92           X100:
 0C92 6430              cpi R22,4
 0C94 E0E0              ldi R30,0
 0C96 7E07              cpc R23,R30
 0C98 09F4              brne X125
 0C9A 62C1              xjmp L179
 0C9C           X125:
 0C9C           X101:
 0C9C 6530              cpi R22,5
 0C9E E0E0              ldi R30,0
 0CA0 7E07              cpc R23,R30
 0CA2 09F4              brne X126
 0CA4 76C1              xjmp L182
 0CA6           X126:
 0CA6           X102:
 0CA6 6630              cpi R22,6
 0CA8 E0E0              ldi R30,0
 0CAA 7E07              cpc R23,R30
 0CAC 09F4              brne X127
 0CAE 77C1              xjmp L183
 0CB0           X127:
 0CB0           X103:
 0CB0 7BC1              xjmp L160
 0CB2           L162:
 0CB2                   .dbline 433
 0CB2           ;            case 0: 
 0CB2           ;                  lcd_write_str_con(2,"停止");
 0CB2 20E0              ldi R18,<L31
 0CB4 30E0              ldi R19,>L31
 0CB6 02E0              ldi R16,2
 0CB8 0E940000          xcall _lcd_write_str_con
 0CBC                   .dbline 434
 0CBC           ;                  break;
 0CBC 75C1              xjmp L160
 0CBE           L163:
 0CBE                   .dbline 437
 0CBE           ;                case 1:
 0CBE           ;                  //写状态
 0CBE           ;                  lcd_write_str(9,1,"");
 0CBE 80E0              ldi R24,<L164
 0CC0 90E0              ldi R25,>L164
 0CC2 9983              std y+1,R25
 0CC4 8883              std y+0,R24
 0CC6 21E0              ldi R18,1
 0CC8 09E0              ldi R16,9
 0CCA 0E940000          xcall _lcd_write_str
 0CCE                   .dbline 438
 0CCE           ;                  lcd_write_char_con(1,0xA1);
 0CCE 21EA              ldi R18,161
 0CD0 01E0              ldi R16,1
 0CD2 0E940000          xcall _lcd_write_char_con
 0CD6                   .dbline 439
 0CD6           ;            lcd_write_char_con(1,0xE6);
 0CD6 26EE              ldi R18,230
 0CD8 01E0              ldi R16,1
 0CDA 0E940000          xcall _lcd_write_char_con
 0CDE                   .dbline 440
 0CDE           ;                  timecache=temps[pageParam[0]].status;
 0CDE 20910000          lds R18,_pageParam
 0CE2 30910100          lds R19,_pageParam+1
 0CE6 04E4              ldi R16,324
 0CE8 11E0              ldi R17,1
 0CEA 0E940000          xcall empy16s
 0CEE 80E0              ldi R24,<_temps+266
 0CF0 90E0              ldi R25,>_temps+266
 0CF2 F801              movw R30,R16
 0CF4 E80F              add R30,R24
 0CF6 F91F              adc R31,R25
 0CF8 6081              ldd R22,z+0
 0CFA 7181              ldd R23,z+1
 0CFC                   .dbline 441
 0CFC           ;                  if(timecache>18){
 0CFC 82E1              ldi R24,18
 0CFE 90E0              ldi R25,0
 0D00 8617              cp R24,R22
 0D02 9707              cpc R25,R23
 0D04 08F5              brsh L166
 0D06           X104:
 0D06                   .dbline 441
 0D06                   .dbline 442
 0D06           ;                        lcd_write_char_con(2,0x30 | (((timecache-1)>>1)+1)/10);
 0D06 2AE0              ldi R18,10
 0D08 30E0              ldi R19,0
 0D0A 8B01              movw R16,R22
 0D0C 0150              subi R16,1
 0D0E 1040              sbci R17,0
 0D10 1695              lsr R17
 0D12 0795              ror R16
 0D14 0F5F              subi R16,255  ; offset = 1
 0D16 1F4F              sbci R17,255
 0D18 0E940000          xcall div16u
 0D1C 9801              movw R18,R16
 0D1E 2063              ori R18,48
 0D20 02E0              ldi R16,2
 0D22 0E940000          xcall _lcd_write_char_con
 0D26                   .dbline 443
 0D26           ;                        lcd_write_char_con(2,0x30 | (((timecache-1)>>1)+1)%10);
 0D26 2AE0              ldi R18,10
 0D28 30E0              ldi R19,0
 0D2A 8B01              movw R16,R22
 0D2C 0150              subi R16,1
 0D2E 1040              sbci R17,0
 0D30 1695              lsr R17
 0D32 0795              ror R16
 0D34 0F5F              subi R16,255  ; offset = 1
 0D36 1F4F              sbci R17,255
 0D38 0E940000          xcall mod16u
 0D3C 9801              movw R18,R16
 0D3E 2063              ori R18,48
 0D40 02E0              ldi R16,2
 0D42 0E940000          xcall _lcd_write_char_con
 0D46                   .dbline 444
 0D46           ;                     }else{
 0D46 0FC0              xjmp L167
 0D48           L166:
 0D48                   .dbline 444
 0D48                   .dbline 445
 0D48           ;                        lcd_write_char_con(2,0x30 | (((timecache-1)>>1)+1));
 0D48 9B01              movw R18,R22
 0D4A 2150              subi R18,1
 0D4C 3040              sbci R19,0
 0D4E 3695              lsr R19
 0D50 2795              ror R18
 0D52 2F5F              subi R18,255  ; offset = 1
 0D54 3F4F              sbci R19,255
 0D56 2063              ori R18,48
 0D58 02E0              ldi R16,2
 0D5A 0E940000          xcall _lcd_write_char_con
 0D5E                   .dbline 446
 0D5E           ;                                 lcd_write_char_con(2,' ');
 0D5E 20E2              ldi R18,32
 0D60 02E0              ldi R16,2
 0D62 0E940000          xcall _lcd_write_char_con
 0D66                   .dbline 447
 0D66           ;                   }
 0D66           L167:
 0D66                   .dbline 448
 0D66           ;                        lcd_write_char_con(2,':');
 0D66 2AE3              ldi R18,58
 0D68 02E0              ldi R16,2
 0D6A 0E940000          xcall _lcd_write_char_con
 0D6E                   .dbline 449
 0D6E           ;                        lcd_write_char_con(2,' ');
 0D6E 20E2              ldi R18,32
 0D70 02E0              ldi R16,2
 0D72 0E940000          xcall _lcd_write_char_con
 0D76                   .dbline 450
 0D76           ;                  if(timecache & 0x01){
 0D76 60FF              sbrs R22,0
 0D78 15C0              rjmp L168
 0D7A           X105:
 0D7A                   .dbline 450
 0D7A                   .dbline 451
 0D7A           ;                      lcd_write_str_con(2,"升温");
 0D7A 20E0              ldi R18,<L170
 0D7C 30E0              ldi R19,>L170
 0D7E 02E0              ldi R16,2
 0D80 0E940000          xcall _lcd_write_str_con
 0D84                   .dbline 452
 0D84           ;                 timecache=temps[pageParam[0]].p_settemp;
 0D84 20910000          lds R18,_pageParam
 0D88 30910100          lds R19,_pageParam+1
 0D8C 04E4              ldi R16,324
 0D8E 11E0              ldi R17,1
 0D90 0E940000          xcall empy16s
 0D94 80E0              ldi R24,<_temps+278
 0D96 90E0              ldi R25,>_temps+278
 0D98 F801              movw R30,R16
 0D9A E80F              add R30,R24
 0D9C F91F              adc R31,R25
 0D9E 6081              ldd R22,z+0
 0DA0 7181              ldd R23,z+1
 0DA2                   .dbline 453
 0DA2           ;                  }else{
 0DA2 19C0              xjmp L169
 0DA4           L168:
 0DA4                   .dbline 453
 0DA4                   .dbline 454
 0DA4           ;                      lcd_write_str_con(2,"恒温");
 0DA4 20E0              ldi R18,<L172
 0DA6 30E0              ldi R19,>L172
 0DA8 02E0              ldi R16,2
 0DAA 0E940000          xcall _lcd_write_str_con
 0DAE                   .dbline 455
 0DAE           ;                timecache=temps[pageParam[0]].settemp;
 0DAE 20910000          lds R18,_pageParam
 0DB2 30910100          lds R19,_pageParam+1
 0DB6 04E4              ldi R16,324
 0DB8 11E0              ldi R17,1
 0DBA 0E940000          xcall empy16s
 0DBE 80E0              ldi R24,<_temps+288
 0DC0 90E0              ldi R25,>_temps+288
 0DC2 F801              movw R30,R16
 0DC4 E80F              add R30,R24
 0DC6 F91F              adc R31,R25
 0DC8 0081              ldd R16,z+0
 0DCA 1181              ldd R17,z+1
 0DCC 2281              ldd R18,z+2
 0DCE 3381              ldd R19,z+3
 0DD0 0E940000          xcall fpint
 0DD4 B801              movw R22,R16
 0DD6                   .dbline 456
 0DD6           ;                  }
 0DD6           L169:
 0DD6                   .dbline 457
 0DD6           ;                  lcd_write_char(9,1,0x30 | timecache/100);
 0DD6 24E6              ldi R18,100
 0DD8 30E0              ldi R19,0
 0DDA 8B01              movw R16,R22
 0DDC 0E940000          xcall div16u
 0DE0 C801              movw R24,R16
 0DE2 8063              ori R24,48
 0DE4 8883              std y+0,R24
 0DE6 21E0              ldi R18,1
 0DE8 09E0              ldi R16,9
 0DEA 0E940000          xcall _lcd_write_char
 0DEE                   .dbline 458
 0DEE           ;                  lcd_write_char_con(1,0x30 | (timecache/10)%10);
 0DEE 2AE0              ldi R18,10
 0DF0 30E0              ldi R19,0
 0DF2 8B01              movw R16,R22
 0DF4 0E940000          xcall div16u
 0DF8 2AE0              ldi R18,10
 0DFA 30E0              ldi R19,0
 0DFC 0E940000          xcall mod16u
 0E00 9801              movw R18,R16
 0E02 2063              ori R18,48
 0E04 01E0              ldi R16,1
 0E06 0E940000          xcall _lcd_write_char_con
 0E0A                   .dbline 459
 0E0A           ;                  lcd_write_char_con(1,0x30 | timecache%10);
 0E0A 2AE0              ldi R18,10
 0E0C 30E0              ldi R19,0
 0E0E 8B01              movw R16,R22
 0E10 0E940000          xcall mod16u
 0E14 9801              movw R18,R16
 0E16 2063              ori R18,48
 0E18 01E0              ldi R16,1
 0E1A 0E940000          xcall _lcd_write_char_con
 0E1E                   .dbline 460
 0E1E           ;                  lcd_write_char_con(1,' ');
 0E1E 20E2              ldi R18,32
 0E20 01E0              ldi R16,1
 0E22 0E940000          xcall _lcd_write_char_con
 0E26                   .dbline 461
 0E26           ;                  lcd_write_char_con(1,0xA1);
 0E26 21EA              ldi R18,161
 0E28 01E0              ldi R16,1
 0E2A 0E940000          xcall _lcd_write_char_con
 0E2E                   .dbline 462
 0E2E           ;            lcd_write_char_con(1,0xE6);
 0E2E 26EE              ldi R18,230
 0E30 01E0              ldi R16,1
 0E32 0E940000          xcall _lcd_write_char_con
 0E36                   .dbline 463
 0E36           ;                  lcd_write_pos(8,2);
 0E36 22E0              ldi R18,2
 0E38 08E0              ldi R16,8
 0E3A 0E940000          xcall _lcd_write_pos
 0E3E                   .dbline 464
 0E3E           ;                  timecache=temps[pageParam[0]].nowtime;
 0E3E 20910000          lds R18,_pageParam
 0E42 30910100          lds R19,_pageParam+1
 0E46 04E4              ldi R16,324
 0E48 11E0              ldi R17,1
 0E4A 0E940000          xcall empy16s
 0E4E 80E0              ldi R24,<_temps+270
 0E50 90E0              ldi R25,>_temps+270
 0E52 F801              movw R30,R16
 0E54 E80F              add R30,R24
 0E56 F91F              adc R31,R25
 0E58 6081              ldd R22,z+0
 0E5A 7181              ldd R23,z+1
 0E5C                   .dbline 465
 0E5C           ;                  timecache/=3600;
 0E5C 20E1              ldi R18,3600
 0E5E 3EE0              ldi R19,14
 0E60 8B01              movw R16,R22
 0E62 0E940000          xcall div16u
 0E66 B801              movw R22,R16
 0E68                   .dbline 466
 0E68           ;                   lcd_write_char_con(2,0x30 | timecache/10);
 0E68 2AE0              ldi R18,10
 0E6A 30E0              ldi R19,0
 0E6C 0E940000          xcall div16u
 0E70 9801              movw R18,R16
 0E72 2063              ori R18,48
 0E74 02E0              ldi R16,2
 0E76 0E940000          xcall _lcd_write_char_con
 0E7A                   .dbline 467
 0E7A           ;                       lcd_write_char_con(2,0x30 | timecache%10);
 0E7A 2AE0              ldi R18,10
 0E7C 30E0              ldi R19,0
 0E7E 8B01              movw R16,R22
 0E80 0E940000          xcall mod16u
 0E84 9801              movw R18,R16
 0E86 2063              ori R18,48
 0E88 02E0              ldi R16,2
 0E8A 0E940000          xcall _lcd_write_char_con
 0E8E                   .dbline 468
 0E8E           ;                       lcd_write_char_con(2,':');
 0E8E 2AE3              ldi R18,58
 0E90 02E0              ldi R16,2
 0E92 0E940000          xcall _lcd_write_char_con
 0E96                   .dbline 469
 0E96           ;                       timecache=temps[pageParam[0]].nowtime;
 0E96 20910000          lds R18,_pageParam
 0E9A 30910100          lds R19,_pageParam+1
 0E9E 04E4              ldi R16,324
 0EA0 11E0              ldi R17,1
 0EA2 0E940000          xcall empy16s
 0EA6 80E0              ldi R24,<_temps+270
 0EA8 90E0              ldi R25,>_temps+270
 0EAA F801              movw R30,R16
 0EAC E80F              add R30,R24
 0EAE F91F              adc R31,R25
 0EB0 6081              ldd R22,z+0
 0EB2 7181              ldd R23,z+1
 0EB4                   .dbline 470
 0EB4           ;                   timecache/=60;
 0EB4 2CE3              ldi R18,60
 0EB6 30E0              ldi R19,0
 0EB8 8B01              movw R16,R22
 0EBA 0E940000          xcall div16u
 0EBE                   .dbline 471
 0EBE           ;                       timecache%=60;
 0EBE 2CE3              ldi R18,60
 0EC0 30E0              ldi R19,0
 0EC2 0E940000          xcall mod16u
 0EC6 B801              movw R22,R16
 0EC8                   .dbline 472
 0EC8           ;                       lcd_write_char_con(2,0x30 | timecache/10);
 0EC8 2AE0              ldi R18,10
 0ECA 30E0              ldi R19,0
 0ECC 0E940000          xcall div16u
 0ED0 9801              movw R18,R16
 0ED2 2063              ori R18,48
 0ED4 02E0              ldi R16,2
 0ED6 0E940000          xcall _lcd_write_char_con
 0EDA                   .dbline 473
 0EDA           ;                       lcd_write_char_con(2,0x30 | timecache%10);
 0EDA 2AE0              ldi R18,10
 0EDC 30E0              ldi R19,0
 0EDE 8B01              movw R16,R22
 0EE0 0E940000          xcall mod16u
 0EE4 9801              movw R18,R16
 0EE6 2063              ori R18,48
 0EE8 02E0              ldi R16,2
 0EEA 0E940000          xcall _lcd_write_char_con
 0EEE                   .dbline 474
 0EEE           ;                   lcd_write_char_con(2,':');
 0EEE 2AE3              ldi R18,58
 0EF0 02E0              ldi R16,2
 0EF2 0E940000          xcall _lcd_write_char_con
 0EF6                   .dbline 475
 0EF6           ;                       timecache=temps[pageParam[0]].nowtime;
 0EF6 20910000          lds R18,_pageParam
 0EFA 30910100          lds R19,_pageParam+1
 0EFE 04E4              ldi R16,324
 0F00 11E0              ldi R17,1
 0F02 0E940000          xcall empy16s
 0F06 80E0              ldi R24,<_temps+270
 0F08 90E0              ldi R25,>_temps+270
 0F0A F801              movw R30,R16
 0F0C E80F              add R30,R24
 0F0E F91F              adc R31,R25
 0F10 6081              ldd R22,z+0
 0F12 7181              ldd R23,z+1
 0F14                   .dbline 476
 0F14           ;                   timecache%=60;
 0F14 2CE3              ldi R18,60
 0F16 30E0              ldi R19,0
 0F18 8B01              movw R16,R22
 0F1A 0E940000          xcall mod16u
 0F1E B801              movw R22,R16
 0F20                   .dbline 477
 0F20           ;                       lcd_write_char_con(2,0x30 |  timecache/10);
 0F20 2AE0              ldi R18,10
 0F22 30E0              ldi R19,0
 0F24 0E940000          xcall div16u
 0F28 9801              movw R18,R16
 0F2A 2063              ori R18,48
 0F2C 02E0              ldi R16,2
 0F2E 0E940000          xcall _lcd_write_char_con
 0F32                   .dbline 478
 0F32           ;                       lcd_write_char_con(2,0x30 |  timecache%10);
 0F32 2AE0              ldi R18,10
 0F34 30E0              ldi R19,0
 0F36 8B01              movw R16,R22
 0F38 0E940000          xcall mod16u
 0F3C 9801              movw R18,R16
 0F3E 2063              ori R18,48
 0F40 02E0              ldi R16,2
 0F42 0E940000          xcall _lcd_write_char_con
 0F46                   .dbline 479
 0F46           ;                  break;
 0F46 30C0              xjmp L160
 0F48           L177:
 0F48                   .dbline 481
 0F48           ;                case 2:
 0F48           ;                  lcd_write_str_con(2,"故障");
 0F48 20E0              ldi R18,<L37
 0F4A 30E0              ldi R19,>L37
 0F4C 02E0              ldi R16,2
 0F4E 0E940000          xcall _lcd_write_str_con
 0F52                   .dbline 482
 0F52           ;                  break;
 0F52 2AC0              xjmp L160
 0F54           L178:
 0F54                   .dbline 484
 0F54           ;                case 3:
 0F54           ;                  lcd_write_str_con(2,"暂停");
 0F54 20E0              ldi R18,<L39
 0F56 30E0              ldi R19,>L39
 0F58 02E0              ldi R16,2
 0F5A 0E940000          xcall _lcd_write_str_con
 0F5E                   .dbline 485
 0F5E           ;                  break;
 0F5E 24C0              xjmp L160
 0F60           L179:
 0F60                   .dbline 487
 0F60           ;                case 4:
 0F60           ;                  lcd_write_str(9,1,"      ");
 0F60 80E0              ldi R24,<L180
 0F62 90E0              ldi R25,>L180
 0F64 9983              std y+1,R25
 0F66 8883              std y+0,R24
 0F68 21E0              ldi R18,1
 0F6A 09E0              ldi R16,9
 0F6C 0E940000          xcall _lcd_write_str
 0F70                   .dbline 488
 0F70           ;                  lcd_write_str(4,2,"                ");
 0F70 80E0              ldi R24,<L181
 0F72 90E0              ldi R25,>L181
 0F74 9983              std y+1,R25
 0F76 8883              std y+0,R24
 0F78 22E0              ldi R18,2
 0F7A 04E0              ldi R16,4
 0F7C 0E940000          xcall _lcd_write_str
 0F80                   .dbline 489
 0F80           ;                  lcd_write_str(4,2,"结束");
 0F80 80E0              ldi R24,<L41
 0F82 90E0              ldi R25,>L41
 0F84 9983              std y+1,R25
 0F86 8883              std y+0,R24
 0F88 22E0              ldi R18,2
 0F8A 04E0              ldi R16,4
 0F8C 0E940000          xcall _lcd_write_str
 0F90                   .dbline 490
 0F90           ;                  break;
 0F90 0BC0              xjmp L160
 0F92           L182:
 0F92                   .dbline 492
 0F92           ;                case 5:
 0F92           ;                  lcd_write_str_con(2,"等待");
 0F92 20E0              ldi R18,<L43
 0F94 30E0              ldi R19,>L43
 0F96 02E0              ldi R16,2
 0F98 0E940000          xcall _lcd_write_str_con
 0F9C                   .dbline 493
 0F9C           ;                  break;
 0F9C 05C0              xjmp L160
 0F9E           L183:
 0F9E                   .dbline 495
 0F9E           ;                case 6:
 0F9E           ;                  lcd_write_str_con(2,"暂停");
 0F9E 20E0              ldi R18,<L39
 0FA0 30E0              ldi R19,>L39
 0FA2 02E0              ldi R16,2
 0FA4 0E940000          xcall _lcd_write_str_con
 0FA8                   .dbline 496
 0FA8           ;                  break;
 0FA8                   .dbline 497
 0FA8           ;                  break;
 0FA8                   .dbline 499
 0FA8           ;                default:
 0FA8           ;                  break;
 0FA8           L160:
 0FA8                   .dbline 502
 0FA8           ;          }
 0FA8           ;       
 0FA8           ;       keyV=KeyScan_once();  
 0FA8 0E940000          xcall _KeyScan_once
 0FAC 602F              mov R22,R16
 0FAE                   .dbline 503
 0FAE           ;         if(keyV=='e'){
 0FAE 0536              cpi R16,101
 0FB0 F9F4              brne L184
 0FB2           X106:
 0FB2                   .dbline 503
 0FB2                   .dbline 504
 0FB2           ;             Set_White_off(1,3,2);
 0FB2 82E0              ldi R24,2
 0FB4 8883              std y+0,R24
 0FB6 23E0              ldi R18,3
 0FB8 01E0              ldi R16,1
 0FBA 0E940000          xcall _Set_White_off
 0FBE                   .dbline 505
 0FBE           ;                 Set_White_off(4,3,5);
 0FBE 85E0              ldi R24,5
 0FC0 8883              std y+0,R24
 0FC2 23E0              ldi R18,3
 0FC4 04E0              ldi R16,4
 0FC6 0E940000          xcall _Set_White_off
 0FCA                   .dbline 506
 0FCA           ;                 Set_White_off(8,3,9);
 0FCA 89E0              ldi R24,9
 0FCC 8883              std y+0,R24
 0FCE 23E0              ldi R18,3
 0FD0 08E0              ldi R16,8
 0FD2 0E940000          xcall _Set_White_off
 0FD6                   .dbline 507
 0FD6           ;                 Set_White_off(11,3,12);
 0FD6 8CE0              ldi R24,12
 0FD8 8883              std y+0,R24
 0FDA 23E0              ldi R18,3
 0FDC 0BE0              ldi R16,11
 0FDE 0E940000          xcall _Set_White_off
 0FE2                   .dbline 508
 0FE2           ;                 pageNum=1;
 0FE2 81E0              ldi R24,1
 0FE4 90E0              ldi R25,0
 0FE6 90930100          sts _pageNum+1,R25
 0FEA 80930000          sts _pageNum,R24
 0FEE                   .dbline 509
 0FEE           ;                 return;
 0FEE E6C0              xjmp L143
 0FF0           L184:
 0FF0                   .dbline 510
 0FF0           ;         }else if(keyV=='l'){
 0FF0 6C36              cpi R22,108
 0FF2 D1F5              brne L186
 0FF4           X107:
 0FF4                   .dbline 510
 0FF4                   .dbline 511
 0FF4           ;            switch(cur){
 0FF4 4130              cpi R20,1
 0FF6 E0E0              ldi R30,0
 0FF8 5E07              cpc R21,R30
 0FFA 49F0              breq L190
 0FFC           X108:
 0FFC 4230              cpi R20,2
 0FFE E0E0              ldi R30,0
 1000 5E07              cpc R21,R30
 1002 A1F0              breq L191
 1004           X109:
 1004 4330              cpi R20,3
 1006 E0E0              ldi R30,0
 1008 5E07              cpc R21,R30
 100A F9F0              breq L192
 100C           X110:
 100C D6C0              xjmp L187
 100E           L190:
 100E                   .dbline 513
 100E           ;                  case 1:
 100E           ;                    Set_White_off(4,3,5);
 100E 85E0              ldi R24,5
 1010 8883              std y+0,R24
 1012 23E0              ldi R18,3
 1014 04E0              ldi R16,4
 1016 0E940000          xcall _Set_White_off
 101A                   .dbline 514
 101A           ;                    Set_White(1,3,2);
 101A 82E0              ldi R24,2
 101C 8883              std y+0,R24
 101E 23E0              ldi R18,3
 1020 01E0              ldi R16,1
 1022 0E940000          xcall _Set_White
 1026                   .dbline 515
 1026           ;                        cur=0;
 1026 4427              clr R20
 1028 5527              clr R21
 102A                   .dbline 516
 102A           ;                    break;
 102A C7C0              xjmp L187
 102C           L191:
 102C                   .dbline 518
 102C           ;                  case 2:
 102C           ;                    Set_White_off(8,3,9);
 102C 89E0              ldi R24,9
 102E 8883              std y+0,R24
 1030 23E0              ldi R18,3
 1032 08E0              ldi R16,8
 1034 0E940000          xcall _Set_White_off
 1038                   .dbline 519
 1038           ;                    Set_White(4,3,5);
 1038 85E0              ldi R24,5
 103A 8883              std y+0,R24
 103C 23E0              ldi R18,3
 103E 04E0              ldi R16,4
 1040 0E940000          xcall _Set_White
 1044                   .dbline 520
 1044           ;                    cur=1;
 1044 41E0              ldi R20,1
 1046 50E0              ldi R21,0
 1048                   .dbline 521
 1048           ;                    break;
 1048 B8C0              xjmp L187
 104A           L192:
 104A                   .dbline 523
 104A           ;                  case 3:
 104A           ;                    Set_White_off(11,3,12);
 104A 8CE0              ldi R24,12
 104C 8883              std y+0,R24
 104E 23E0              ldi R18,3
 1050 0BE0              ldi R16,11
 1052 0E940000          xcall _Set_White_off
 1056                   .dbline 524
 1056           ;                    Set_White(8,3,9);
 1056 89E0              ldi R24,9
 1058 8883              std y+0,R24
 105A 23E0              ldi R18,3
 105C 08E0              ldi R16,8
 105E 0E940000          xcall _Set_White
 1062                   .dbline 525
 1062           ;                    cur=2;
 1062 42E0              ldi R20,2
 1064 50E0              ldi R21,0
 1066                   .dbline 526
 1066           ;                    break;
 1066                   .dbline 528
 1066           ;                }
 1066           ;         }else if(keyV=='r'){
 1066 A9C0              xjmp L187
 1068           L186:
 1068                   .dbline 528
 1068 6237              cpi R22,114
 106A C9F5              brne L193
 106C           X111:
 106C                   .dbline 528
 106C                   .dbline 529
 106C           ;              switch(cur){
 106C 4030              cpi R20,0
 106E 4507              cpc R20,R21
 1070 49F0              breq L197
 1072           X112:
 1072 4130              cpi R20,1
 1074 E0E0              ldi R30,0
 1076 5E07              cpc R21,R30
 1078 A1F0              breq L198
 107A           X113:
 107A 4230              cpi R20,2
 107C E0E0              ldi R30,0
 107E 5E07              cpc R21,R30
 1080 F9F0              breq L199
 1082           X114:
 1082 9BC0              xjmp L194
 1084           L197:
 1084                   .dbline 531
 1084           ;                  case 0:
 1084           ;                    Set_White(4,3,5);
 1084 85E0              ldi R24,5
 1086 8883              std y+0,R24
 1088 23E0              ldi R18,3
 108A 04E0              ldi R16,4
 108C 0E940000          xcall _Set_White
 1090                   .dbline 532
 1090           ;                    Set_White_off(1,3,2);
 1090 82E0              ldi R24,2
 1092 8883              std y+0,R24
 1094 23E0              ldi R18,3
 1096 01E0              ldi R16,1
 1098 0E940000          xcall _Set_White_off
 109C                   .dbline 533
 109C           ;                        cur=1;
 109C 41E0              ldi R20,1
 109E 50E0              ldi R21,0
 10A0                   .dbline 534
 10A0           ;                    break;
 10A0 8CC0              xjmp L194
 10A2           L198:
 10A2                   .dbline 536
 10A2           ;                  case 1:
 10A2           ;                    Set_White(8,3,9);
 10A2 89E0              ldi R24,9
 10A4 8883              std y+0,R24
 10A6 23E0              ldi R18,3
 10A8 08E0              ldi R16,8
 10AA 0E940000          xcall _Set_White
 10AE                   .dbline 537
 10AE           ;                    Set_White_off(4,3,5);
 10AE 85E0              ldi R24,5
 10B0 8883              std y+0,R24
 10B2 23E0              ldi R18,3
 10B4 04E0              ldi R16,4
 10B6 0E940000          xcall _Set_White_off
 10BA                   .dbline 538
 10BA           ;                    cur=2;
 10BA 42E0              ldi R20,2
 10BC 50E0              ldi R21,0
 10BE                   .dbline 539
 10BE           ;                    break;
 10BE 7DC0              xjmp L194
 10C0           L199:
 10C0                   .dbline 541
 10C0           ;                  case 2:
 10C0           ;                    Set_White(11,3,12);
 10C0 8CE0              ldi R24,12
 10C2 8883              std y+0,R24
 10C4 23E0              ldi R18,3
 10C6 0BE0              ldi R16,11
 10C8 0E940000          xcall _Set_White
 10CC                   .dbline 542
 10CC           ;                    Set_White_off(8,3,9);
 10CC 89E0              ldi R24,9
 10CE 8883              std y+0,R24
 10D0 23E0              ldi R18,3
 10D2 08E0              ldi R16,8
 10D4 0E940000          xcall _Set_White_off
 10D8                   .dbline 543
 10D8           ;                    cur=3;
 10D8 43E0              ldi R20,3
 10DA 50E0              ldi R21,0
 10DC                   .dbline 544
 10DC           ;                    break;
 10DC                   .dbline 546
 10DC           ;                }
 10DC           ;         }else if(keyV=='t'){
 10DC 6EC0              xjmp L194
 10DE           L193:
 10DE                   .dbline 546
 10DE 6437              cpi R22,116
 10E0 09F0              breq X128
 10E2 4AC0              xjmp L200
 10E4           X128:
 10E4           X115:
 10E4                   .dbline 546
 10E4                   .dbline 547
 10E4           ;              switch(cur){
 10E4 4030              cpi R20,0
 10E6 4507              cpc R20,R21
 10E8 69F0              breq L204
 10EA           X116:
 10EA 4130              cpi R20,1
 10EC E0E0              ldi R30,0
 10EE 5E07              cpc R21,R30
 10F0 B1F0              breq L205
 10F2           X117:
 10F2 4230              cpi R20,2
 10F4 E0E0              ldi R30,0
 10F6 5E07              cpc R21,R30
 10F8 C9F0              breq L206
 10FA           X118:
 10FA 4330              cpi R20,3
 10FC E0E0              ldi R30,0
 10FE 5E07              cpc R21,R30
 1100 21F1              breq L207
 1102           X119:
 1102 5BC0              xjmp L201
 1104           L204:
 1104                   .dbline 549
 1104           ;                  case 0:
 1104           ;                    Set_White_off(1,3,2);
 1104 82E0              ldi R24,2
 1106 8883              std y+0,R24
 1108 23E0              ldi R18,3
 110A 01E0              ldi R16,1
 110C 0E940000          xcall _Set_White_off
 1110                   .dbline 550
 1110           ;                        pageNum=4;
 1110 84E0              ldi R24,4
 1112 90E0              ldi R25,0
 1114 90930100          sts _pageNum+1,R25
 1118 80930000          sts _pageNum,R24
 111C                   .dbline 551
 111C           ;                    return;
 111C 4FC0              xjmp L143
 111E           L205:
 111E                   .dbline 554
 111E           ;                  case 1:
 111E           ;                    //运行操作
 111E           ;                        set_start(pageParam[0]);
 111E 00910000          lds R16,_pageParam
 1122 10910100          lds R17,_pageParam+1
 1126 0E940000          xcall _set_start
 112A                   .dbline 555
 112A           ;                    break;
 112A 47C0              xjmp L201
 112C           L206:
 112C                   .dbline 558
 112C           ;                  case 2:
 112C           ;                    //暂停操作
 112C           ;                         lcd_write_str(4,2,"                ");
 112C 80E0              ldi R24,<L181
 112E 90E0              ldi R25,>L181
 1130 9983              std y+1,R25
 1132 8883              std y+0,R24
 1134 22E0              ldi R18,2
 1136 04E0              ldi R16,4
 1138 0E940000          xcall _lcd_write_str
 113C                   .dbline 559
 113C           ;                        set_stop(pageParam[0]);
 113C 00910000          lds R16,_pageParam
 1140 10910100          lds R17,_pageParam+1
 1144 0E940000          xcall _set_stop
 1148                   .dbline 560
 1148           ;                    break;
 1148 38C0              xjmp L201
 114A           L207:
 114A                   .dbline 563
 114A           ;                 case 3:
 114A           ;                    //重置操作
 114A           ;                        Set_White_off(11,3,12);
 114A 8CE0              ldi R24,12
 114C 8883              std y+0,R24
 114E 23E0              ldi R18,3
 1150 0BE0              ldi R16,11
 1152 0E940000          xcall _Set_White_off
 1156                   .dbline 564
 1156           ;                        pageParam[2]=1;//表示重置是温度数据的
 1156 81E0              ldi R24,1
 1158 90E0              ldi R25,0
 115A 90930500          sts _pageParam+4+1,R25
 115E 80930400          sts _pageParam+4,R24
 1162                   .dbline 565
 1162           ;                        prePageNum=3;
 1162 83E0              ldi R24,3
 1164 90930100          sts _prePageNum+1,R25
 1168 80930000          sts _prePageNum,R24
 116C                   .dbline 566
 116C           ;                    pageNum=7;
 116C 87E0              ldi R24,7
 116E 90930100          sts _pageNum+1,R25
 1172 80930000          sts _pageNum,R24
 1176                   .dbline 567
 1176           ;                    return;
 1176 22C0              xjmp L143
 1178           L200:
 1178                   .dbline 569
 1178           ;                }
 1178           ;         }else if(keyV=='s'){
 1178 6337              cpi R22,115
 117A F9F4              brne L209
 117C           X120:
 117C                   .dbline 569
 117C                   .dbline 570
 117C           ;              Set_White_off(1,3,2);
 117C 82E0              ldi R24,2
 117E 8883              std y+0,R24
 1180 23E0              ldi R18,3
 1182 01E0              ldi R16,1
 1184 0E940000          xcall _Set_White_off
 1188                   .dbline 571
 1188           ;                  Set_White_off(4,3,5);
 1188 85E0              ldi R24,5
 118A 8883              std y+0,R24
 118C 23E0              ldi R18,3
 118E 04E0              ldi R16,4
 1190 0E940000          xcall _Set_White_off
 1194                   .dbline 572
 1194           ;                  Set_White_off(8,3,9);
 1194 89E0              ldi R24,9
 1196 8883              std y+0,R24
 1198 23E0              ldi R18,3
 119A 08E0              ldi R16,8
 119C 0E940000          xcall _Set_White_off
 11A0                   .dbline 573
 11A0           ;                  Set_White_off(11,3,12);
 11A0 8CE0              ldi R24,12
 11A2 8883              std y+0,R24
 11A4 23E0              ldi R18,3
 11A6 0BE0              ldi R16,11
 11A8 0E940000          xcall _Set_White_off
 11AC                   .dbline 574
 11AC           ;                       pageNum=4;
 11AC 84E0              ldi R24,4
 11AE 90E0              ldi R25,0
 11B0 90930100          sts _pageNum+1,R25
 11B4 80930000          sts _pageNum,R24
 11B8                   .dbline 575
 11B8           ;                    return;
 11B8 01C0              xjmp L143
 11BA           L209:
 11BA           L201:
 11BA           L194:
 11BA           L187:
 11BA                   .dbline 577
 11BA           ;         }
 11BA           ;       }
 11BA           L152:
 11BA                   .dbline 416
 11BA C4CC              xjmp L151
 11BC           X121:
 11BC                   .dbline -2
 11BC           L143:
 11BC                   .dbline 0 ; func end
 11BC 2296              adiw R28,2
 11BE 0C940000          xjmp pop_xgsetF000
 11C2                   .dbsym r cur 20 i
 11C2                   .dbsym r timecache 22 i
 11C2                   .dbsym r keyV 22 c
 11C2                   .dbend
 11C2                   .dbfunc e page4_data _page4_data fV
 11C2           ;           numL -> R14,R15
 11C2           ;           numH -> R12,R13
 11C2           ;       beginCur -> R20,R21
 11C2           ;              i -> R22,R23
 11C2           ;       dataCach -> R10,R11
 11C2           ;              y -> y+12
                        .even
 11C2           _page4_data::
 11C2 0E940000          xcall push_arg4
 11C6 0E940000          xcall push_xgsetF0FC
 11CA 5901              movw R10,R18
 11CC 2297              sbiw R28,2
 11CE                   .dbline -1
 11CE                   .dbline 580
 11CE           ;  }
 11CE           ;  //等下调用page_ac()函数改变ac写数据
 11CE           ;  void page4_data(uint y,uint* dataCach){
 11CE                   .dbline 581
 11CE           ;       uint numH=0xA2;
 11CE 82EA              ldi R24,162
 11D0 90E0              ldi R25,0
 11D2 6C01              movw R12,R24
 11D4                   .dbline 582
 11D4           ;       uint numL=0xC4;//带括号的123，低位加1是1、方便操作，需要加上即可
 11D4 84EC              ldi R24,196
 11D6 7C01              movw R14,R24
 11D8                   .dbline 583
 11D8           ;         uint i=0;
 11D8 6627              clr R22
 11DA 7727              clr R23
 11DC                   .dbline 584
 11DC           ;         uint beginCur=0;
 11DC 4427              clr R20
 11DE 5527              clr R21
 11E0                   .dbline 586
 11E0           ;     //这个判断需要些到读取值函数中去
 11E0           ;        if(y<3){
 11E0 8C85              ldd R24,y+12
 11E2 9D85              ldd R25,y+13
 11E4 8330              cpi R24,3
 11E6 E0E0              ldi R30,0
 11E8 9E07              cpc R25,R30
 11EA 30F5              brsh L212
 11EC           X129:
 11EC                   .dbline 586
 11EC                   .dbline 587
 11EC           ;          lcd_write_char(2,1,numH);
 11EC C882              std y+0,R12
 11EE 21E0              ldi R18,1
 11F0 02E0              ldi R16,2
 11F2 0E940000          xcall _lcd_write_char
 11F6                   .dbline 588
 11F6           ;        lcd_write_char_con(1,numL+1);
 11F6 9701              movw R18,R14
 11F8 2F5F              subi R18,255  ; offset = 1
 11FA 3F4F              sbci R19,255
 11FC 01E0              ldi R16,1
 11FE 0E940000          xcall _lcd_write_char_con
 1202                   .dbline 589
 1202           ;          lcd_write_char(2,2,numH);
 1202 C882              std y+0,R12
 1204 22E0              ldi R18,2
 1206 02E0              ldi R16,2
 1208 0E940000          xcall _lcd_write_char
 120C                   .dbline 590
 120C           ;        lcd_write_char_con(2,numL+2);
 120C 9701              movw R18,R14
 120E 2E5F              subi R18,254  ; offset = 2
 1210 3F4F              sbci R19,255
 1212 02E0              ldi R16,2
 1214 0E940000          xcall _lcd_write_char_con
 1218                   .dbline 591
 1218           ;        lcd_write_char(2,3,numH);
 1218 C882              std y+0,R12
 121A 23E0              ldi R18,3
 121C 02E0              ldi R16,2
 121E 0E940000          xcall _lcd_write_char
 1222                   .dbline 592
 1222           ;        lcd_write_char_con(3,numL+3);
 1222 9701              movw R18,R14
 1224 2D5F              subi R18,253  ; offset = 3
 1226 3F4F              sbci R19,255
 1228 03E0              ldi R16,3
 122A 0E940000          xcall _lcd_write_char_con
 122E                   .dbline 593
 122E           ;          y=0;
 122E 0024              clr R0
 1230 1124              clr R1
 1232 1D86              std y+13,R1
 1234 0C86              std y+12,R0
 1236                   .dbline 594
 1236           ;         }else if(y>=3 && y<6){
 1236 8FC0              xjmp L213
 1238           L212:
 1238                   .dbline 594
 1238 8C85              ldd R24,y+12
 123A 9D85              ldd R25,y+13
 123C 8330              cpi R24,3
 123E E0E0              ldi R30,0
 1240 9E07              cpc R25,R30
 1242 50F1              brlo L214
 1244           X130:
 1244 8630              cpi R24,6
 1246 E0E0              ldi R30,0
 1248 9E07              cpc R25,R30
 124A 30F5              brsh L214
 124C           X131:
 124C                   .dbline 594
 124C                   .dbline 595
 124C           ;          lcd_write_char(2,1,numH);
 124C C882              std y+0,R12
 124E 21E0              ldi R18,1
 1250 02E0              ldi R16,2
 1252 0E940000          xcall _lcd_write_char
 1256                   .dbline 596
 1256           ;        lcd_write_char_con(1,numL+4);
 1256 9701              movw R18,R14
 1258 2C5F              subi R18,252  ; offset = 4
 125A 3F4F              sbci R19,255
 125C 01E0              ldi R16,1
 125E 0E940000          xcall _lcd_write_char_con
 1262                   .dbline 597
 1262           ;          lcd_write_char(2,2,numH);
 1262 C882              std y+0,R12
 1264 22E0              ldi R18,2
 1266 02E0              ldi R16,2
 1268 0E940000          xcall _lcd_write_char
 126C                   .dbline 598
 126C           ;        lcd_write_char_con(2,numL+5);
 126C 9701              movw R18,R14
 126E 2B5F              subi R18,251  ; offset = 5
 1270 3F4F              sbci R19,255
 1272 02E0              ldi R16,2
 1274 0E940000          xcall _lcd_write_char_con
 1278                   .dbline 599
 1278           ;        lcd_write_char(2,3,numH);
 1278 C882              std y+0,R12
 127A 23E0              ldi R18,3
 127C 02E0              ldi R16,2
 127E 0E940000          xcall _lcd_write_char
 1282                   .dbline 600
 1282           ;        lcd_write_char_con(3,numL+6);
 1282 9701              movw R18,R14
 1284 2A5F              subi R18,250  ; offset = 6
 1286 3F4F              sbci R19,255
 1288 03E0              ldi R16,3
 128A 0E940000          xcall _lcd_write_char_con
 128E                   .dbline 601
 128E           ;          y=1;
 128E 81E0              ldi R24,1
 1290 90E0              ldi R25,0
 1292 9D87              std y+13,R25
 1294 8C87              std y+12,R24
 1296                   .dbline 602
 1296           ;         }else if(y>=6 && y<9){
 1296 5FC0              xjmp L215
 1298           L214:
 1298                   .dbline 602
 1298 8C85              ldd R24,y+12
 129A 9D85              ldd R25,y+13
 129C 8630              cpi R24,6
 129E E0E0              ldi R30,0
 12A0 9E07              cpc R25,R30
 12A2 50F1              brlo L216
 12A4           X132:
 12A4 8930              cpi R24,9
 12A6 E0E0              ldi R30,0
 12A8 9E07              cpc R25,R30
 12AA 30F5              brsh L216
 12AC           X133:
 12AC                   .dbline 602
 12AC                   .dbline 603
 12AC           ;          lcd_write_char(2,1,numH);
 12AC C882              std y+0,R12
 12AE 21E0              ldi R18,1
 12B0 02E0              ldi R16,2
 12B2 0E940000          xcall _lcd_write_char
 12B6                   .dbline 604
 12B6           ;        lcd_write_char_con(1,numL+7);
 12B6 9701              movw R18,R14
 12B8 295F              subi R18,249  ; offset = 7
 12BA 3F4F              sbci R19,255
 12BC 01E0              ldi R16,1
 12BE 0E940000          xcall _lcd_write_char_con
 12C2                   .dbline 605
 12C2           ;          lcd_write_char(2,2,numH);
 12C2 C882              std y+0,R12
 12C4 22E0              ldi R18,2
 12C6 02E0              ldi R16,2
 12C8 0E940000          xcall _lcd_write_char
 12CC                   .dbline 606
 12CC           ;        lcd_write_char_con(2,numL+8);
 12CC 9701              movw R18,R14
 12CE 285F              subi R18,248  ; offset = 8
 12D0 3F4F              sbci R19,255
 12D2 02E0              ldi R16,2
 12D4 0E940000          xcall _lcd_write_char_con
 12D8                   .dbline 607
 12D8           ;        lcd_write_char(2,3,numH);
 12D8 C882              std y+0,R12
 12DA 23E0              ldi R18,3
 12DC 02E0              ldi R16,2
 12DE 0E940000          xcall _lcd_write_char
 12E2                   .dbline 608
 12E2           ;        lcd_write_char_con(3,numL+9);
 12E2 9701              movw R18,R14
 12E4 275F              subi R18,247  ; offset = 9
 12E6 3F4F              sbci R19,255
 12E8 03E0              ldi R16,3
 12EA 0E940000          xcall _lcd_write_char_con
 12EE                   .dbline 609
 12EE           ;          y=2;
 12EE 82E0              ldi R24,2
 12F0 90E0              ldi R25,0
 12F2 9D87              std y+13,R25
 12F4 8C87              std y+12,R24
 12F6                   .dbline 610
 12F6           ;         }else if(y>=9 && y<12){
 12F6 2FC0              xjmp L217
 12F8           L216:
 12F8                   .dbline 610
 12F8 8C85              ldd R24,y+12
 12FA 9D85              ldd R25,y+13
 12FC 8930              cpi R24,9
 12FE E0E0              ldi R30,0
 1300 9E07              cpc R25,R30
 1302 48F1              brlo L218
 1304           X134:
 1304 8C30              cpi R24,12
 1306 E0E0              ldi R30,0
 1308 9E07              cpc R25,R30
 130A 28F5              brsh L218
 130C           X135:
 130C                   .dbline 610
 130C                   .dbline 611
 130C           ;          lcd_write_char(2,1,numH);
 130C C882              std y+0,R12
 130E 21E0              ldi R18,1
 1310 02E0              ldi R16,2
 1312 0E940000          xcall _lcd_write_char
 1316                   .dbline 612
 1316           ;        lcd_write_char_con(1,numL+10);
 1316 9701              movw R18,R14
 1318 265F              subi R18,246  ; offset = 10
 131A 3F4F              sbci R19,255
 131C 01E0              ldi R16,1
 131E 0E940000          xcall _lcd_write_char_con
 1322                   .dbline 613
 1322           ;          lcd_write_char(2,2,numH);
 1322 C882              std y+0,R12
 1324 22E0              ldi R18,2
 1326 02E0              ldi R16,2
 1328 0E940000          xcall _lcd_write_char
 132C                   .dbline 614
 132C           ;        lcd_write_char_con(2,numL+11);
 132C 9701              movw R18,R14
 132E 255F              subi R18,245  ; offset = 11
 1330 3F4F              sbci R19,255
 1332 02E0              ldi R16,2
 1334 0E940000          xcall _lcd_write_char_con
 1338                   .dbline 615
 1338           ;        lcd_write_char(2,3,numH);
 1338 C882              std y+0,R12
 133A 23E0              ldi R18,3
 133C 02E0              ldi R16,2
 133E 0E940000          xcall _lcd_write_char
 1342                   .dbline 616
 1342           ;        lcd_write_char_con(3,numL+12);
 1342 9701              movw R18,R14
 1344 245F              subi R18,244  ; offset = 12
 1346 3F4F              sbci R19,255
 1348 03E0              ldi R16,3
 134A 0E940000          xcall _lcd_write_char_con
 134E                   .dbline 617
 134E           ;          y=3;
 134E 83E0              ldi R24,3
 1350 90E0              ldi R25,0
 1352 9D87              std y+13,R25
 1354 8C87              std y+12,R24
 1356                   .dbline 618
 1356           ;         }
 1356           L218:
 1356           L217:
 1356           L215:
 1356           L213:
 1356                   .dbline 620
 1356           ;         //还要做数据读取操作
 1356           ;         beginCur=y*33;//获得首个数据
 1356 01E2              ldi R16,33
 1358 10E0              ldi R17,0
 135A 2C85              ldd R18,y+12
 135C 3D85              ldd R19,y+13
 135E 0E940000          xcall empy16s
 1362 A801              movw R20,R16
 1364                   .dbline 621
 1364           ;         for(i=1;i<=3;i++){
 1364 61E0              ldi R22,1
 1366 70E0              ldi R23,0
 1368 C5C0              xjmp L223
 136A           L220:
 136A                   .dbline 621
 136A                   .dbline 622
 136A           ;           if(i==1){//第一次进入需要判断，首位写不许用++
 136A 6130              cpi R22,1
 136C E0E0              ldi R30,0
 136E 7E07              cpc R23,R30
 1370 71F4              brne L224
 1372           X136:
 1372                   .dbline 622
 1372                   .dbline 623
 1372           ;                lcd_write_char(3,i,0x30 | *(dataCach+beginCur));
 1372 FA01              movw R30,R20
 1374 EE0F              lsl R30
 1376 FF1F              rol R31
 1378 EA0D              add R30,R10
 137A FB1D              adc R31,R11
 137C 8081              ldd R24,z+0
 137E 9181              ldd R25,z+1
 1380 8063              ori R24,48
 1382 8883              std y+0,R24
 1384 262F              mov R18,R22
 1386 03E0              ldi R16,3
 1388 0E940000          xcall _lcd_write_char
 138C                   .dbline 624
 138C           ;               }else{
 138C 10C0              xjmp L225
 138E           L224:
 138E                   .dbline 624
 138E                   .dbline 625
 138E           ;                lcd_write_char(3,i,0x30 | *(dataCach+(++beginCur)));
 138E CA01              movw R24,R20
 1390 0196              adiw R24,1
 1392 AC01              movw R20,R24
 1394 FC01              movw R30,R24
 1396 EE0F              lsl R30
 1398 FF1F              rol R31
 139A EA0D              add R30,R10
 139C FB1D              adc R31,R11
 139E 8081              ldd R24,z+0
 13A0 9181              ldd R25,z+1
 13A2 8063              ori R24,48
 13A4 8883              std y+0,R24
 13A6 262F              mov R18,R22
 13A8 03E0              ldi R16,3
 13AA 0E940000          xcall _lcd_write_char
 13AE                   .dbline 626
 13AE           ;               }
 13AE           L225:
 13AE                   .dbline 627
 13AE           ;         lcd_write_char_con(i, 0x30 | *(dataCach+(++beginCur)));
 13AE CA01              movw R24,R20
 13B0 0196              adiw R24,1
 13B2 AC01              movw R20,R24
 13B4 FC01              movw R30,R24
 13B6 EE0F              lsl R30
 13B8 FF1F              rol R31
 13BA EA0D              add R30,R10
 13BC FB1D              adc R31,R11
 13BE 2081              ldd R18,z+0
 13C0 3181              ldd R19,z+1
 13C2 2063              ori R18,48
 13C4 062F              mov R16,R22
 13C6 0E940000          xcall _lcd_write_char_con
 13CA                   .dbline 628
 13CA           ;                lcd_write_str_con(i,": ");
 13CA 20E0              ldi R18,<L226
 13CC 30E0              ldi R19,>L226
 13CE 062F              mov R16,R22
 13D0 0E940000          xcall _lcd_write_str_con
 13D4                   .dbline 629
 13D4           ;            lcd_write_char_con(i,0x30 |  *(dataCach+(++beginCur)));
 13D4 CA01              movw R24,R20
 13D6 0196              adiw R24,1
 13D8 AC01              movw R20,R24
 13DA FC01              movw R30,R24
 13DC EE0F              lsl R30
 13DE FF1F              rol R31
 13E0 EA0D              add R30,R10
 13E2 FB1D              adc R31,R11
 13E4 2081              ldd R18,z+0
 13E6 3181              ldd R19,z+1
 13E8 2063              ori R18,48
 13EA 062F              mov R16,R22
 13EC 0E940000          xcall _lcd_write_char_con
 13F0                   .dbline 630
 13F0           ;                lcd_write_char_con(i,0x30 |  *(dataCach+(++beginCur)));
 13F0 CA01              movw R24,R20
 13F2 0196              adiw R24,1
 13F4 AC01              movw R20,R24
 13F6 FC01              movw R30,R24
 13F8 EE0F              lsl R30
 13FA FF1F              rol R31
 13FC EA0D              add R30,R10
 13FE FB1D              adc R31,R11
 1400 2081              ldd R18,z+0
 1402 3181              ldd R19,z+1
 1404 2063              ori R18,48
 1406 062F              mov R16,R22
 1408 0E940000          xcall _lcd_write_char_con
 140C                   .dbline 632
 140C           ;                
 140C           ;                lcd_write_char(7,i, 0x30 | *(dataCach+(++beginCur)));
 140C CA01              movw R24,R20
 140E 0196              adiw R24,1
 1410 AC01              movw R20,R24
 1412 FC01              movw R30,R24
 1414 EE0F              lsl R30
 1416 FF1F              rol R31
 1418 EA0D              add R30,R10
 141A FB1D              adc R31,R11
 141C 8081              ldd R24,z+0
 141E 9181              ldd R25,z+1
 1420 8063              ori R24,48
 1422 8883              std y+0,R24
 1424 262F              mov R18,R22
 1426 07E0              ldi R16,7
 1428 0E940000          xcall _lcd_write_char
 142C                   .dbline 633
 142C           ;                lcd_write_char_con(i,0x30 | *(dataCach+(++beginCur)));
 142C CA01              movw R24,R20
 142E 0196              adiw R24,1
 1430 AC01              movw R20,R24
 1432 FC01              movw R30,R24
 1434 EE0F              lsl R30
 1436 FF1F              rol R31
 1438 EA0D              add R30,R10
 143A FB1D              adc R31,R11
 143C 2081              ldd R18,z+0
 143E 3181              ldd R19,z+1
 1440 2063              ori R18,48
 1442 062F              mov R16,R22
 1444 0E940000          xcall _lcd_write_char_con
 1448                   .dbline 634
 1448           ;                 lcd_write_str_con(i,": ");
 1448 20E0              ldi R18,<L226
 144A 30E0              ldi R19,>L226
 144C 062F              mov R16,R22
 144E 0E940000          xcall _lcd_write_str_con
 1452                   .dbline 635
 1452           ;                lcd_write_char_con(i,0x30 |  *(dataCach+(++beginCur)));
 1452 CA01              movw R24,R20
 1454 0196              adiw R24,1
 1456 AC01              movw R20,R24
 1458 FC01              movw R30,R24
 145A EE0F              lsl R30
 145C FF1F              rol R31
 145E EA0D              add R30,R10
 1460 FB1D              adc R31,R11
 1462 2081              ldd R18,z+0
 1464 3181              ldd R19,z+1
 1466 2063              ori R18,48
 1468 062F              mov R16,R22
 146A 0E940000          xcall _lcd_write_char_con
 146E                   .dbline 636
 146E           ;                lcd_write_char_con(i, 0x30 | *(dataCach+(++beginCur)));
 146E CA01              movw R24,R20
 1470 0196              adiw R24,1
 1472 AC01              movw R20,R24
 1474 FC01              movw R30,R24
 1476 EE0F              lsl R30
 1478 FF1F              rol R31
 147A EA0D              add R30,R10
 147C FB1D              adc R31,R11
 147E 2081              ldd R18,z+0
 1480 3181              ldd R19,z+1
 1482 2063              ori R18,48
 1484 062F              mov R16,R22
 1486 0E940000          xcall _lcd_write_char_con
 148A                   .dbline 638
 148A           ;                
 148A           ;                lcd_write_str(10,i," ");
 148A 80E0              ldi R24,<L227
 148C 90E0              ldi R25,>L227
 148E 9983              std y+1,R25
 1490 8883              std y+0,R24
 1492 262F              mov R18,R22
 1494 0AE0              ldi R16,10
 1496 0E940000          xcall _lcd_write_str
 149A                   .dbline 639
 149A           ;                lcd_write_char_con(i,0x30 |  *(dataCach+(++beginCur)));
 149A CA01              movw R24,R20
 149C 0196              adiw R24,1
 149E AC01              movw R20,R24
 14A0 FC01              movw R30,R24
 14A2 EE0F              lsl R30
 14A4 FF1F              rol R31
 14A6 EA0D              add R30,R10
 14A8 FB1D              adc R31,R11
 14AA 2081              ldd R18,z+0
 14AC 3181              ldd R19,z+1
 14AE 2063              ori R18,48
 14B0 062F              mov R16,R22
 14B2 0E940000          xcall _lcd_write_char_con
 14B6                   .dbline 640
 14B6           ;                lcd_write_char_con(i,0x30 | *(dataCach+(++beginCur)));
 14B6 CA01              movw R24,R20
 14B8 0196              adiw R24,1
 14BA AC01              movw R20,R24
 14BC FC01              movw R30,R24
 14BE EE0F              lsl R30
 14C0 FF1F              rol R31
 14C2 EA0D              add R30,R10
 14C4 FB1D              adc R31,R11
 14C6 2081              ldd R18,z+0
 14C8 3181              ldd R19,z+1
 14CA 2063              ori R18,48
 14CC 062F              mov R16,R22
 14CE 0E940000          xcall _lcd_write_char_con
 14D2                   .dbline 641
 14D2           ;                lcd_write_char_con(i, 0x30 | *(dataCach+(++beginCur)));
 14D2 CA01              movw R24,R20
 14D4 0196              adiw R24,1
 14D6 6C01              movw R12,R24
 14D8 AC01              movw R20,R24
 14DA FC01              movw R30,R24
 14DC EE0F              lsl R30
 14DE FF1F              rol R31
 14E0 EA0D              add R30,R10
 14E2 FB1D              adc R31,R11
 14E4 2081              ldd R18,z+0
 14E6 3181              ldd R19,z+1
 14E8 2063              ori R18,48
 14EA 062F              mov R16,R22
 14EC 0E940000          xcall _lcd_write_char_con
 14F0                   .dbline 642
 14F0           ;         }
 14F0           L221:
 14F0                   .dbline 621
 14F0 6F5F              subi R22,255  ; offset = 1
 14F2 7F4F              sbci R23,255
 14F4           L223:
 14F4                   .dbline 621
 14F4 83E0              ldi R24,3
 14F6 90E0              ldi R25,0
 14F8 8617              cp R24,R22
 14FA 9707              cpc R25,R23
 14FC 08F0              brlo X138
 14FE 35CF              xjmp L220
 1500           X138:
 1500           X137:
 1500                   .dbline -2
 1500           L211:
 1500                   .dbline 0 ; func end
 1500 2296              adiw R28,2
 1502 0E940000          xcall pop_xgsetF0FC
 1506 2496              adiw R28,4
 1508 0895              ret
 150A                   .dbsym r numL 14 i
 150A                   .dbsym r numH 12 i
 150A                   .dbsym r beginCur 20 i
 150A                   .dbsym r i 22 i
 150A                   .dbsym r dataCach 10 pi
 150A                   .dbsym l y 12 i
 150A                   .dbend
 150A                   .dbfunc e page4_ac _page4_ac fV
 150A           ;              y -> R10,R11
 150A           ;              x -> R22,R23
 150A           ;          lcd_y -> R20,R21
 150A           ;       dataCach -> R12,R13
 150A           ;         oldcur -> y+12
 150A           ;            cur -> y+10
                        .even
 150A           _page4_ac::
 150A 0E940000          xcall push_arg4
 150E 0E940000          xcall push_xgsetF0FC
 1512 CE84              ldd R12,y+14
 1514 DF84              ldd R13,y+15
 1516                   .dbline -1
 1516                   .dbline 646
 1516           ;         
 1516           ;  }
 1516           ;  //传入cur做ac位置操作,判断是否翻页
 1516           ;  void page4_ac(uint cur,uint oldcur,uint* dataCach){
 1516                   .dbline 647
 1516           ;       uint y=cur/11;//逻辑y.从0开始
 1516 2BE0              ldi R18,11
 1518 30E0              ldi R19,0
 151A 0A85              ldd R16,y+10
 151C 1B85              ldd R17,y+11
 151E 0E940000          xcall div16u
 1522 5801              movw R10,R16
 1524                   .dbline 649
 1524           ;         uint lcd_y;//显示y
 1524           ;         uint x=cur%11;//x轴
 1524 2BE0              ldi R18,11
 1526 30E0              ldi R19,0
 1528 0A85              ldd R16,y+10
 152A 1B85              ldd R17,y+11
 152C 0E940000          xcall mod16u
 1530 B801              movw R22,R16
 1532                   .dbline 650
 1532           ;         switch(y%3){
 1532 23E0              ldi R18,3
 1534 30E0              ldi R19,0
 1536 8501              movw R16,R10
 1538 0E940000          xcall mod16u
 153C 7801              movw R14,R16
 153E 0030              cpi R16,0
 1540 0107              cpc R16,R17
 1542 51F0              breq L232
 1544           X139:
 1544 C701              movw R24,R14
 1546 0130              cpi R16,1
 1548 E0E0              ldi R30,0
 154A 1E07              cpc R17,R30
 154C 41F0              breq L233
 154E           X140:
 154E 0230              cpi R16,2
 1550 E0E0              ldi R30,0
 1552 1E07              cpc R17,R30
 1554 39F0              breq L234
 1556           X141:
 1556 08C0              xjmp L229
 1558           L232:
 1558                   .dbline 652
 1558           ;          case 0://1行
 1558           ;            lcd_y=1;
 1558 41E0              ldi R20,1
 155A 50E0              ldi R21,0
 155C                   .dbline 653
 155C           ;            break;
 155C 05C0              xjmp L230
 155E           L233:
 155E                   .dbline 655
 155E           ;          case 1://2行
 155E           ;            lcd_y=2;
 155E 42E0              ldi R20,2
 1560 50E0              ldi R21,0
 1562                   .dbline 656
 1562           ;                break;
 1562 02C0              xjmp L230
 1564           L234:
 1564                   .dbline 658
 1564           ;          case 2://3行
 1564           ;            lcd_y=3;
 1564 43E0              ldi R20,3
 1566 50E0              ldi R21,0
 1568                   .dbline 659
 1568           ;            break;
 1568           L229:
 1568           L230:
 1568                   .dbline 661
 1568           ;         }
 1568           ;         switch((oldcur/11)/3){
 1568 2BE0              ldi R18,11
 156A 30E0              ldi R19,0
 156C 0C85              ldd R16,y+12
 156E 1D85              ldd R17,y+13
 1570 0E940000          xcall div16u
 1574 23E0              ldi R18,3
 1576 30E0              ldi R19,0
 1578 0E940000          xcall div16u
 157C 7801              movw R14,R16
 157E 0030              cpi R16,0
 1580 0107              cpc R16,R17
 1582 71F0              breq L238
 1584           X142:
 1584 C701              movw R24,R14
 1586 0130              cpi R16,1
 1588 E0E0              ldi R30,0
 158A 1E07              cpc R17,R30
 158C A1F0              breq L241
 158E           X143:
 158E 0230              cpi R16,2
 1590 E0E0              ldi R30,0
 1592 1E07              cpc R17,R30
 1594 01F1              breq L245
 1596           X144:
 1596 0330              cpi R16,3
 1598 E0E0              ldi R30,0
 159A 1E07              cpc R17,R30
 159C 69F1              breq L249
 159E           X145:
 159E 35C0              xjmp L235
 15A0           L238:
 15A0                   .dbline 663
 15A0           ;           case 0:
 15A0           ;                if(cur>32){
 15A0 80E2              ldi R24,32
 15A2 90E0              ldi R25,0
 15A4 0A84              ldd R0,y+10
 15A6 1B84              ldd R1,y+11
 15A8 8015              cp R24,R0
 15AA 9105              cpc R25,R1
 15AC 70F5              brsh L236
 15AE           X146:
 15AE                   .dbline 663
 15AE                   .dbline 664
 15AE           ;                  page4_data(y,dataCach);
 15AE 9601              movw R18,R12
 15B0 8501              movw R16,R10
 15B2 07DE              xcall _page4_data
 15B4                   .dbline 665
 15B4           ;                }
 15B4                   .dbline 666
 15B4           ;                break;
 15B4 2AC0              xjmp L236
 15B6           L241:
 15B6                   .dbline 668
 15B6           ;               case 1:
 15B6           ;                 if(cur>65 || cur<33){
 15B6 81E4              ldi R24,65
 15B8 90E0              ldi R25,0
 15BA 0A84              ldd R0,y+10
 15BC 1B84              ldd R1,y+11
 15BE 8015              cp R24,R0
 15C0 9105              cpc R25,R1
 15C2 28F0              brlo L244
 15C4           X147:
 15C4 C001              movw R24,R0
 15C6 8132              cpi R24,33
 15C8 E0E0              ldi R30,0
 15CA 9E07              cpc R25,R30
 15CC F0F4              brsh L236
 15CE           X148:
 15CE           L244:
 15CE                   .dbline 668
 15CE                   .dbline 669
 15CE           ;                  page4_data(y,dataCach);
 15CE 9601              movw R18,R12
 15D0 8501              movw R16,R10
 15D2 F7DD              xcall _page4_data
 15D4                   .dbline 670
 15D4           ;                }
 15D4                   .dbline 671
 15D4           ;                break;
 15D4 1AC0              xjmp L236
 15D6           L245:
 15D6                   .dbline 673
 15D6           ;               case 2:
 15D6           ;               if(cur<66 || cur>98){
 15D6 8A85              ldd R24,y+10
 15D8 9B85              ldd R25,y+11
 15DA 8234              cpi R24,66
 15DC E0E0              ldi R30,0
 15DE 9E07              cpc R25,R30
 15E0 38F0              brlo L248
 15E2           X149:
 15E2 82E6              ldi R24,98
 15E4 90E0              ldi R25,0
 15E6 0A84              ldd R0,y+10
 15E8 1B84              ldd R1,y+11
 15EA 8015              cp R24,R0
 15EC 9105              cpc R25,R1
 15EE 68F4              brsh L236
 15F0           X150:
 15F0           L248:
 15F0                   .dbline 673
 15F0                   .dbline 674
 15F0           ;                  page4_data(y,dataCach);
 15F0 9601              movw R18,R12
 15F2 8501              movw R16,R10
 15F4 E6DD              xcall _page4_data
 15F6                   .dbline 675
 15F6           ;                }
 15F6                   .dbline 676
 15F6           ;                break;
 15F6 09C0              xjmp L236
 15F8           L249:
 15F8                   .dbline 678
 15F8           ;               case 3:
 15F8           ;               if(cur<99){
 15F8 8A85              ldd R24,y+10
 15FA 9B85              ldd R25,y+11
 15FC 8336              cpi R24,99
 15FE E0E0              ldi R30,0
 1600 9E07              cpc R25,R30
 1602 18F4              brsh L236
 1604           X151:
 1604                   .dbline 678
 1604                   .dbline 679
 1604           ;                  page4_data(y,dataCach);
 1604 9601              movw R18,R12
 1606 8501              movw R16,R10
 1608 DCDD              xcall _page4_data
 160A                   .dbline 680
 160A           ;                }
 160A                   .dbline 681
 160A           ;                break;
 160A           L235:
 160A           L236:
 160A                   .dbline 683
 160A           ;         }
 160A           ;         if(lcd_y==1){
 160A 4130              cpi R20,1
 160C E0E0              ldi R30,0
 160E 5E07              cpc R21,R30
 1610 49F4              brne L252
 1612           X152:
 1612                   .dbline 683
 1612                   .dbline 684
 1612           ;            cur_set(3);
 1612 03E0              ldi R16,3
 1614 10E0              ldi R17,0
 1616 0E940000          xcall _cur_set
 161A                   .dbline 685
 161A           ;                cur_set(4);
 161A 04E0              ldi R16,4
 161C 10E0              ldi R17,0
 161E 0E940000          xcall _cur_set
 1622                   .dbline 686
 1622           ;         }else if(lcd_y==2 || lcd_y==3){
 1622 10C0              xjmp L253
 1624           L252:
 1624                   .dbline 686
 1624 4230              cpi R20,2
 1626 E0E0              ldi R30,0
 1628 5E07              cpc R21,R30
 162A 21F0              breq L256
 162C           X153:
 162C 4330              cpi R20,3
 162E E0E0              ldi R30,0
 1630 5E07              cpc R21,R30
 1632 41F4              brne L254
 1634           X154:
 1634           L256:
 1634                   .dbline 686
 1634                   .dbline 687
 1634           ;            cur_set(0);
 1634 0027              clr R16
 1636 1127              clr R17
 1638 0E940000          xcall _cur_set
 163C                   .dbline 688
 163C           ;                cur_set(7);
 163C 07E0              ldi R16,7
 163E 10E0              ldi R17,0
 1640 0E940000          xcall _cur_set
 1644                   .dbline 689
 1644           ;         }
 1644           L254:
 1644           L253:
 1644                   .dbline 690
 1644           ;         if(x==0){
 1644 6030              cpi R22,0
 1646 6707              cpc R22,R23
 1648 29F4              brne L257
 164A           X155:
 164A                   .dbline 690
 164A                   .dbline 691
 164A           ;             lcd_write_pos(3,lcd_y);
 164A 242F              mov R18,R20
 164C 03E0              ldi R16,3
 164E 0E940000          xcall _lcd_write_pos
 1652                   .dbline 692
 1652           ;         }else if(x==2){
 1652 31C0              xjmp L228
 1654           L257:
 1654                   .dbline 692
 1654 6230              cpi R22,2
 1656 E0E0              ldi R30,0
 1658 7E07              cpc R23,R30
 165A 29F4              brne L259
 165C           X156:
 165C                   .dbline 692
 165C                   .dbline 693
 165C           ;              lcd_write_pos(5,lcd_y);
 165C 242F              mov R18,R20
 165E 05E0              ldi R16,5
 1660 0E940000          xcall _lcd_write_pos
 1664                   .dbline 694
 1664           ;         }else if(x==4){
 1664 28C0              xjmp L228
 1666           L259:
 1666                   .dbline 694
 1666 6430              cpi R22,4
 1668 E0E0              ldi R30,0
 166A 7E07              cpc R23,R30
 166C 29F4              brne L261
 166E           X157:
 166E                   .dbline 694
 166E                   .dbline 695
 166E           ;               lcd_write_pos(7,lcd_y);
 166E 242F              mov R18,R20
 1670 07E0              ldi R16,7
 1672 0E940000          xcall _lcd_write_pos
 1676                   .dbline 696
 1676           ;         }else if(x==6){
 1676 1FC0              xjmp L228
 1678           L261:
 1678                   .dbline 696
 1678 6630              cpi R22,6
 167A E0E0              ldi R30,0
 167C 7E07              cpc R23,R30
 167E 29F4              brne L263
 1680           X158:
 1680                   .dbline 696
 1680                   .dbline 697
 1680           ;               lcd_write_pos(9,lcd_y);
 1680 242F              mov R18,R20
 1682 09E0              ldi R16,9
 1684 0E940000          xcall _lcd_write_pos
 1688                   .dbline 698
 1688           ;         }else if(x==8){
 1688 16C0              xjmp L228
 168A           L263:
 168A                   .dbline 698
 168A 6830              cpi R22,8
 168C E0E0              ldi R30,0
 168E 7E07              cpc R23,R30
 1690 51F4              brne L265
 1692           X159:
 1692                   .dbline 698
 1692                   .dbline 699
 1692           ;               lcd_write_pos(10,lcd_y);
 1692 242F              mov R18,R20
 1694 0AE0              ldi R16,10
 1696 0E940000          xcall _lcd_write_pos
 169A                   .dbline 700
 169A           ;                       lcd_write_str_con(lcd_y," ");
 169A 20E0              ldi R18,<L227
 169C 30E0              ldi R19,>L227
 169E 042F              mov R16,R20
 16A0 0E940000          xcall _lcd_write_str_con
 16A4                   .dbline 701
 16A4           ;         }else if(x==9){
 16A4 08C0              xjmp L228
 16A6           L265:
 16A6                   .dbline 701
 16A6 6930              cpi R22,9
 16A8 E0E0              ldi R30,0
 16AA 7E07              cpc R23,R30
 16AC 21F4              brne L228
 16AE           X160:
 16AE                   .dbline 701
 16AE                   .dbline 702
 16AE           ;               lcd_write_pos(11,lcd_y);
 16AE 242F              mov R18,R20
 16B0 0BE0              ldi R16,11
 16B2 0E940000          xcall _lcd_write_pos
 16B6                   .dbline 703
 16B6           ;         }
 16B6                   .dbline 704
 16B6           ;         return;
 16B6                   .dbline -2
 16B6           L228:
 16B6                   .dbline 0 ; func end
 16B6 0E940000          xcall pop_xgsetF0FC
 16BA 2496              adiw R28,4
 16BC 0895              ret
 16BE                   .dbsym r y 10 i
 16BE                   .dbsym r x 22 i
 16BE                   .dbsym r lcd_y 20 i
 16BE                   .dbsym r dataCach 12 pi
 16BE                   .dbsym l oldcur 12 i
 16BE                   .dbsym l cur 10 i
 16BE                   .dbend
                        .area data(ram, con, rel)
 0000                   .dbfile E:\ICCDemo\Temp_Control\temp_control\pages.c
 0000           L270:
 0000                   .blkb 2
                        .area idata
 0000 0000              .word 0
                        .area data(ram, con, rel)
 0002                   .dbfile E:\ICCDemo\Temp_Control\temp_control\pages.c
 0002                   .blkb 260
                        .area idata
 0002 000000000000000000000000000000000000000000000000000000000000000000000000000000000000000000000000000000000000000000000000  .word 0,0,0,0,0,0,0,0,0,0,0,0,0,0,0,0,0,0,0,0,0,0,0,0,0,0,0,0,0,0
 003E 000000000000000000000000000000000000000000000000000000000000000000000000000000000000000000000000000000000000000000000000  .word 0,0,0,0,0,0,0,0,0,0,0,0,0,0,0,0,0,0,0,0,0,0,0,0,0,0,0,0,0,0
 007A 000000000000000000000000000000000000000000000000000000000000000000000000000000000000000000000000000000000000000000000000  .word 0,0,0,0,0,0,0,0,0,0,0,0,0,0,0,0,0,0,0,0,0,0,0,0,0,0,0,0,0,0
 00B6 000000000000000000000000000000000000000000000000000000000000000000000000000000000000000000000000000000000000000000000000  .word 0,0,0,0,0,0,0,0,0,0,0,0,0,0,0,0,0,0,0,0,0,0,0,0,0,0,0,0,0,0
 00F2 00000000000000000000      .word 0,0,0,0,0
 00FC 00000000000000000000      .byte 0,0,0,0,0,0,0,0,0,0
                        .area data(ram, con, rel)
 0106                   .dbfile E:\ICCDemo\Temp_Control\temp_control\pages.c
                        .area text(rom, con, rel)
 16BE                   .dbfile E:\ICCDemo\Temp_Control\temp_control\pages.c
 16BE                   .dbfunc e page4 _page4 fV
 16BE           ;           numL -> R20,R21
 16BE           ;           numH -> R20,R21
 16BE           ;         oldcur -> R22,R23
 16BE           ;       dataCach -> y+2
 16BE           ;            cur -> R20,R21
 16BE           ;           keyV -> R10
 16BE           ;              i -> R10,R11
                        .even
 16BE           _page4::
 16BE 0E940000          xcall push_xgsetF03C
 16C2 EF97              sbiw R28,63
 16C4 EF97              sbiw R28,63
 16C6 EF97              sbiw R28,63
 16C8 EF97              sbiw R28,63
 16CA 2C97              sbiw R28,12  ; offset = 264
 16CC                   .dbline -1
 16CC                   .dbline 706
 16CC           ;  }
 16CC           ;   void page4(void){
 16CC                   .dbline 708
 16CC           ;     //定义一个局部的结构体，从对呀温度中获得数据。暂时未写
 16CC           ;   uint numH=0xA2;
 16CC                   .dbline 709
 16CC           ;   uint numL=0xC4;//带括号的123，低位加1是1、方便操作，需要加上即可
 16CC                   .dbline 710
 16CC           ;   uint cur=0;
 16CC 4427              clr R20
 16CE 5527              clr R21
 16D0                   .dbline 711
 16D0           ;   uint oldcur=0;
 16D0 6627              clr R22
 16D2 7727              clr R23
 16D4                   .dbline 712
 16D4           ;   uint dataCach[131]={0};
 16D4 80E0              ldi R24,<L270
 16D6 90E0              ldi R25,>L270
 16D8 FE01              movw R30,R28
 16DA 3296              adiw R30,2
 16DC 06E0              ldi R16,262
 16DE 11E0              ldi R17,1
 16E0 FA93              st -y,R31
 16E2 EA93              st -y,R30
 16E4 9A93              st -y,R25
 16E6 8A93              st -y,R24
 16E8 0E940000          xcall asgnblk
 16EC                   .dbline 713
 16EC           ;   uint i=0;
 16EC                   .dbline 715
 16EC           ;    uchar keyV;
 16EC           ;    lcd_write_str(0,0,"T");
 16EC 80E0              ldi R24,<L144
 16EE 90E0              ldi R25,>L144
 16F0 9983              std y+1,R25
 16F2 8883              std y+0,R24
 16F4 2227              clr R18
 16F6 0027              clr R16
 16F8 0E940000          xcall _lcd_write_str
 16FC                   .dbline 716
 16FC           ;    lcd_write_char_con(0,0x30 | (pageParam[0]+1));
 16FC 20910000          lds R18,_pageParam
 1700 30910100          lds R19,_pageParam+1
 1704 2F5F              subi R18,255  ; offset = 1
 1706 3F4F              sbci R19,255
 1708 2063              ori R18,48
 170A 0027              clr R16
 170C 0E940000          xcall _lcd_write_char_con
 1710                   .dbline 717
 1710           ;    lcd_write_char_con(0,':');
 1710 2AE3              ldi R18,58
 1712 0027              clr R16
 1714 0E940000          xcall _lcd_write_char_con
 1718                   .dbline 719
 1718           ;    
 1718           ;    lcd_write_str(4,0,"升温");
 1718 80E0              ldi R24,<L170
 171A 90E0              ldi R25,>L170
 171C 9983              std y+1,R25
 171E 8883              std y+0,R24
 1720 2227              clr R18
 1722 04E0              ldi R16,4
 1724 0E940000          xcall _lcd_write_str
 1728                   .dbline 720
 1728           ;    lcd_write_str(7,0,"恒温");
 1728 80E0              ldi R24,<L172
 172A 90E0              ldi R25,>L172
 172C 9983              std y+1,R25
 172E 8883              std y+0,R24
 1730 2227              clr R18
 1732 07E0              ldi R16,7
 1734 0E940000          xcall _lcd_write_str
 1738                   .dbline 721
 1738           ;    lcd_write_str(10,0,"温度");
 1738 80E0              ldi R24,<L271
 173A 90E0              ldi R25,>L271
 173C 9983              std y+1,R25
 173E 8883              std y+0,R24
 1740 2227              clr R18
 1742 0AE0              ldi R16,10
 1744 0E940000          xcall _lcd_write_str
 1748                   .dbline 722
 1748           ;    lcd_write_str(0,1,"保存");
 1748 80E0              ldi R24,<L272
 174A 90E0              ldi R25,>L272
 174C 9983              std y+1,R25
 174E 8883              std y+0,R24
 1750 21E0              ldi R18,1
 1752 0027              clr R16
 1754 0E940000          xcall _lcd_write_str
 1758                   .dbline 723
 1758           ;    lcd_write_str(0,2,"取消");
 1758 80E0              ldi R24,<L119
 175A 90E0              ldi R25,>L119
 175C 9983              std y+1,R25
 175E 8883              std y+0,R24
 1760 22E0              ldi R18,2
 1762 0027              clr R16
 1764 0E940000          xcall _lcd_write_str
 1768                   .dbline 724
 1768           ;    lcd_write_str(0,3,"重置");
 1768 80E0              ldi R24,<L150
 176A 90E0              ldi R25,>L150
 176C 9983              std y+1,R25
 176E 8883              std y+0,R24
 1770 23E0              ldi R18,3
 1772 0027              clr R16
 1774 0E940000          xcall _lcd_write_str
 1778                   .dbline 726
 1778           ;   
 1778           ;   for(i=0;i<132;i++){
 1778 AA24              clr R10
 177A BB24              clr R11
 177C 20C0              xjmp L276
 177E           L273:
 177E                   .dbline 726
 177E                   .dbline 727
 177E           ;     dataCach[i]=temps[pageParam[0]].temp_data[i];
 177E 1501              movw R2,R10
 1780 220C              lsl R2
 1782 331C              rol R3
 1784 2101              movw R4,R2
 1786 20910000          lds R18,_pageParam
 178A 30910100          lds R19,_pageParam+1
 178E 04E4              ldi R16,324
 1790 11E0              ldi R17,1
 1792 0E940000          xcall empy16s
 1796 80E0              ldi R24,<_temps+2
 1798 90E0              ldi R25,>_temps+2
 179A 1801              movw R2,R16
 179C 280E              add R2,R24
 179E 391E              adc R3,R25
 17A0 F201              movw R30,R4
 17A2 E20D              add R30,R2
 17A4 F31D              adc R31,R3
 17A6 2080              ldd R2,z+0
 17A8 3180              ldd R3,z+1
 17AA CE01              movw R24,R28
 17AC 0296              adiw R24,2
 17AE F201              movw R30,R4
 17B0 E80F              add R30,R24
 17B2 F91F              adc R31,R25
 17B4 3182              std z+1,R3
 17B6 2082              std z+0,R2
 17B8                   .dbline 728
 17B8           ;   }
 17B8           L274:
 17B8                   .dbline 726
 17B8 C501              movw R24,R10
 17BA 0196              adiw R24,1
 17BC 5C01              movw R10,R24
 17BE           L276:
 17BE                   .dbline 726
 17BE C501              movw R24,R10
 17C0 8438              cpi R24,132
 17C2 E0E0              ldi R30,0
 17C4 9E07              cpc R25,R30
 17C6 D8F2              brlo L273
 17C8           X161:
 17C8                   .dbline 729
 17C8           ;     page4_data(0,dataCach);//调用函数填充
 17C8 9E01              movw R18,R28
 17CA 2E5F              subi R18,254  ; offset = 2
 17CC 3F4F              sbci R19,255
 17CE 0027              clr R16
 17D0 1127              clr R17
 17D2 F7DC              xcall _page4_data
 17D4                   .dbline 730
 17D4           ;    cur=0;
 17D4 4427              clr R20
 17D6 5527              clr R21
 17D8                   .dbline 731
 17D8           ;    lcd_write_pos(3,1);
 17D8 21E0              ldi R18,1
 17DA 03E0              ldi R16,3
 17DC 0E940000          xcall _lcd_write_pos
 17E0                   .dbline 732
 17E0           ;    cur_set(3);
 17E0 03E0              ldi R16,3
 17E2 10E0              ldi R17,0
 17E4 0E940000          xcall _cur_set
 17E8 2BC2              xjmp L279
 17EA           L278:
 17EA                   .dbline 735
 17EA           ;    
 17EA           ;    //Set_White(9,2,10);
 17EA           ;     while(1){
 17EA                   .dbline 736
 17EA           ;       keyV=KeyScan_once();
 17EA 0E940000          xcall _KeyScan_once
 17EE A02E              mov R10,R16
 17F0                   .dbline 737
 17F0           ;         if(keyV=='e'){
 17F0 0536              cpi R16,101
 17F2 09F5              brne L281
 17F4           X162:
 17F4                   .dbline 737
 17F4                   .dbline 738
 17F4           ;               Set_White_off(1,1,2);
 17F4 82E0              ldi R24,2
 17F6 8883              std y+0,R24
 17F8 21E0              ldi R18,1
 17FA 01E0              ldi R16,1
 17FC 0E940000          xcall _Set_White_off
 1800                   .dbline 739
 1800           ;                       Set_White_off(1,2,2);
 1800 82E0              ldi R24,2
 1802 8883              std y+0,R24
 1804 22E0              ldi R18,2
 1806 01E0              ldi R16,1
 1808 0E940000          xcall _Set_White_off
 180C                   .dbline 740
 180C           ;                       Set_White_off(1,3,2);
 180C 82E0              ldi R24,2
 180E 8883              std y+0,R24
 1810 23E0              ldi R18,3
 1812 01E0              ldi R16,1
 1814 0E940000          xcall _Set_White_off
 1818                   .dbline 741
 1818           ;                       cur_set(0);
 1818 0027              clr R16
 181A 1127              clr R17
 181C 0E940000          xcall _cur_set
 1820                   .dbline 742
 1820           ;                       cur_set(4);
 1820 04E0              ldi R16,4
 1822 10E0              ldi R17,0
 1824 0E940000          xcall _cur_set
 1828                   .dbline 743
 1828           ;                   pageNum=3;
 1828 83E0              ldi R24,3
 182A 90E0              ldi R25,0
 182C 90930100          sts _pageNum+1,R25
 1830 80930000          sts _pageNum,R24
 1834                   .dbline 744
 1834           ;                   return;
 1834 06C2              xjmp L269
 1836           L281:
 1836                   .dbline 745
 1836           ;         }else if(keyV=='u'){
 1836 8A2D              mov R24,R10
 1838 8537              cpi R24,117
 183A 09F0              breq X201
 183C 46C0              xjmp L283
 183E           X201:
 183E           X163:
 183E                   .dbline 745
 183E                   .dbline 746
 183E           ;            if(cur==133){
 183E 4538              cpi R20,133
 1840 E0E0              ldi R30,0
 1842 5E07              cpc R21,R30
 1844 79F4              brne L285
 1846           X164:
 1846                   .dbline 746
 1846                   .dbline 747
 1846           ;                   Set_White(1,1,2);
 1846 82E0              ldi R24,2
 1848 8883              std y+0,R24
 184A 21E0              ldi R18,1
 184C 01E0              ldi R16,1
 184E 0E940000          xcall _Set_White
 1852                   .dbline 748
 1852           ;                       Set_White_off(1,2,2);
 1852 82E0              ldi R24,2
 1854 8883              std y+0,R24
 1856 22E0              ldi R18,2
 1858 01E0              ldi R16,1
 185A 0E940000          xcall _Set_White_off
 185E                   .dbline 749
 185E           ;                       cur=132;
 185E 44E8              ldi R20,132
 1860 50E0              ldi R21,0
 1862                   .dbline 750
 1862           ;                }else if(cur==134){
 1862 EEC1              xjmp L284
 1864           L285:
 1864                   .dbline 750
 1864 4638              cpi R20,134
 1866 E0E0              ldi R30,0
 1868 5E07              cpc R21,R30
 186A 79F4              brne L287
 186C           X165:
 186C                   .dbline 750
 186C                   .dbline 751
 186C           ;                   Set_White(1,2,2);
 186C 82E0              ldi R24,2
 186E 8883              std y+0,R24
 1870 22E0              ldi R18,2
 1872 01E0              ldi R16,1
 1874 0E940000          xcall _Set_White
 1878                   .dbline 752
 1878           ;                       Set_White_off(1,3,2);
 1878 82E0              ldi R24,2
 187A 8883              std y+0,R24
 187C 23E0              ldi R18,3
 187E 01E0              ldi R16,1
 1880 0E940000          xcall _Set_White_off
 1884                   .dbline 753
 1884           ;                       cur=133;
 1884 45E8              ldi R20,133
 1886 50E0              ldi R21,0
 1888                   .dbline 754
 1888           ;                }else if(cur>10 && cur<=131){
 1888 DBC1              xjmp L284
 188A           L287:
 188A                   .dbline 754
 188A 8AE0              ldi R24,10
 188C 90E0              ldi R25,0
 188E 8417              cp R24,R20
 1890 9507              cpc R25,R21
 1892 08F0              brlo X202
 1894 D5C1              xjmp L284
 1896           X202:
 1896           X166:
 1896 83E8              ldi R24,131
 1898 8417              cp R24,R20
 189A 9507              cpc R25,R21
 189C 08F4              brsh X203
 189E D0C1              xjmp L284
 18A0           X203:
 18A0           X167:
 18A0                   .dbline 754
 18A0                   .dbline 755
 18A0           ;                  oldcur=cur;
 18A0 BA01              movw R22,R20
 18A2                   .dbline 756
 18A2           ;              cur=(cur/11-1)*11;
 18A2 2BE0              ldi R18,11
 18A4 30E0              ldi R19,0
 18A6 8A01              movw R16,R20
 18A8 0E940000          xcall div16u
 18AC 9801              movw R18,R16
 18AE 2150              subi R18,1
 18B0 3040              sbci R19,0
 18B2 0BE0              ldi R16,11
 18B4 10E0              ldi R17,0
 18B6 0E940000          xcall empy16s
 18BA A801              movw R20,R16
 18BC                   .dbline 757
 18BC           ;                  page4_ac(cur,oldcur,dataCach);
 18BC CE01              movw R24,R28
 18BE 0296              adiw R24,2
 18C0 9983              std y+1,R25
 18C2 8883              std y+0,R24
 18C4 9B01              movw R18,R22
 18C6 21DE              xcall _page4_ac
 18C8                   .dbline 758
 18C8           ;                }
 18C8                   .dbline 759
 18C8           ;         }else if(keyV=='d'){
 18C8 BBC1              xjmp L284
 18CA           L283:
 18CA                   .dbline 759
 18CA 8A2D              mov R24,R10
 18CC 8436              cpi R24,100
 18CE 09F0              breq X204
 18D0 40C0              xjmp L291
 18D2           X204:
 18D2           X168:
 18D2                   .dbline 759
 18D2                   .dbline 760
 18D2           ;            if(cur==132){
 18D2 4438              cpi R20,132
 18D4 E0E0              ldi R30,0
 18D6 5E07              cpc R21,R30
 18D8 79F4              brne L293
 18DA           X169:
 18DA                   .dbline 760
 18DA                   .dbline 761
 18DA           ;                   Set_White_off(1,1,2);
 18DA 82E0              ldi R24,2
 18DC 8883              std y+0,R24
 18DE 21E0              ldi R18,1
 18E0 01E0              ldi R16,1
 18E2 0E940000          xcall _Set_White_off
 18E6                   .dbline 762
 18E6           ;                       Set_White(1,2,2);
 18E6 82E0              ldi R24,2
 18E8 8883              std y+0,R24
 18EA 22E0              ldi R18,2
 18EC 01E0              ldi R16,1
 18EE 0E940000          xcall _Set_White
 18F2                   .dbline 763
 18F2           ;                       cur=133;
 18F2 45E8              ldi R20,133
 18F4 50E0              ldi R21,0
 18F6                   .dbline 764
 18F6           ;                }else if(cur==133){
 18F6 A4C1              xjmp L292
 18F8           L293:
 18F8                   .dbline 764
 18F8 4538              cpi R20,133
 18FA E0E0              ldi R30,0
 18FC 5E07              cpc R21,R30
 18FE 79F4              brne L295
 1900           X170:
 1900                   .dbline 764
 1900                   .dbline 765
 1900           ;                   Set_White_off(1,2,2);
 1900 82E0              ldi R24,2
 1902 8883              std y+0,R24
 1904 22E0              ldi R18,2
 1906 01E0              ldi R16,1
 1908 0E940000          xcall _Set_White_off
 190C                   .dbline 766
 190C           ;                       Set_White(1,3,2);
 190C 82E0              ldi R24,2
 190E 8883              std y+0,R24
 1910 23E0              ldi R18,3
 1912 01E0              ldi R16,1
 1914 0E940000          xcall _Set_White
 1918                   .dbline 767
 1918           ;                       cur=134;
 1918 46E8              ldi R20,134
 191A 50E0              ldi R21,0
 191C                   .dbline 768
 191C           ;                }else if(cur<121){
 191C 91C1              xjmp L292
 191E           L295:
 191E                   .dbline 768
 191E 4937              cpi R20,121
 1920 E0E0              ldi R30,0
 1922 5E07              cpc R21,R30
 1924 08F0              brlo X205
 1926 8CC1              xjmp L292
 1928           X205:
 1928           X171:
 1928                   .dbline 768
 1928                   .dbline 769
 1928           ;             oldcur=cur;
 1928 BA01              movw R22,R20
 192A                   .dbline 770
 192A           ;             cur=(cur/11+1)*11;
 192A 2BE0              ldi R18,11
 192C 30E0              ldi R19,0
 192E 8A01              movw R16,R20
 1930 0E940000          xcall div16u
 1934 9801              movw R18,R16
 1936 2F5F              subi R18,255  ; offset = 1
 1938 3F4F              sbci R19,255
 193A 0BE0              ldi R16,11
 193C 10E0              ldi R17,0
 193E 0E940000          xcall empy16s
 1942 A801              movw R20,R16
 1944                   .dbline 771
 1944           ;                 page4_ac(cur,oldcur,dataCach);
 1944 CE01              movw R24,R28
 1946 0296              adiw R24,2
 1948 9983              std y+1,R25
 194A 8883              std y+0,R24
 194C 9B01              movw R18,R22
 194E DDDD              xcall _page4_ac
 1950                   .dbline 772
 1950           ;               }
 1950                   .dbline 774
 1950           ;               
 1950           ;         }else if(keyV=='l'){
 1950 77C1              xjmp L292
 1952           L291:
 1952                   .dbline 774
 1952 8A2D              mov R24,R10
 1954 8C36              cpi R24,108
 1956 09F0              breq X206
 1958 49C0              xjmp L299
 195A           X206:
 195A           X172:
 195A                   .dbline 774
 195A                   .dbline 775
 195A           ;          oldcur=cur;
 195A BA01              movw R22,R20
 195C                   .dbline 776
 195C           ;         if(cur%11==0){
 195C 2BE0              ldi R18,11
 195E 30E0              ldi R19,0
 1960 8A01              movw R16,R20
 1962 0E940000          xcall mod16u
 1966 0030              cpi R16,0
 1968 0107              cpc R16,R17
 196A 89F4              brne L301
 196C           X173:
 196C                   .dbline 776
 196C                   .dbline 777
 196C           ;               Set_White(1,1,2);
 196C 82E0              ldi R24,2
 196E 8883              std y+0,R24
 1970 21E0              ldi R18,1
 1972 01E0              ldi R16,1
 1974 0E940000          xcall _Set_White
 1978                   .dbline 778
 1978           ;                       cur_set(0);
 1978 0027              clr R16
 197A 1127              clr R17
 197C 0E940000          xcall _cur_set
 1980                   .dbline 779
 1980           ;                       cur_set(4);
 1980 04E0              ldi R16,4
 1982 10E0              ldi R17,0
 1984 0E940000          xcall _cur_set
 1988                   .dbline 780
 1988           ;                       cur=132;
 1988 44E8              ldi R20,132
 198A 50E0              ldi R21,0
 198C                   .dbline 781
 198C           ;          }else if(cur%11==2 || cur%11==4 || cur%11==6 || cur%11==8){
 198C 59C1              xjmp L300
 198E           L301:
 198E                   .dbline 781
 198E 2BE0              ldi R18,11
 1990 30E0              ldi R19,0
 1992 8A01              movw R16,R20
 1994 0E940000          xcall mod16u
 1998 6801              movw R12,R16
 199A C601              movw R24,R12
 199C 0230              cpi R16,2
 199E E0E0              ldi R30,0
 19A0 1E07              cpc R17,R30
 19A2 61F0              breq L307
 19A4           X174:
 19A4 0430              cpi R16,4
 19A6 E0E0              ldi R30,0
 19A8 1E07              cpc R17,R30
 19AA 41F0              breq L307
 19AC           X175:
 19AC 0630              cpi R16,6
 19AE E0E0              ldi R30,0
 19B0 1E07              cpc R17,R30
 19B2 21F0              breq L307
 19B4           X176:
 19B4 0830              cpi R16,8
 19B6 E0E0              ldi R30,0
 19B8 1E07              cpc R17,R30
 19BA 51F4              brne L303
 19BC           X177:
 19BC           L307:
 19BC                   .dbline 781
 19BC                   .dbline 782
 19BC           ;             cur-=2;
 19BC 4250              subi R20,2
 19BE 5040              sbci R21,0
 19C0                   .dbline 783
 19C0           ;                  page4_ac(cur,oldcur,dataCach);
 19C0 CE01              movw R24,R28
 19C2 0296              adiw R24,2
 19C4 9983              std y+1,R25
 19C6 8883              std y+0,R24
 19C8 9B01              movw R18,R22
 19CA 8A01              movw R16,R20
 19CC 9EDD              xcall _page4_ac
 19CE                   .dbline 784
 19CE           ;               }else if(cur>0){
 19CE 38C1              xjmp L300
 19D0           L303:
 19D0                   .dbline 784
 19D0 4030              cpi R20,0
 19D2 4507              cpc R20,R21
 19D4 09F4              brne X207
 19D6 34C1              xjmp L300
 19D8           X207:
 19D8           X178:
 19D8                   .dbline 784
 19D8                   .dbline 785
 19D8           ;             cur--;
 19D8 4150              subi R20,1
 19DA 5040              sbci R21,0
 19DC                   .dbline 786
 19DC           ;                  page4_ac(cur,oldcur,dataCach);
 19DC CE01              movw R24,R28
 19DE 0296              adiw R24,2
 19E0 9983              std y+1,R25
 19E2 8883              std y+0,R24
 19E4 9B01              movw R18,R22
 19E6 8A01              movw R16,R20
 19E8 90DD              xcall _page4_ac
 19EA                   .dbline 787
 19EA           ;               }
 19EA                   .dbline 789
 19EA           ;         
 19EA           ;         }else if(keyV=='r'){
 19EA 2AC1              xjmp L300
 19EC           L299:
 19EC                   .dbline 789
 19EC 8A2D              mov R24,R10
 19EE 8237              cpi R24,114
 19F0 41F5              brne L310
 19F2           X179:
 19F2                   .dbline 789
 19F2                   .dbline 790
 19F2           ;         if(cur>131){
 19F2 83E8              ldi R24,131
 19F4 90E0              ldi R25,0
 19F6 8417              cp R24,R20
 19F8 9507              cpc R25,R21
 19FA A0F4              brsh L312
 19FC           X180:
 19FC                   .dbline 790
 19FC                   .dbline 791
 19FC           ;             Set_White_off(1,1,2);
 19FC 82E0              ldi R24,2
 19FE 8883              std y+0,R24
 1A00 21E0              ldi R18,1
 1A02 01E0              ldi R16,1
 1A04 0E940000          xcall _Set_White_off
 1A08                   .dbline 792
 1A08           ;             Set_White_off(1,2,2);
 1A08 82E0              ldi R24,2
 1A0A 8883              std y+0,R24
 1A0C 22E0              ldi R18,2
 1A0E 01E0              ldi R16,1
 1A10 0E940000          xcall _Set_White_off
 1A14                   .dbline 793
 1A14           ;                 Set_White_off(1,3,2);
 1A14 82E0              ldi R24,2
 1A16 8883              std y+0,R24
 1A18 23E0              ldi R18,3
 1A1A 01E0              ldi R16,1
 1A1C 0E940000          xcall _Set_White_off
 1A20                   .dbline 794
 1A20           ;                 cur=oldcur;
 1A20 AB01              movw R20,R22
 1A22                   .dbline 795
 1A22           ;         }else  if(cur<131){
 1A22 07C0              xjmp L313
 1A24           L312:
 1A24                   .dbline 795
 1A24 4338              cpi R20,131
 1A26 E0E0              ldi R30,0
 1A28 5E07              cpc R21,R30
 1A2A 18F4              brsh L314
 1A2C           X181:
 1A2C                   .dbline 795
 1A2C                   .dbline 796
 1A2C           ;                oldcur=cur;
 1A2C BA01              movw R22,R20
 1A2E                   .dbline 797
 1A2E           ;            cur++;
 1A2E 4F5F              subi R20,255  ; offset = 1
 1A30 5F4F              sbci R21,255
 1A32                   .dbline 798
 1A32           ;                }
 1A32           L314:
 1A32           L313:
 1A32                   .dbline 799
 1A32           ;           page4_ac(cur,oldcur,dataCach);
 1A32 CE01              movw R24,R28
 1A34 0296              adiw R24,2
 1A36 9983              std y+1,R25
 1A38 8883              std y+0,R24
 1A3A 9B01              movw R18,R22
 1A3C 8A01              movw R16,R20
 1A3E 65DD              xcall _page4_ac
 1A40                   .dbline 800
 1A40           ;         }else if(keyV=='t'){      
 1A40 FFC0              xjmp L311
 1A42           L310:
 1A42                   .dbline 800
 1A42 8A2D              mov R24,R10
 1A44 8437              cpi R24,116
 1A46 09F0              breq X208
 1A48 98C0              xjmp L316
 1A4A           X208:
 1A4A           X182:
 1A4A                   .dbline 800
 1A4A                   .dbline 801
 1A4A           ;            if(cur==132){
 1A4A 4438              cpi R20,132
 1A4C E0E0              ldi R30,0
 1A4E 5E07              cpc R21,R30
 1A50 09F0              breq X209
 1A52 3EC0              xjmp L318
 1A54           X209:
 1A54           X183:
 1A54                   .dbline 801
 1A54                   .dbline 802
 1A54           ;                  Set_White_off(1,1,2);
 1A54 82E0              ldi R24,2
 1A56 8883              std y+0,R24
 1A58 21E0              ldi R18,1
 1A5A 01E0              ldi R16,1
 1A5C 0E940000          xcall _Set_White_off
 1A60                   .dbline 803
 1A60           ;                       Set_White_off(1,2,2);
 1A60 82E0              ldi R24,2
 1A62 8883              std y+0,R24
 1A64 22E0              ldi R18,2
 1A66 01E0              ldi R16,1
 1A68 0E940000          xcall _Set_White_off
 1A6C                   .dbline 804
 1A6C           ;                       Set_White_off(1,3,2);
 1A6C 82E0              ldi R24,2
 1A6E 8883              std y+0,R24
 1A70 23E0              ldi R18,3
 1A72 01E0              ldi R16,1
 1A74 0E940000          xcall _Set_White_off
 1A78                   .dbline 805
 1A78           ;                  cur_set(0);
 1A78 0027              clr R16
 1A7A 1127              clr R17
 1A7C 0E940000          xcall _cur_set
 1A80                   .dbline 806
 1A80           ;                       cur_set(4);
 1A80 04E0              ldi R16,4
 1A82 10E0              ldi R17,0
 1A84 0E940000          xcall _cur_set
 1A88                   .dbline 807
 1A88           ;                       lcd_clear();
 1A88 0E940000          xcall _lcd_clear
 1A8C                   .dbline 808
 1A8C           ;                       lcd_write_str(5,2,"保存中. . .");
 1A8C 80E0              ldi R24,<L320
 1A8E 90E0              ldi R25,>L320
 1A90 9983              std y+1,R25
 1A92 8883              std y+0,R24
 1A94 22E0              ldi R18,2
 1A96 05E0              ldi R16,5
 1A98 0E940000          xcall _lcd_write_str
 1A9C                   .dbline 809
 1A9C           ;                   pageParam[1]=1;//表示是温度数据的，这里处理保存的方法，因为数据在这里。只是跳转过去，参数如果是1表示成功。2表示失败
 1A9C 81E0              ldi R24,1
 1A9E 90E0              ldi R25,0
 1AA0 90930300          sts _pageParam+2+1,R25
 1AA4 80930200          sts _pageParam+2,R24
 1AA8                   .dbline 810
 1AA8           ;                   prePageNum=4;
 1AA8 84E0              ldi R24,4
 1AAA 90930100          sts _prePageNum+1,R25
 1AAE 80930000          sts _prePageNum,R24
 1AB2                   .dbline 811
 1AB2           ;                   pageNum=6;
 1AB2 86E0              ldi R24,6
 1AB4 90930100          sts _pageNum+1,R25
 1AB8 80930000          sts _pageNum,R24
 1ABC                   .dbline 812
 1ABC           ;                       set_temp_data(pageParam[0],dataCach);//保存数据
 1ABC 9E01              movw R18,R28
 1ABE 2E5F              subi R18,254  ; offset = 2
 1AC0 3F4F              sbci R19,255
 1AC2 00910000          lds R16,_pageParam
 1AC6 10910100          lds R17,_pageParam+1
 1ACA 0E940000          xcall _set_temp_data
 1ACE                   .dbline 813
 1ACE           ;                   return;
 1ACE B9C0              xjmp L269
 1AD0           L318:
 1AD0                   .dbline 814
 1AD0           ;                }else if(cur==133){
 1AD0 4538              cpi R20,133
 1AD2 E0E0              ldi R30,0
 1AD4 5E07              cpc R21,R30
 1AD6 09F5              brne L322
 1AD8           X184:
 1AD8                   .dbline 814
 1AD8                   .dbline 815
 1AD8           ;                   Set_White_off(1,1,2);
 1AD8 82E0              ldi R24,2
 1ADA 8883              std y+0,R24
 1ADC 21E0              ldi R18,1
 1ADE 01E0              ldi R16,1
 1AE0 0E940000          xcall _Set_White_off
 1AE4                   .dbline 816
 1AE4           ;                       Set_White_off(1,2,2);
 1AE4 82E0              ldi R24,2
 1AE6 8883              std y+0,R24
 1AE8 22E0              ldi R18,2
 1AEA 01E0              ldi R16,1
 1AEC 0E940000          xcall _Set_White_off
 1AF0                   .dbline 817
 1AF0           ;                       Set_White_off(1,3,2);
 1AF0 82E0              ldi R24,2
 1AF2 8883              std y+0,R24
 1AF4 23E0              ldi R18,3
 1AF6 01E0              ldi R16,1
 1AF8 0E940000          xcall _Set_White_off
 1AFC                   .dbline 818
 1AFC           ;                   cur_set(0);
 1AFC 0027              clr R16
 1AFE 1127              clr R17
 1B00 0E940000          xcall _cur_set
 1B04                   .dbline 819
 1B04           ;                       cur_set(4);
 1B04 04E0              ldi R16,4
 1B06 10E0              ldi R17,0
 1B08 0E940000          xcall _cur_set
 1B0C                   .dbline 820
 1B0C           ;                   pageNum=3;
 1B0C 83E0              ldi R24,3
 1B0E 90E0              ldi R25,0
 1B10 90930100          sts _pageNum+1,R25
 1B14 80930000          sts _pageNum,R24
 1B18                   .dbline 821
 1B18           ;                   return;
 1B18 94C0              xjmp L269
 1B1A           L322:
 1B1A                   .dbline 822
 1B1A           ;                }else if(cur==134){
 1B1A 4638              cpi R20,134
 1B1C E0E0              ldi R30,0
 1B1E 5E07              cpc R21,R30
 1B20 09F0              breq X210
 1B22 8EC0              xjmp L317
 1B24           X210:
 1B24           X185:
 1B24                   .dbline 822
 1B24                   .dbline 823
 1B24           ;                   Set_White_off(1,1,2);
 1B24 82E0              ldi R24,2
 1B26 8883              std y+0,R24
 1B28 21E0              ldi R18,1
 1B2A 01E0              ldi R16,1
 1B2C 0E940000          xcall _Set_White_off
 1B30                   .dbline 824
 1B30           ;                       Set_White_off(1,2,2);
 1B30 82E0              ldi R24,2
 1B32 8883              std y+0,R24
 1B34 22E0              ldi R18,2
 1B36 01E0              ldi R16,1
 1B38 0E940000          xcall _Set_White_off
 1B3C                   .dbline 825
 1B3C           ;                       Set_White_off(1,3,2);
 1B3C 82E0              ldi R24,2
 1B3E 8883              std y+0,R24
 1B40 23E0              ldi R18,3
 1B42 01E0              ldi R16,1
 1B44 0E940000          xcall _Set_White_off
 1B48                   .dbline 826
 1B48           ;                  cur_set(0);
 1B48 0027              clr R16
 1B4A 1127              clr R17
 1B4C 0E940000          xcall _cur_set
 1B50                   .dbline 827
 1B50           ;                       cur_set(4);
 1B50 04E0              ldi R16,4
 1B52 10E0              ldi R17,0
 1B54 0E940000          xcall _cur_set
 1B58                   .dbline 829
 1B58           ;                  //重置。有提示
 1B58           ;                       pageParam[2]=1;//表示重置是温度数据的
 1B58 81E0              ldi R24,1
 1B5A 90E0              ldi R25,0
 1B5C 90930500          sts _pageParam+4+1,R25
 1B60 80930400          sts _pageParam+4,R24
 1B64                   .dbline 830
 1B64           ;                       prePageNum=4;
 1B64 84E0              ldi R24,4
 1B66 90930100          sts _prePageNum+1,R25
 1B6A 80930000          sts _prePageNum,R24
 1B6E                   .dbline 831
 1B6E           ;                   pageNum=7;
 1B6E 87E0              ldi R24,7
 1B70 90930100          sts _pageNum+1,R25
 1B74 80930000          sts _pageNum,R24
 1B78                   .dbline 832
 1B78           ;                   return;
 1B78 64C0              xjmp L269
 1B7A           L316:
 1B7A                   .dbline 835
 1B7A           ;                }
 1B7A           ;            
 1B7A           ;         }else if(keyV=='0' || keyV=='1' || keyV=='2' || keyV=='3' || keyV=='4' || keyV=='5' 
 1B7A 8A2D              mov R24,R10
 1B7C 8033              cpi R24,48
 1B7E 99F0              breq L337
 1B80           X186:
 1B80 8133              cpi R24,49
 1B82 89F0              breq L337
 1B84           X187:
 1B84 8233              cpi R24,50
 1B86 79F0              breq L337
 1B88           X188:
 1B88 8333              cpi R24,51
 1B8A 69F0              breq L337
 1B8C           X189:
 1B8C 8433              cpi R24,52
 1B8E 59F0              breq L337
 1B90           X190:
 1B90 8533              cpi R24,53
 1B92 49F0              breq L337
 1B94           X191:
 1B94 8633              cpi R24,54
 1B96 39F0              breq L337
 1B98           X192:
 1B98 8733              cpi R24,55
 1B9A 29F0              breq L337
 1B9C           X193:
 1B9C 8833              cpi R24,56
 1B9E 19F0              breq L337
 1BA0           X194:
 1BA0 8933              cpi R24,57
 1BA2 09F0              breq X211
 1BA4 4DC0              xjmp L327
 1BA6           X211:
 1BA6           X195:
 1BA6           L337:
 1BA6                   .dbline 836
 1BA6           ;                  || keyV=='6'  || keyV=='7' || keyV=='8' || keyV=='9'){
 1BA6                   .dbline 837
 1BA6           ;                         if(cur <132){//判断还在输入域
 1BA6 4438              cpi R20,132
 1BA8 E0E0              ldi R30,0
 1BAA 5E07              cpc R21,R30
 1BAC 08F0              brlo X212
 1BAE 48C0              xjmp L338
 1BB0           X212:
 1BB0           X196:
 1BB0                   .dbline 837
 1BB0                   .dbline 838
 1BB0           ;                          if((cur/11)%3==0){
 1BB0 2BE0              ldi R18,11
 1BB2 30E0              ldi R19,0
 1BB4 8A01              movw R16,R20
 1BB6 0E940000          xcall div16u
 1BBA 23E0              ldi R18,3
 1BBC 30E0              ldi R19,0
 1BBE 0E940000          xcall mod16u
 1BC2 0030              cpi R16,0
 1BC4 0107              cpc R16,R17
 1BC6 31F4              brne L340
 1BC8           X197:
 1BC8                   .dbline 838
 1BC8                   .dbline 839
 1BC8           ;                             lcd_write_char_con(1,0x30 | keyV);
 1BC8 2A2D              mov R18,R10
 1BCA 2063              ori R18,48
 1BCC 01E0              ldi R16,1
 1BCE 0E940000          xcall _lcd_write_char_con
 1BD2                   .dbline 840
 1BD2           ;                               }else{
 1BD2 05C0              xjmp L341
 1BD4           L340:
 1BD4                   .dbline 840
 1BD4                   .dbline 841
 1BD4           ;                                 lcd_write_char_con(2,0x30 | keyV);
 1BD4 2A2D              mov R18,R10
 1BD6 2063              ori R18,48
 1BD8 02E0              ldi R16,2
 1BDA 0E940000          xcall _lcd_write_char_con
 1BDE                   .dbline 842
 1BDE           ;                               }
 1BDE           L341:
 1BDE                   .dbline 843
 1BDE           ;                               dataCach[cur]=keyV-48;
 1BDE CE01              movw R24,R28
 1BE0 0296              adiw R24,2
 1BE2 FA01              movw R30,R20
 1BE4 EE0F              lsl R30
 1BE6 FF1F              rol R31
 1BE8 E80F              add R30,R24
 1BEA F91F              adc R31,R25
 1BEC 8A2D              mov R24,R10
 1BEE 9927              clr R25
 1BF0 C097              sbiw R24,48
 1BF2 9183              std z+1,R25
 1BF4 8083              std z+0,R24
 1BF6                   .dbline 844
 1BF6           ;                               oldcur=cur;
 1BF6 BA01              movw R22,R20
 1BF8                   .dbline 845
 1BF8           ;                               if(cur<131)
 1BF8 6338              cpi R22,131
 1BFA E0E0              ldi R30,0
 1BFC 7E07              cpc R23,R30
 1BFE 50F4              brsh L342
 1C00           X198:
 1C00                   .dbline 846
 1C00           ;                               {
 1C00                   .dbline 847
 1C00           ;                                 cur++;
 1C00 4F5F              subi R20,255  ; offset = 1
 1C02 5F4F              sbci R21,255
 1C04                   .dbline 848
 1C04           ;                                 page4_ac(cur,oldcur,dataCach);
 1C04 CE01              movw R24,R28
 1C06 0296              adiw R24,2
 1C08 9983              std y+1,R25
 1C0A 8883              std y+0,R24
 1C0C 9B01              movw R18,R22
 1C0E 8A01              movw R16,R20
 1C10 7CDC              xcall _page4_ac
 1C12                   .dbline 849
 1C12           ;                               }else if(cur==131){//最后一个131会在上面处理，最后一次进入这里。跳到保存
 1C12 16C0              xjmp L343
 1C14           L342:
 1C14                   .dbline 849
 1C14 4338              cpi R20,131
 1C16 E0E0              ldi R30,0
 1C18 5E07              cpc R21,R30
 1C1A 91F4              brne L344
 1C1C           X199:
 1C1C                   .dbline 849
 1C1C                   .dbline 850
 1C1C           ;                                 Set_White(1,1,2);
 1C1C 82E0              ldi R24,2
 1C1E 8883              std y+0,R24
 1C20 21E0              ldi R18,1
 1C22 01E0              ldi R16,1
 1C24 0E940000          xcall _Set_White
 1C28                   .dbline 851
 1C28           ;                              cur_set(0);
 1C28 0027              clr R16
 1C2A 1127              clr R17
 1C2C 0E940000          xcall _cur_set
 1C30                   .dbline 852
 1C30           ;                              cur_set(4);
 1C30 04E0              ldi R16,4
 1C32 10E0              ldi R17,0
 1C34 0E940000          xcall _cur_set
 1C38                   .dbline 853
 1C38           ;                              cur=132;
 1C38 44E8              ldi R20,132
 1C3A 50E0              ldi R21,0
 1C3C                   .dbline 854
 1C3C           ;                                  oldcur=99;
 1C3C 63E6              ldi R22,99
 1C3E 70E0              ldi R23,0
 1C40                   .dbline 855
 1C40           ;                               }
 1C40           L344:
 1C40           L343:
 1C40                   .dbline 857
 1C40           ;                               
 1C40           ;                         }
 1C40           L338:
 1C40                   .dbline 858
 1C40           ;               }
 1C40           L327:
 1C40           L317:
 1C40           L311:
 1C40           L300:
 1C40           L292:
 1C40           L284:
 1C40                   .dbline 859
 1C40           ;       }
 1C40           L279:
 1C40                   .dbline 735
 1C40 D4CD              xjmp L278
 1C42           X200:
 1C42                   .dbline -2
 1C42           L269:
 1C42                   .dbline 0 ; func end
 1C42 EF96              adiw R28,63
 1C44 EF96              adiw R28,63
 1C46 EF96              adiw R28,63
 1C48 EF96              adiw R28,63
 1C4A 2C96              adiw R28,12  ; offset = 264
 1C4C 0C940000          xjmp pop_xgsetF03C
 1C50                   .dbsym r numL 20 i
 1C50                   .dbsym r numH 20 i
 1C50                   .dbsym r oldcur 22 i
 1C50                   .dbsym l dataCach 2 A[262:131]i
 1C50                   .dbsym r cur 20 i
 1C50                   .dbsym r keyV 10 c
 1C50                   .dbsym r i 10 i
 1C50                   .dbend
 1C50                   .dbfunc e page5 _page5 fV
 1C50           ;         ddflag -> R22,R23
 1C50           ;            cur -> R20,R21
 1C50           ;           keyV -> R10
                        .even
 1C50           _page5::
 1C50 0E940000          xcall push_xgsetF00C
 1C54 2297              sbiw R28,2
 1C56                   .dbline -1
 1C56                   .dbline 862
 1C56           ;  }
 1C56           ;  
 1C56           ;  void page5(void){
 1C56                   .dbline 863
 1C56           ;   uint cur=0;
 1C56 4427              clr R20
 1C58 5527              clr R21
 1C5A                   .dbline 866
 1C5A           ;    uchar keyV;
 1C5A           ;    uint ddflag;
 1C5A           ;    lcd_write_str(4,0,"断电自动恢复");
 1C5A 80E0              ldi R24,<L347
 1C5C 90E0              ldi R25,>L347
 1C5E 9983              std y+1,R25
 1C60 8883              std y+0,R24
 1C62 2227              clr R18
 1C64 04E0              ldi R16,4
 1C66 0E940000          xcall _lcd_write_str
 1C6A                   .dbline 867
 1C6A           ;    lcd_write_str(4,1,"设置时间");
 1C6A 80E0              ldi R24,<L348
 1C6C 90E0              ldi R25,>L348
 1C6E 9983              std y+1,R25
 1C70 8883              std y+0,R24
 1C72 21E0              ldi R18,1
 1C74 04E0              ldi R16,4
 1C76 0E940000          xcall _lcd_write_str
 1C7A                   .dbline 868
 1C7A           ;    lcd_write_str(4,2,"重置系统");
 1C7A 80E0              ldi R24,<L349
 1C7C 90E0              ldi R25,>L349
 1C7E 9983              std y+1,R25
 1C80 8883              std y+0,R24
 1C82 22E0              ldi R18,2
 1C84 04E0              ldi R16,4
 1C86 0E940000          xcall _lcd_write_str
 1C8A                   .dbline 869
 1C8A           ;     ddflag=EEPROM_read(0,0);
 1C8A 2227              clr R18
 1C8C 3327              clr R19
 1C8E 0027              clr R16
 1C90 1127              clr R17
 1C92 0E940000          xcall _EEPROM_read
 1C96 B801              movw R22,R16
 1C98                   .dbline 870
 1C98           ;       if(ddflag==0){
 1C98 0030              cpi R16,0
 1C9A 0107              cpc R16,R17
 1C9C 59F4              brne L350
 1C9E           X213:
 1C9E                   .dbline 870
 1C9E                   .dbline 871
 1C9E           ;       lcd_write_char(3,0,0xA1);
 1C9E 81EA              ldi R24,161
 1CA0 8883              std y+0,R24
 1CA2 2227              clr R18
 1CA4 03E0              ldi R16,3
 1CA6 0E940000          xcall _lcd_write_char
 1CAA                   .dbline 872
 1CAA           ;       lcd_write_char_con(0,0xC1);
 1CAA 21EC              ldi R18,193
 1CAC 0027              clr R16
 1CAE 0E940000          xcall _lcd_write_char_con
 1CB2                   .dbline 873
 1CB2           ;    }else {
 1CB2 0AC0              xjmp L351
 1CB4           L350:
 1CB4                   .dbline 873
 1CB4                   .dbline 874
 1CB4           ;       lcd_write_char(3,0,0xA1);
 1CB4 81EA              ldi R24,161
 1CB6 8883              std y+0,R24
 1CB8 2227              clr R18
 1CBA 03E0              ldi R16,3
 1CBC 0E940000          xcall _lcd_write_char
 1CC0                   .dbline 875
 1CC0           ;       lcd_write_char_con(0,0xCC);
 1CC0 2CEC              ldi R18,204
 1CC2 0027              clr R16
 1CC4 0E940000          xcall _lcd_write_char_con
 1CC8                   .dbline 876
 1CC8           ;    }
 1CC8           L351:
 1CC8                   .dbline 877
 1CC8           ;    cur=0;
 1CC8 4427              clr R20
 1CCA 5527              clr R21
 1CCC                   .dbline 878
 1CCC           ;    Set_White(5,0,10);
 1CCC 8AE0              ldi R24,10
 1CCE 8883              std y+0,R24
 1CD0 2227              clr R18
 1CD2 05E0              ldi R16,5
 1CD4 0E940000          xcall _Set_White
 1CD8 DCC0              xjmp L353
 1CDA           L352:
 1CDA                   .dbline 879
 1CDA           ;    while(1){
 1CDA                   .dbline 880
 1CDA           ;       keyV=KeyScan_once();
 1CDA 0E940000          xcall _KeyScan_once
 1CDE A02E              mov R10,R16
 1CE0                   .dbline 881
 1CE0           ;         if(keyV=='u'){
 1CE0 0537              cpi R16,117
 1CE2 39F5              brne L355
 1CE4           X214:
 1CE4                   .dbline 881
 1CE4                   .dbline 882
 1CE4           ;           switch(cur){
 1CE4 4130              cpi R20,1
 1CE6 E0E0              ldi R30,0
 1CE8 5E07              cpc R21,R30
 1CEA 29F0              breq L359
 1CEC           X215:
 1CEC 4230              cpi R20,2
 1CEE E0E0              ldi R30,0
 1CF0 5E07              cpc R21,R30
 1CF2 81F0              breq L360
 1CF4           X216:
 1CF4 CEC0              xjmp L356
 1CF6           L359:
 1CF6                   .dbline 884
 1CF6           ;                 case 1:
 1CF6           ;                  Set_White_off(5,1,8);
 1CF6 88E0              ldi R24,8
 1CF8 8883              std y+0,R24
 1CFA 21E0              ldi R18,1
 1CFC 05E0              ldi R16,5
 1CFE 0E940000          xcall _Set_White_off
 1D02                   .dbline 885
 1D02           ;                  Set_White(5,0,10);
 1D02 8AE0              ldi R24,10
 1D04 8883              std y+0,R24
 1D06 2227              clr R18
 1D08 05E0              ldi R16,5
 1D0A 0E940000          xcall _Set_White
 1D0E                   .dbline 886
 1D0E           ;                  cur=0;
 1D0E 4427              clr R20
 1D10 5527              clr R21
 1D12                   .dbline 887
 1D12           ;                  break;
 1D12 BFC0              xjmp L356
 1D14           L360:
 1D14                   .dbline 889
 1D14           ;                 case 2: 
 1D14           ;                  Set_White_off(5,2,8);
 1D14 88E0              ldi R24,8
 1D16 8883              std y+0,R24
 1D18 22E0              ldi R18,2
 1D1A 05E0              ldi R16,5
 1D1C 0E940000          xcall _Set_White_off
 1D20                   .dbline 890
 1D20           ;                  Set_White(5,1,8);
 1D20 88E0              ldi R24,8
 1D22 8883              std y+0,R24
 1D24 21E0              ldi R18,1
 1D26 05E0              ldi R16,5
 1D28 0E940000          xcall _Set_White
 1D2C                   .dbline 891
 1D2C           ;                  cur=1;
 1D2C 41E0              ldi R20,1
 1D2E 50E0              ldi R21,0
 1D30                   .dbline 892
 1D30           ;                  break;
 1D30                   .dbline 894
 1D30           ;               }
 1D30           ;         }else if(keyV=='d'){
 1D30 B0C0              xjmp L356
 1D32           L355:
 1D32                   .dbline 894
 1D32 8A2D              mov R24,R10
 1D34 8436              cpi R24,100
 1D36 31F5              brne L361
 1D38           X217:
 1D38                   .dbline 894
 1D38                   .dbline 895
 1D38           ;             switch(cur){
 1D38 4030              cpi R20,0
 1D3A 4507              cpc R20,R21
 1D3C 29F0              breq L365
 1D3E           X218:
 1D3E 4130              cpi R20,1
 1D40 E0E0              ldi R30,0
 1D42 5E07              cpc R21,R30
 1D44 81F0              breq L366
 1D46           X219:
 1D46 A5C0              xjmp L362
 1D48           L365:
 1D48                   .dbline 897
 1D48           ;                 case 0:
 1D48           ;                  Set_White_off(5,0,10);
 1D48 8AE0              ldi R24,10
 1D4A 8883              std y+0,R24
 1D4C 2227              clr R18
 1D4E 05E0              ldi R16,5
 1D50 0E940000          xcall _Set_White_off
 1D54                   .dbline 898
 1D54           ;                  Set_White(5,1,8);
 1D54 88E0              ldi R24,8
 1D56 8883              std y+0,R24
 1D58 21E0              ldi R18,1
 1D5A 05E0              ldi R16,5
 1D5C 0E940000          xcall _Set_White
 1D60                   .dbline 899
 1D60           ;                  cur=1;
 1D60 41E0              ldi R20,1
 1D62 50E0              ldi R21,0
 1D64                   .dbline 900
 1D64           ;                  break;
 1D64 96C0              xjmp L362
 1D66           L366:
 1D66                   .dbline 902
 1D66           ;                 case 1: 
 1D66           ;                  Set_White_off(5,1,8);
 1D66 88E0              ldi R24,8
 1D68 8883              std y+0,R24
 1D6A 21E0              ldi R18,1
 1D6C 05E0              ldi R16,5
 1D6E 0E940000          xcall _Set_White_off
 1D72                   .dbline 903
 1D72           ;                  Set_White(5,2,8);
 1D72 88E0              ldi R24,8
 1D74 8883              std y+0,R24
 1D76 22E0              ldi R18,2
 1D78 05E0              ldi R16,5
 1D7A 0E940000          xcall _Set_White
 1D7E                   .dbline 904
 1D7E           ;                  cur=2;
 1D7E 42E0              ldi R20,2
 1D80 50E0              ldi R21,0
 1D82                   .dbline 905
 1D82           ;                  break;
 1D82                   .dbline 907
 1D82           ;               }
 1D82           ;         }else if(keyV=='e'){
 1D82 87C0              xjmp L362
 1D84           L361:
 1D84                   .dbline 907
 1D84 8A2D              mov R24,R10
 1D86 8536              cpi R24,101
 1D88 39F5              brne L367
 1D8A           X220:
 1D8A                   .dbline 907
 1D8A                   .dbline 908
 1D8A           ;            switch(cur){
 1D8A 4030              cpi R20,0
 1D8C 4507              cpc R20,R21
 1D8E 49F0              breq L371
 1D90           X221:
 1D90 4130              cpi R20,1
 1D92 E0E0              ldi R30,0
 1D94 5E07              cpc R21,R30
 1D96 61F0              breq L372
 1D98           X222:
 1D98 4230              cpi R20,2
 1D9A E0E0              ldi R30,0
 1D9C 5E07              cpc R21,R30
 1D9E 79F0              breq L373
 1DA0           X223:
 1DA0 14C0              xjmp L370
 1DA2           L371:
 1DA2                   .dbline 910
 1DA2           ;                case 0: 
 1DA2           ;                  Set_White_off(5,0,10);
 1DA2 8AE0              ldi R24,10
 1DA4 8883              std y+0,R24
 1DA6 2227              clr R18
 1DA8 05E0              ldi R16,5
 1DAA 0E940000          xcall _Set_White_off
 1DAE                   .dbline 911
 1DAE           ;                   break;
 1DAE 0DC0              xjmp L370
 1DB0           L372:
 1DB0                   .dbline 913
 1DB0           ;                case 1:
 1DB0           ;                  Set_White_off(5,1,8);
 1DB0 88E0              ldi R24,8
 1DB2 8883              std y+0,R24
 1DB4 21E0              ldi R18,1
 1DB6 05E0              ldi R16,5
 1DB8 0E940000          xcall _Set_White_off
 1DBC                   .dbline 914
 1DBC           ;                  break;
 1DBC 06C0              xjmp L370
 1DBE           L373:
 1DBE                   .dbline 916
 1DBE           ;                case 2:
 1DBE           ;                 Set_White_off(5,2,8);
 1DBE 88E0              ldi R24,8
 1DC0 8883              std y+0,R24
 1DC2 22E0              ldi R18,2
 1DC4 05E0              ldi R16,5
 1DC6 0E940000          xcall _Set_White_off
 1DCA                   .dbline 917
 1DCA           ;                 break;
 1DCA                   .dbline 920
 1DCA           ;       
 1DCA           ;                 default:
 1DCA           ;                  break;
 1DCA           L370:
 1DCA                   .dbline 922
 1DCA           ;                }
 1DCA           ;           pageNum=1;
 1DCA 81E0              ldi R24,1
 1DCC 90E0              ldi R25,0
 1DCE 90930100          sts _pageNum+1,R25
 1DD2 80930000          sts _pageNum,R24
 1DD6                   .dbline 923
 1DD6           ;               return;
 1DD6 5EC0              xjmp L346
 1DD8           L367:
 1DD8                   .dbline 924
 1DD8           ;         }else if(keyV=='t'){
 1DD8 8A2D              mov R24,R10
 1DDA 8437              cpi R24,116
 1DDC 09F0              breq X231
 1DDE 59C0              xjmp L374
 1DE0           X231:
 1DE0           X224:
 1DE0                   .dbline 924
 1DE0                   .dbline 925
 1DE0           ;           switch(cur){
 1DE0 4030              cpi R20,0
 1DE2 4507              cpc R20,R21
 1DE4 49F0              breq L378
 1DE6           X225:
 1DE6 4130              cpi R20,1
 1DE8 E0E0              ldi R30,0
 1DEA 5E07              cpc R21,R30
 1DEC 71F1              breq L383
 1DEE           X226:
 1DEE 4230              cpi R20,2
 1DF0 E0E0              ldi R30,0
 1DF2 5E07              cpc R21,R30
 1DF4 B1F1              breq L384
 1DF6           X227:
 1DF6 4DC0              xjmp L376
 1DF8           L378:
 1DF8                   .dbline 928
 1DF8           ;                 case 0:
 1DF8           ;                    //执行EEPROM操作
 1DF8           ;                        if(ddflag==0){
 1DF8 6030              cpi R22,0
 1DFA 6707              cpc R22,R23
 1DFC 19F4              brne L379
 1DFE           X228:
 1DFE                   .dbline 928
 1DFE                   .dbline 929
 1DFE           ;                          ddflag=1;
 1DFE 61E0              ldi R22,1
 1E00 70E0              ldi R23,0
 1E02                   .dbline 930
 1E02           ;                        }else{
 1E02 02C0              xjmp L380
 1E04           L379:
 1E04                   .dbline 930
 1E04                   .dbline 931
 1E04           ;                          ddflag=0;
 1E04 6627              clr R22
 1E06 7727              clr R23
 1E08                   .dbline 932
 1E08           ;                        }
 1E08           L380:
 1E08                   .dbline 933
 1E08           ;                        EEPROM_write(0,0,ddflag);//写入到EEPROM
 1E08 7983              std y+1,R23
 1E0A 6883              std y+0,R22
 1E0C 2227              clr R18
 1E0E 3327              clr R19
 1E10 0027              clr R16
 1E12 1127              clr R17
 1E14 0E940000          xcall _EEPROM_write
 1E18                   .dbline 934
 1E18           ;                       if(ddflag==0){
 1E18 6030              cpi R22,0
 1E1A 6707              cpc R22,R23
 1E1C 59F4              brne L381
 1E1E           X229:
 1E1E                   .dbline 934
 1E1E                   .dbline 935
 1E1E           ;                lcd_write_char(3,0,0xA1);
 1E1E 81EA              ldi R24,161
 1E20 8883              std y+0,R24
 1E22 2227              clr R18
 1E24 03E0              ldi R16,3
 1E26 0E940000          xcall _lcd_write_char
 1E2A                   .dbline 936
 1E2A           ;                lcd_write_char_con(0,0xC1);
 1E2A 21EC              ldi R18,193
 1E2C 0027              clr R16
 1E2E 0E940000          xcall _lcd_write_char_con
 1E32                   .dbline 937
 1E32           ;             }else{
 1E32 2FC0              xjmp L377
 1E34           L381:
 1E34                   .dbline 937
 1E34                   .dbline 938
 1E34           ;               lcd_write_char(3,0,0xA1);
 1E34 81EA              ldi R24,161
 1E36 8883              std y+0,R24
 1E38 2227              clr R18
 1E3A 03E0              ldi R16,3
 1E3C 0E940000          xcall _lcd_write_char
 1E40                   .dbline 939
 1E40           ;               lcd_write_char_con(0,0xCC);
 1E40 2CEC              ldi R18,204
 1E42 0027              clr R16
 1E44 0E940000          xcall _lcd_write_char_con
 1E48                   .dbline 940
 1E48           ;             }
 1E48                   .dbline 941
 1E48           ;                   break;
 1E48 24C0              xjmp L377
 1E4A           L383:
 1E4A                   .dbline 943
 1E4A           ;                 case 1:
 1E4A           ;                  pageNum=8;
 1E4A 88E0              ldi R24,8
 1E4C 90E0              ldi R25,0
 1E4E 90930100          sts _pageNum+1,R25
 1E52 80930000          sts _pageNum,R24
 1E56                   .dbline 944
 1E56           ;                  Set_White_off(5,1,8);
 1E56 8883              std y+0,R24
 1E58 21E0              ldi R18,1
 1E5A 05E0              ldi R16,5
 1E5C 0E940000          xcall _Set_White_off
 1E60                   .dbline 945
 1E60           ;                  return;
 1E60 19C0              xjmp L346
 1E62           L384:
 1E62                   .dbline 948
 1E62           ;                 
 1E62           ;                 case 2://重置系统
 1E62           ;                   prePageNum=5;
 1E62 85E0              ldi R24,5
 1E64 90E0              ldi R25,0
 1E66 90930100          sts _prePageNum+1,R25
 1E6A 80930000          sts _prePageNum,R24
 1E6E                   .dbline 949
 1E6E           ;                   pageNum=7;
 1E6E 87E0              ldi R24,7
 1E70 90930100          sts _pageNum+1,R25
 1E74 80930000          sts _pageNum,R24
 1E78                   .dbline 950
 1E78           ;                       pageParam[2]=0;
 1E78 2224              clr R2
 1E7A 3324              clr R3
 1E7C 30920500          sts _pageParam+4+1,R3
 1E80 20920400          sts _pageParam+4,R2
 1E84                   .dbline 951
 1E84           ;                   Set_White_off(5,2,8);
 1E84 88E0              ldi R24,8
 1E86 8883              std y+0,R24
 1E88 22E0              ldi R18,2
 1E8A 05E0              ldi R16,5
 1E8C 0E940000          xcall _Set_White_off
 1E90                   .dbline 952
 1E90           ;                  return;
 1E90 01C0              xjmp L346
 1E92           L376:
 1E92           L377:
 1E92                   .dbline 955
 1E92           ;               }
 1E92           ;           
 1E92           ;         }
 1E92           L374:
 1E92           L362:
 1E92           L356:
 1E92                   .dbline 956
 1E92           ;    }
 1E92           L353:
 1E92                   .dbline 879
 1E92 23CF              xjmp L352
 1E94           X230:
 1E94                   .dbline -2
 1E94           L346:
 1E94                   .dbline 0 ; func end
 1E94 2296              adiw R28,2
 1E96 0C940000          xjmp pop_xgsetF00C
 1E9A                   .dbsym r ddflag 22 i
 1E9A                   .dbsym r cur 20 i
 1E9A                   .dbsym r keyV 10 c
 1E9A                   .dbend
 1E9A                   .dbfunc e page6 _page6 fV
                        .even
 1E9A           _page6::
 1E9A 2297              sbiw R28,2
 1E9C                   .dbline -1
 1E9C                   .dbline 959
 1E9C           ;    
 1E9C           ;  }
 1E9C           ;  void page6(void){//复用的方法
 1E9C                   .dbline 960
 1E9C           ;  if(pageParam[1]==0){
 1E9C 20900200          lds R2,_pageParam+2
 1EA0 30900300          lds R3,_pageParam+2+1
 1EA4 2220              tst R2
 1EA6 59F4              brne L387
 1EA8 3320              tst R3
 1EAA 49F4              brne L387
 1EAC           X232:
 1EAC                   .dbline 960
 1EAC                   .dbline 961
 1EAC           ;      lcd_write_str(4,1,"时间保存成功！");
 1EAC 80E0              ldi R24,<L390
 1EAE 90E0              ldi R25,>L390
 1EB0 9983              std y+1,R25
 1EB2 8883              std y+0,R24
 1EB4 21E0              ldi R18,1
 1EB6 04E0              ldi R16,4
 1EB8 0E940000          xcall _lcd_write_str
 1EBC                   .dbline 962
 1EBC           ;    }else if(pageParam[1]==1){
 1EBC 21C0              xjmp L388
 1EBE           L387:
 1EBE                   .dbline 962
 1EBE 80910200          lds R24,_pageParam+2
 1EC2 90910300          lds R25,_pageParam+2+1
 1EC6 8130              cpi R24,1
 1EC8 E0E0              ldi R30,0
 1ECA 9E07              cpc R25,R30
 1ECC 49F4              brne L391
 1ECE           X233:
 1ECE                   .dbline 962
 1ECE                   .dbline 963
 1ECE           ;      lcd_write_str(4,1,"温度保存成功！");
 1ECE 80E0              ldi R24,<L394
 1ED0 90E0              ldi R25,>L394
 1ED2 9983              std y+1,R25
 1ED4 8883              std y+0,R24
 1ED6 21E0              ldi R18,1
 1ED8 04E0              ldi R16,4
 1EDA 0E940000          xcall _lcd_write_str
 1EDE                   .dbline 964
 1EDE           ;    }else if(pageParam[1]==2){
 1EDE 10C0              xjmp L392
 1EE0           L391:
 1EE0                   .dbline 964
 1EE0 80910200          lds R24,_pageParam+2
 1EE4 90910300          lds R25,_pageParam+2+1
 1EE8 8230              cpi R24,2
 1EEA E0E0              ldi R30,0
 1EEC 9E07              cpc R25,R30
 1EEE 41F4              brne L395
 1EF0           X234:
 1EF0                   .dbline 964
 1EF0                   .dbline 965
 1EF0           ;      lcd_write_str(4,1,"温度保存失败！");
 1EF0 80E0              ldi R24,<L398
 1EF2 90E0              ldi R25,>L398
 1EF4 9983              std y+1,R25
 1EF6 8883              std y+0,R24
 1EF8 21E0              ldi R18,1
 1EFA 04E0              ldi R16,4
 1EFC 0E940000          xcall _lcd_write_str
 1F00                   .dbline 966
 1F00           ;    }
 1F00           L395:
 1F00           L392:
 1F00           L388:
 1F00                   .dbline 967
 1F00           ;    delay_ms(100);
 1F00 04E6              ldi R16,100
 1F02 10E0              ldi R17,0
 1F04 0E940000          xcall _delay_ms
 1F08                   .dbline 968
 1F08           ;    pageNum=prePageNum;
 1F08 20900000          lds R2,_prePageNum
 1F0C 30900100          lds R3,_prePageNum+1
 1F10 30920100          sts _pageNum+1,R3
 1F14 20920000          sts _pageNum,R2
 1F18                   .dbline -2
 1F18           L386:
 1F18                   .dbline 0 ; func end
 1F18 2296              adiw R28,2
 1F1A 0895              ret
 1F1C                   .dbend
 1F1C                   .dbfunc e page7 _page7 fV
 1F1C           ;            cur -> R20,R21
 1F1C           ;           keyV -> R10
                        .even
 1F1C           _page7::
 1F1C 0E940000          xcall push_xgsetF00C
 1F20 2297              sbiw R28,2
 1F22                   .dbline -1
 1F22                   .dbline 970
 1F22           ;  }
 1F22           ;  void page7(void){
 1F22                   .dbline 971
 1F22           ;    uint cur=1;
 1F22 41E0              ldi R20,1
 1F24 50E0              ldi R21,0
 1F26                   .dbline 973
 1F26           ;    uchar keyV;
 1F26           ;    lcd_write_str(2,0,"是否重置");
 1F26 80E0              ldi R24,<L400
 1F28 90E0              ldi R25,>L400
 1F2A 9983              std y+1,R25
 1F2C 8883              std y+0,R24
 1F2E 2227              clr R18
 1F30 02E0              ldi R16,2
 1F32 0E940000          xcall _lcd_write_str
 1F36                   .dbline 974
 1F36           ;    lcd_write_str(2,2,"确认");
 1F36 80E0              ldi R24,<L401
 1F38 90E0              ldi R25,>L401
 1F3A 9983              std y+1,R25
 1F3C 8883              std y+0,R24
 1F3E 22E0              ldi R18,2
 1F40 02E0              ldi R16,2
 1F42 0E940000          xcall _lcd_write_str
 1F46                   .dbline 975
 1F46           ;    lcd_write_str(8,2,"取消");
 1F46 80E0              ldi R24,<L119
 1F48 90E0              ldi R25,>L119
 1F4A 9983              std y+1,R25
 1F4C 8883              std y+0,R24
 1F4E 22E0              ldi R18,2
 1F50 08E0              ldi R16,8
 1F52 0E940000          xcall _lcd_write_str
 1F56                   .dbline 976
 1F56           ;    Set_White(9,2,10);
 1F56 8AE0              ldi R24,10
 1F58 8883              std y+0,R24
 1F5A 22E0              ldi R18,2
 1F5C 09E0              ldi R16,9
 1F5E 0E940000          xcall _Set_White
 1F62 78C0              xjmp L403
 1F64           L402:
 1F64                   .dbline 977
 1F64           ;     while(1){
 1F64                   .dbline 978
 1F64           ;       keyV=KeyScan_once();
 1F64 0E940000          xcall _KeyScan_once
 1F68 A02E              mov R10,R16
 1F6A                   .dbline 979
 1F6A           ;         switch(keyV){
 1F6A 6A2D              mov R22,R10
 1F6C 7727              clr R23
 1F6E 6C36              cpi R22,108
 1F70 E0E0              ldi R30,0
 1F72 7E07              cpc R23,R30
 1F74 A1F0              breq L408
 1F76           X235:
 1F76 8CE6              ldi R24,108
 1F78 90E0              ldi R25,0
 1F7A 8617              cp R24,R22
 1F7C 9707              cpc R25,R23
 1F7E 34F0              brlt L419
 1F80           X236:
 1F80           L418:
 1F80 6536              cpi R22,101
 1F82 E0E0              ldi R30,0
 1F84 7E07              cpc R23,R30
 1F86 09F4              brne X244
 1F88 50C0              xjmp L417
 1F8A           X244:
 1F8A           X237:
 1F8A 64C0              xjmp L405
 1F8C           L419:
 1F8C 6237              cpi R22,114
 1F8E E0E0              ldi R30,0
 1F90 7E07              cpc R23,R30
 1F92 C9F0              breq L411
 1F94           X238:
 1F94 6437              cpi R22,116
 1F96 E0E0              ldi R30,0
 1F98 7E07              cpc R23,R30
 1F9A 41F1              breq L414
 1F9C           X239:
 1F9C 5BC0              xjmp L405
 1F9E           L408:
 1F9E                   .dbline 981
 1F9E           ;           case 'l':
 1F9E           ;                  if(cur==1){
 1F9E 4130              cpi R20,1
 1FA0 E0E0              ldi R30,0
 1FA2 5E07              cpc R21,R30
 1FA4 09F0              breq X245
 1FA6 56C0              xjmp L406
 1FA8           X245:
 1FA8           X240:
 1FA8                   .dbline 981
 1FA8                   .dbline 982
 1FA8           ;                     Set_White_off(9,2,10);
 1FA8 8AE0              ldi R24,10
 1FAA 8883              std y+0,R24
 1FAC 22E0              ldi R18,2
 1FAE 09E0              ldi R16,9
 1FB0 0E940000          xcall _Set_White_off
 1FB4                   .dbline 983
 1FB4           ;                     Set_White(3,2,4);
 1FB4 84E0              ldi R24,4
 1FB6 8883              std y+0,R24
 1FB8 22E0              ldi R18,2
 1FBA 03E0              ldi R16,3
 1FBC 0E940000          xcall _Set_White
 1FC0                   .dbline 984
 1FC0           ;                         cur=0;
 1FC0 4427              clr R20
 1FC2 5527              clr R21
 1FC4                   .dbline 985
 1FC4           ;                  }
 1FC4                   .dbline 986
 1FC4           ;                  break;
 1FC4 47C0              xjmp L406
 1FC6           L411:
 1FC6                   .dbline 988
 1FC6           ;               case 'r':
 1FC6           ;                  if(cur==0){
 1FC6 4030              cpi R20,0
 1FC8 4507              cpc R20,R21
 1FCA 09F0              breq X246
 1FCC 43C0              xjmp L406
 1FCE           X246:
 1FCE           X241:
 1FCE                   .dbline 988
 1FCE                   .dbline 989
 1FCE           ;                     Set_White_off(3,2,4);
 1FCE 84E0              ldi R24,4
 1FD0 8883              std y+0,R24
 1FD2 22E0              ldi R18,2
 1FD4 03E0              ldi R16,3
 1FD6 0E940000          xcall _Set_White_off
 1FDA                   .dbline 990
 1FDA           ;                     Set_White(9,2,10);
 1FDA 8AE0              ldi R24,10
 1FDC 8883              std y+0,R24
 1FDE 22E0              ldi R18,2
 1FE0 09E0              ldi R16,9
 1FE2 0E940000          xcall _Set_White
 1FE6                   .dbline 991
 1FE6           ;                         cur=1;
 1FE6 41E0              ldi R20,1
 1FE8 50E0              ldi R21,0
 1FEA                   .dbline 992
 1FEA           ;                  }
 1FEA                   .dbline 993
 1FEA           ;                 break;
 1FEA 34C0              xjmp L406
 1FEC           L414:
 1FEC                   .dbline 996
 1FEC           ;               case 't':
 1FEC           ;                 //执行相关操作          
 1FEC           ;                 if(cur==0){
 1FEC 4030              cpi R20,0
 1FEE 4507              cpc R20,R21
 1FF0 69F4              brne L415
 1FF2           X242:
 1FF2                   .dbline 996
 1FF2                   .dbline 997
 1FF2           ;                    Set_White_off(3,2,4);
 1FF2 84E0              ldi R24,4
 1FF4 8883              std y+0,R24
 1FF6 22E0              ldi R18,2
 1FF8 03E0              ldi R16,3
 1FFA 0E940000          xcall _Set_White_off
 1FFE                   .dbline 999
 1FFE           ;                      //进入重置画面。在Page9启动看门狗重置系统、不喂狗。数据重置对呀操作不同
 1FFE           ;                      pageNum=9;
 1FFE 89E0              ldi R24,9
 2000 90E0              ldi R25,0
 2002 90930100          sts _pageNum+1,R25
 2006 80930000          sts _pageNum,R24
 200A                   .dbline 1000
 200A           ;                 }else {
 200A 25C0              xjmp L399
 200C           L415:
 200C                   .dbline 1000
 200C                   .dbline 1001
 200C           ;                     Set_White_off(9,2,10);
 200C 8AE0              ldi R24,10
 200E 8883              std y+0,R24
 2010 22E0              ldi R18,2
 2012 09E0              ldi R16,9
 2014 0E940000          xcall _Set_White_off
 2018                   .dbline 1002
 2018           ;                      pageNum=prePageNum;
 2018 20900000          lds R2,_prePageNum
 201C 30900100          lds R3,_prePageNum+1
 2020 30920100          sts _pageNum+1,R3
 2024 20920000          sts _pageNum,R2
 2028                   .dbline 1003
 2028           ;                 }
 2028                   .dbline 1004
 2028           ;                 return;
 2028 16C0              xjmp L399
 202A           L417:
 202A                   .dbline 1006
 202A           ;                case 'e':
 202A           ;                   Set_White_off(3,2,4);
 202A 84E0              ldi R24,4
 202C 8883              std y+0,R24
 202E 22E0              ldi R18,2
 2030 03E0              ldi R16,3
 2032 0E940000          xcall _Set_White_off
 2036                   .dbline 1007
 2036           ;                   Set_White_off(9,2,10);
 2036 8AE0              ldi R24,10
 2038 8883              std y+0,R24
 203A 22E0              ldi R18,2
 203C 09E0              ldi R16,9
 203E 0E940000          xcall _Set_White_off
 2042                   .dbline 1008
 2042           ;                   pageNum=prePageNum;
 2042 20900000          lds R2,_prePageNum
 2046 30900100          lds R3,_prePageNum+1
 204A 30920100          sts _pageNum+1,R3
 204E 20920000          sts _pageNum,R2
 2052                   .dbline 1009
 2052           ;                   return;
 2052 01C0              xjmp L399
 2054           L405:
 2054           L406:
 2054                   .dbline 1011
 2054           ;         }
 2054           ;       }
 2054           L403:
 2054                   .dbline 977
 2054 87CF              xjmp L402
 2056           X243:
 2056                   .dbline -2
 2056           L399:
 2056                   .dbline 0 ; func end
 2056 2296              adiw R28,2
 2058 0C940000          xjmp pop_xgsetF00C
 205C                   .dbsym r cur 20 i
 205C                   .dbsym r keyV 10 c
 205C                   .dbend
                        .area data(ram, con, rel)
 0106                   .dbfile E:\ICCDemo\Temp_Control\temp_control\pages.c
 0106           L421:
 0106                   .blkb 2
                        .area idata
 0106 0100              .word 1
                        .area data(ram, con, rel)
 0108                   .dbfile E:\ICCDemo\Temp_Control\temp_control\pages.c
 0108                   .blkb 2
                        .area idata
 0108 0200              .word 2
                        .area data(ram, con, rel)
 010A                   .dbfile E:\ICCDemo\Temp_Control\temp_control\pages.c
 010A                   .blkb 2
                        .area idata
 010A 0300              .word 3
                        .area data(ram, con, rel)
 010C                   .dbfile E:\ICCDemo\Temp_Control\temp_control\pages.c
 010C                   .blkb 2
                        .area idata
 010C 0400              .word 4
                        .area data(ram, con, rel)
 010E                   .dbfile E:\ICCDemo\Temp_Control\temp_control\pages.c
 010E                   .blkb 2
                        .area idata
 010E 0600              .word 6
                        .area data(ram, con, rel)
 0110                   .dbfile E:\ICCDemo\Temp_Control\temp_control\pages.c
 0110                   .blkb 2
                        .area idata
 0110 0700              .word 7
                        .area data(ram, con, rel)
 0112                   .dbfile E:\ICCDemo\Temp_Control\temp_control\pages.c
 0112                   .blkb 2
                        .area idata
 0112 0900              .word 9
                        .area data(ram, con, rel)
 0114                   .dbfile E:\ICCDemo\Temp_Control\temp_control\pages.c
 0114                   .blkb 2
                        .area idata
 0114 0A00              .word 10
                        .area data(ram, con, rel)
 0116                   .dbfile E:\ICCDemo\Temp_Control\temp_control\pages.c
 0116                   .blkb 2
                        .area idata
 0116 0200              .word 2
                        .area data(ram, con, rel)
 0118                   .dbfile E:\ICCDemo\Temp_Control\temp_control\pages.c
 0118                   .blkb 2
                        .area idata
 0118 0300              .word 3
                        .area data(ram, con, rel)
 011A                   .dbfile E:\ICCDemo\Temp_Control\temp_control\pages.c
 011A                   .blkb 2
                        .area idata
 011A 0500              .word 5
                        .area data(ram, con, rel)
 011C                   .dbfile E:\ICCDemo\Temp_Control\temp_control\pages.c
 011C                   .blkb 2
                        .area idata
 011C 0600              .word 6
                        .area data(ram, con, rel)
 011E                   .dbfile E:\ICCDemo\Temp_Control\temp_control\pages.c
 011E                   .blkb 2
                        .area idata
 011E 0800              .word 8
                        .area data(ram, con, rel)
 0120                   .dbfile E:\ICCDemo\Temp_Control\temp_control\pages.c
 0120                   .blkb 2
                        .area idata
 0120 0900              .word 9
                        .area data(ram, con, rel)
 0122                   .dbfile E:\ICCDemo\Temp_Control\temp_control\pages.c
                        .area text(rom, con, rel)
 205C                   .dbfile E:\ICCDemo\Temp_Control\temp_control\pages.c
 205C                   .dbfunc e page8 _page8 fV
 205C           ;         dateAc -> y+38
 205C           ;     time_cacah -> R22,R23
 205C           ;           keyV -> R22
 205C           ;            cur -> R20,R21
 205C           ;           date -> y+8
 205C           ;              i -> R22,R23
                        .even
 205C           _page8::
 205C 0E940000          xcall push_xgsetF00C
 2060 EF97              sbiw R28,63
 2062 2397              sbiw R28,3  ; offset = 66
 2064                   .dbline -1
 2064                   .dbline 1013
 2064           ;  }
 2064           ;  void page8(void){
 2064                   .dbline 1014
 2064           ;    uint cur=0;
 2064 4427              clr R20
 2066 5527              clr R21
 2068                   .dbline 1019
 2068           ;    uchar keyV;
 2068           ;    uint date[15];
 2068           ;    uint i;
 2068           ;    uint time_cacah;
 2068           ;     uint dateAc[14]={1,2,3,4,6,7,9,10,2,3,5,6,8,9};
 2068 80E0              ldi R24,<L421
 206A 90E0              ldi R25,>L421
 206C FE01              movw R30,R28
 206E B696              adiw R30,38
 2070 0CE1              ldi R16,28
 2072 10E0              ldi R17,0
 2074 FA93              st -y,R31
 2076 EA93              st -y,R30
 2078 9A93              st -y,R25
 207A 8A93              st -y,R24
 207C 0E940000          xcall asgnblk
 2080                   .dbline 1020
 2080           ;    time_cacah=Read1307(0x06);
 2080 06E0              ldi R16,6
 2082 0E940000          xcall _Read1307
 2086 B801              movw R22,R16
 2088                   .dbline 1021
 2088           ;    date[0]=2;
 2088 82E0              ldi R24,2
 208A 90E0              ldi R25,0
 208C 9987              std y+9,R25
 208E 8887              std y+8,R24
 2090                   .dbline 1022
 2090           ;    date[1]=0;
 2090 2224              clr R2
 2092 3324              clr R3
 2094 3B86              std y+11,R3
 2096 2A86              std y+10,R2
 2098                   .dbline 1023
 2098           ;    date[2]=time_cacah>>4;
 2098 1B01              movw R2,R22
 209A 3694              lsr R3
 209C 2794              ror R2
 209E 3694              lsr R3
 20A0 2794              ror R2
 20A2 3694              lsr R3
 20A4 2794              ror R2
 20A6 3694              lsr R3
 20A8 2794              ror R2
 20AA 3D86              std y+13,R3
 20AC 2C86              std y+12,R2
 20AE                   .dbline 1024
 20AE           ;    date[3]=time_cacah&0x0F;
 20AE CB01              movw R24,R22
 20B0 8F70              andi R24,15
 20B2 9070              andi R25,0
 20B4 9F87              std y+15,R25
 20B6 8E87              std y+14,R24
 20B8                   .dbline 1025
 20B8           ;    time_cacah=Read1307(0x05);
 20B8 05E0              ldi R16,5
 20BA 0E940000          xcall _Read1307
 20BE B801              movw R22,R16
 20C0                   .dbline 1026
 20C0           ;    date[4]=(time_cacah>>4)&0x01;
 20C0 CB01              movw R24,R22
 20C2 9695              lsr R25
 20C4 8795              ror R24
 20C6 9695              lsr R25
 20C8 8795              ror R24
 20CA 9695              lsr R25
 20CC 8795              ror R24
 20CE 9695              lsr R25
 20D0 8795              ror R24
 20D2 8170              andi R24,1
 20D4 9070              andi R25,0
 20D6 998B              std y+17,R25
 20D8 888B              std y+16,R24
 20DA                   .dbline 1027
 20DA           ;    date[5]=time_cacah&0x0F;
 20DA CB01              movw R24,R22
 20DC 8F70              andi R24,15
 20DE 9070              andi R25,0
 20E0 9B8B              std y+19,R25
 20E2 8A8B              std y+18,R24
 20E4                   .dbline 1028
 20E4           ;     time_cacah=Read1307(0x04);
 20E4 04E0              ldi R16,4
 20E6 0E940000          xcall _Read1307
 20EA 5801              movw R10,R16
 20EC B501              movw R22,R10
 20EE                   .dbline 1029
 20EE           ;    date[6]=0x03&(time_cacah>>4);
 20EE CB01              movw R24,R22
 20F0 9695              lsr R25
 20F2 8795              ror R24
 20F4 9695              lsr R25
 20F6 8795              ror R24
 20F8 9695              lsr R25
 20FA 8795              ror R24
 20FC 9695              lsr R25
 20FE 8795              ror R24
 2100 8370              andi R24,3
 2102 9070              andi R25,0
 2104 9D8B              std y+21,R25
 2106 8C8B              std y+20,R24
 2108                   .dbline 1030
 2108           ;    date[7]=time_cacah&0x0F;
 2108 CB01              movw R24,R22
 210A 8F70              andi R24,15
 210C 9070              andi R25,0
 210E 9F8B              std y+23,R25
 2110 8E8B              std y+22,R24
 2112                   .dbline 1031
 2112           ;    time_cacah=Read1307(0x02);
 2112 02E0              ldi R16,2
 2114 0E940000          xcall _Read1307
 2118 5801              movw R10,R16
 211A B501              movw R22,R10
 211C                   .dbline 1032
 211C           ;    date[8]=0x03&(time_cacah>>4);
 211C CB01              movw R24,R22
 211E 9695              lsr R25
 2120 8795              ror R24
 2122 9695              lsr R25
 2124 8795              ror R24
 2126 9695              lsr R25
 2128 8795              ror R24
 212A 9695              lsr R25
 212C 8795              ror R24
 212E 8370              andi R24,3
 2130 9070              andi R25,0
 2132 998F              std y+25,R25
 2134 888F              std y+24,R24
 2136                   .dbline 1033
 2136           ;    date[9]=time_cacah&0x0F;
 2136 CB01              movw R24,R22
 2138 8F70              andi R24,15
 213A 9070              andi R25,0
 213C 9B8F              std y+27,R25
 213E 8A8F              std y+26,R24
 2140                   .dbline 1034
 2140           ;    time_cacah=Read1307(0x01);
 2140 01E0              ldi R16,1
 2142 0E940000          xcall _Read1307
 2146 5801              movw R10,R16
 2148 B501              movw R22,R10
 214A                   .dbline 1035
 214A           ;    date[10]=0x07&(time_cacah>>4);
 214A CB01              movw R24,R22
 214C 9695              lsr R25
 214E 8795              ror R24
 2150 9695              lsr R25
 2152 8795              ror R24
 2154 9695              lsr R25
 2156 8795              ror R24
 2158 9695              lsr R25
 215A 8795              ror R24
 215C 8770              andi R24,7
 215E 9070              andi R25,0
 2160 9D8F              std y+29,R25
 2162 8C8F              std y+28,R24
 2164                   .dbline 1036
 2164           ;    date[11]=time_cacah&0x0f;
 2164 CB01              movw R24,R22
 2166 8F70              andi R24,15
 2168 9070              andi R25,0
 216A 9F8F              std y+31,R25
 216C 8E8F              std y+30,R24
 216E                   .dbline 1037
 216E           ;    time_cacah=Read1307(0x00);
 216E 0027              clr R16
 2170 0E940000          xcall _Read1307
 2174 5801              movw R10,R16
 2176 B501              movw R22,R10
 2178                   .dbline 1038
 2178           ;    date[12]=0x07&(time_cacah>>4);
 2178 CB01              movw R24,R22
 217A 9695              lsr R25
 217C 8795              ror R24
 217E 9695              lsr R25
 2180 8795              ror R24
 2182 9695              lsr R25
 2184 8795              ror R24
 2186 9695              lsr R25
 2188 8795              ror R24
 218A 8770              andi R24,7
 218C 9070              andi R25,0
 218E 99A3              std y+33,R25
 2190 88A3              std y+32,R24
 2192                   .dbline 1039
 2192           ;    date[13]=time_cacah&0x0F;
 2192 CB01              movw R24,R22
 2194 8F70              andi R24,15
 2196 9070              andi R25,0
 2198 9BA3              std y+35,R25
 219A 8AA3              std y+34,R24
 219C                   .dbline 1040
 219C           ;     lcd_write_pos(1,0);
 219C 2227              clr R18
 219E 01E0              ldi R16,1
 21A0 0E940000          xcall _lcd_write_pos
 21A4                   .dbline 1041
 21A4           ;   for(i=0;i<8;i++){
 21A4 6627              clr R22
 21A6 7727              clr R23
 21A8 20C0              xjmp L438
 21AA           L435:
 21AA                   .dbline 1041
 21AA                   .dbline 1042
 21AA           ;    lcd_write_char_con(0,0x30 | date[i]);
 21AA CE01              movw R24,R28
 21AC 0896              adiw R24,8
 21AE FB01              movw R30,R22
 21B0 EE0F              lsl R30
 21B2 FF1F              rol R31
 21B4 E80F              add R30,R24
 21B6 F91F              adc R31,R25
 21B8 2081              ldd R18,z+0
 21BA 3181              ldd R19,z+1
 21BC 2063              ori R18,48
 21BE 0027              clr R16
 21C0 0E940000          xcall _lcd_write_char_con
 21C4                   .dbline 1043
 21C4           ;     lcd_write_char_con(0,' ');
 21C4 20E2              ldi R18,32
 21C6 0027              clr R16
 21C8 0E940000          xcall _lcd_write_char_con
 21CC                   .dbline 1044
 21CC           ;       if(i==3 || i==5){
 21CC 6330              cpi R22,3
 21CE E0E0              ldi R30,0
 21D0 7E07              cpc R23,R30
 21D2 21F0              breq L441
 21D4           X247:
 21D4 6530              cpi R22,5
 21D6 E0E0              ldi R30,0
 21D8 7E07              cpc R23,R30
 21DA 29F4              brne L439
 21DC           X248:
 21DC           L441:
 21DC                   .dbline 1044
 21DC                   .dbline 1045
 21DC           ;         lcd_write_str_con(0,"- ");
 21DC 20E0              ldi R18,<L442
 21DE 30E0              ldi R19,>L442
 21E0 0027              clr R16
 21E2 0E940000          xcall _lcd_write_str_con
 21E6                   .dbline 1046
 21E6           ;       }
 21E6           L439:
 21E6                   .dbline 1047
 21E6           ;   }
 21E6           L436:
 21E6                   .dbline 1041
 21E6 6F5F              subi R22,255  ; offset = 1
 21E8 7F4F              sbci R23,255
 21EA           L438:
 21EA                   .dbline 1041
 21EA 6830              cpi R22,8
 21EC E0E0              ldi R30,0
 21EE 7E07              cpc R23,R30
 21F0 E0F2              brlo L435
 21F2           X249:
 21F2                   .dbline 1048
 21F2           ;    lcd_write_pos(2,1);
 21F2 21E0              ldi R18,1
 21F4 02E0              ldi R16,2
 21F6 0E940000          xcall _lcd_write_pos
 21FA                   .dbline 1049
 21FA           ;    for(i=8;i<14;i++){
 21FA 68E0              ldi R22,8
 21FC 70E0              ldi R23,0
 21FE 20C0              xjmp L446
 2200           L443:
 2200                   .dbline 1049
 2200                   .dbline 1050
 2200           ;    lcd_write_char_con(1,0x30 | date[i]);
 2200 CE01              movw R24,R28
 2202 0896              adiw R24,8
 2204 FB01              movw R30,R22
 2206 EE0F              lsl R30
 2208 FF1F              rol R31
 220A E80F              add R30,R24
 220C F91F              adc R31,R25
 220E 2081              ldd R18,z+0
 2210 3181              ldd R19,z+1
 2212 2063              ori R18,48
 2214 01E0              ldi R16,1
 2216 0E940000          xcall _lcd_write_char_con
 221A                   .dbline 1051
 221A           ;    lcd_write_char_con(0,' ');
 221A 20E2              ldi R18,32
 221C 0027              clr R16
 221E 0E940000          xcall _lcd_write_char_con
 2222                   .dbline 1052
 2222           ;    if(i==9 || i==11){
 2222 6930              cpi R22,9
 2224 E0E0              ldi R30,0
 2226 7E07              cpc R23,R30
 2228 21F0              breq L449
 222A           X250:
 222A 6B30              cpi R22,11
 222C E0E0              ldi R30,0
 222E 7E07              cpc R23,R30
 2230 29F4              brne L447
 2232           X251:
 2232           L449:
 2232                   .dbline 1052
 2232                   .dbline 1053
 2232           ;        lcd_write_str_con(0,": ");
 2232 20E0              ldi R18,<L226
 2234 30E0              ldi R19,>L226
 2236 0027              clr R16
 2238 0E940000          xcall _lcd_write_str_con
 223C                   .dbline 1054
 223C           ;    }
 223C           L447:
 223C                   .dbline 1055
 223C           ;   } 
 223C           L444:
 223C                   .dbline 1049
 223C 6F5F              subi R22,255  ; offset = 1
 223E 7F4F              sbci R23,255
 2240           L446:
 2240                   .dbline 1049
 2240 6E30              cpi R22,14
 2242 E0E0              ldi R30,0
 2244 7E07              cpc R23,R30
 2246 E0F2              brlo L443
 2248           X252:
 2248                   .dbline 1056
 2248           ;    lcd_write_str(3,2,"保存");
 2248 80E0              ldi R24,<L272
 224A 90E0              ldi R25,>L272
 224C 9983              std y+1,R25
 224E 8883              std y+0,R24
 2250 22E0              ldi R18,2
 2252 03E0              ldi R16,3
 2254 0E940000          xcall _lcd_write_str
 2258                   .dbline 1057
 2258           ;    lcd_write_str(8,2,"取消");
 2258 80E0              ldi R24,<L119
 225A 90E0              ldi R25,>L119
 225C 9983              std y+1,R25
 225E 8883              std y+0,R24
 2260 22E0              ldi R18,2
 2262 08E0              ldi R16,8
 2264 0E940000          xcall _lcd_write_str
 2268                   .dbline 1060
 2268           ;    //初始化date
 2268           ;   
 2268           ;    cur=0;
 2268 4427              clr R20
 226A 5527              clr R21
 226C                   .dbline 1061
 226C           ;    lcd_write_pos(1,0);//初始游标位置
 226C 2227              clr R18
 226E 01E0              ldi R16,1
 2270 0E940000          xcall _lcd_write_pos
 2274                   .dbline 1062
 2274           ;    cur_set(3);//上半屏幕游标设置
 2274 03E0              ldi R16,3
 2276 10E0              ldi R17,0
 2278 0E940000          xcall _cur_set
 227C 84C2              xjmp L451
 227E           L450:
 227E                   .dbline 1063
 227E           ;    while(1){
 227E                   .dbline 1064
 227E           ;      pageTime(3);//
 227E 03E0              ldi R16,3
 2280 10E0              ldi R17,0
 2282 0E940000          xcall _pageTime
 2286                   .dbline 1065
 2286           ;        keyV=KeyScan_once();
 2286 0E940000          xcall _KeyScan_once
 228A A02E              mov R10,R16
 228C 6A2D              mov R22,R10
 228E                   .dbline 1066
 228E           ;        if(keyV=='u'){
 228E 0537              cpi R16,117
 2290 71F5              brne L453
 2292           X253:
 2292                   .dbline 1066
 2292                   .dbline 1067
 2292           ;          if(cur>13){//调到时间第一个
 2292 8DE0              ldi R24,13
 2294 90E0              ldi R25,0
 2296 8417              cp R24,R20
 2298 9507              cpc R25,R21
 229A B8F4              brsh L455
 229C           X254:
 229C                   .dbline 1067
 229C                   .dbline 1068
 229C           ;               Set_White_off(4,2,5);
 229C 85E0              ldi R24,5
 229E 8883              std y+0,R24
 22A0 22E0              ldi R18,2
 22A2 04E0              ldi R16,4
 22A4 0E940000          xcall _Set_White_off
 22A8                   .dbline 1069
 22A8           ;                       Set_White_off(9,2,10);
 22A8 8AE0              ldi R24,10
 22AA 8883              std y+0,R24
 22AC 22E0              ldi R18,2
 22AE 09E0              ldi R16,9
 22B0 0E940000          xcall _Set_White_off
 22B4                   .dbline 1070
 22B4           ;               lcd_write_pos(2,1);
 22B4 21E0              ldi R18,1
 22B6 02E0              ldi R16,2
 22B8 0E940000          xcall _lcd_write_pos
 22BC                   .dbline 1071
 22BC           ;                   cur_set(3);
 22BC 03E0              ldi R16,3
 22BE 10E0              ldi R17,0
 22C0 0E940000          xcall _cur_set
 22C4                   .dbline 1072
 22C4           ;                       cur=8; 
 22C4 48E0              ldi R20,8
 22C6 50E0              ldi R21,0
 22C8                   .dbline 1073
 22C8           ;                  }else if(cur>7 && cur <14){//调到日期第一个
 22C8 5EC2              xjmp L454
 22CA           L455:
 22CA                   .dbline 1073
 22CA 87E0              ldi R24,7
 22CC 90E0              ldi R25,0
 22CE 8417              cp R24,R20
 22D0 9507              cpc R25,R21
 22D2 08F0              brlo X303
 22D4 58C2              xjmp L454
 22D6           X303:
 22D6           X255:
 22D6 4E30              cpi R20,14
 22D8 E0E0              ldi R30,0
 22DA 5E07              cpc R21,R30
 22DC 08F0              brlo X304
 22DE 53C2              xjmp L454
 22E0           X304:
 22E0           X256:
 22E0                   .dbline 1073
 22E0                   .dbline 1074
 22E0           ;                   lcd_write_pos(1,0);
 22E0 2227              clr R18
 22E2 01E0              ldi R16,1
 22E4 0E940000          xcall _lcd_write_pos
 22E8                   .dbline 1075
 22E8           ;                       cur=0; 
 22E8 4427              clr R20
 22EA 5527              clr R21
 22EC                   .dbline 1076
 22EC           ;                  }
 22EC                   .dbline 1077
 22EC           ;        }else if(keyV=='d'){
 22EC 4CC2              xjmp L454
 22EE           L453:
 22EE                   .dbline 1077
 22EE 6436              cpi R22,100
 22F0 19F5              brne L459
 22F2           X257:
 22F2                   .dbline 1077
 22F2                   .dbline 1078
 22F2           ;            if(cur>7 && cur <14){//在时间上，第三行，默认要保存，所以调到保存上
 22F2 87E0              ldi R24,7
 22F4 90E0              ldi R25,0
 22F6 8417              cp R24,R20
 22F8 9507              cpc R25,R21
 22FA 88F4              brsh L461
 22FC           X258:
 22FC 4E30              cpi R20,14
 22FE E0E0              ldi R30,0
 2300 5E07              cpc R21,R30
 2302 68F4              brsh L461
 2304           X259:
 2304                   .dbline 1078
 2304                   .dbline 1079
 2304           ;                     cur_set(0);//关下半屏幕游标
 2304 0027              clr R16
 2306 1127              clr R17
 2308 0E940000          xcall _cur_set
 230C                   .dbline 1080
 230C           ;                         Set_White(4,2,5);
 230C 85E0              ldi R24,5
 230E 8883              std y+0,R24
 2310 22E0              ldi R18,2
 2312 04E0              ldi R16,4
 2314 0E940000          xcall _Set_White
 2318                   .dbline 1081
 2318           ;                         cur=14;
 2318 4EE0              ldi R20,14
 231A 50E0              ldi R21,0
 231C                   .dbline 1082
 231C           ;                }else if(cur<=7){ //调到时间第一个
 231C 34C2              xjmp L460
 231E           L461:
 231E                   .dbline 1082
 231E 87E0              ldi R24,7
 2320 90E0              ldi R25,0
 2322 8417              cp R24,R20
 2324 9507              cpc R25,R21
 2326 08F4              brsh X305
 2328 2EC2              xjmp L460
 232A           X305:
 232A           X260:
 232A                   .dbline 1082
 232A                   .dbline 1083
 232A           ;                   lcd_write_pos(2,1);
 232A 21E0              ldi R18,1
 232C 02E0              ldi R16,2
 232E 0E940000          xcall _lcd_write_pos
 2332                   .dbline 1084
 2332           ;                       cur=8; 
 2332 48E0              ldi R20,8
 2334 50E0              ldi R21,0
 2336                   .dbline 1085
 2336           ;                }
 2336                   .dbline 1086
 2336           ;        }else if(keyV=='l'){
 2336 27C2              xjmp L460
 2338           L459:
 2338                   .dbline 1086
 2338 6C36              cpi R22,108
 233A 09F0              breq X306
 233C 43C0              xjmp L465
 233E           X306:
 233E           X261:
 233E                   .dbline 1086
 233E                   .dbline 1087
 233E           ;                       if(cur<=8 && cur>0){
 233E 88E0              ldi R24,8
 2340 90E0              ldi R25,0
 2342 8417              cp R24,R20
 2344 9507              cpc R25,R21
 2346 90F0              brlo L467
 2348           X262:
 2348 4030              cpi R20,0
 234A 4507              cpc R20,R21
 234C 79F0              breq L467
 234E           X263:
 234E                   .dbline 1087
 234E                   .dbline 1088
 234E           ;                        cur--;
 234E 4150              subi R20,1
 2350 5040              sbci R21,0
 2352                   .dbline 1089
 2352           ;                        lcd_write_pos(dateAc[cur],0);
 2352 2227              clr R18
 2354 CE01              movw R24,R28
 2356 8696              adiw R24,38
 2358 FA01              movw R30,R20
 235A EE0F              lsl R30
 235C FF1F              rol R31
 235E E80F              add R30,R24
 2360 F91F              adc R31,R25
 2362 0081              ldd R16,z+0
 2364 1181              ldd R17,z+1
 2366 0E940000          xcall _lcd_write_pos
 236A                   .dbline 1090
 236A           ;                       }else if (cur>8 && cur<14){
 236A 0DC2              xjmp L466
 236C           L467:
 236C                   .dbline 1090
 236C 88E0              ldi R24,8
 236E 90E0              ldi R25,0
 2370 8417              cp R24,R20
 2372 9507              cpc R25,R21
 2374 98F4              brsh L469
 2376           X264:
 2376 4E30              cpi R20,14
 2378 E0E0              ldi R30,0
 237A 5E07              cpc R21,R30
 237C 78F4              brsh L469
 237E           X265:
 237E                   .dbline 1090
 237E                   .dbline 1091
 237E           ;                        cur--;
 237E 4150              subi R20,1
 2380 5040              sbci R21,0
 2382                   .dbline 1092
 2382           ;                        lcd_write_pos(dateAc[cur],1);
 2382 21E0              ldi R18,1
 2384 CE01              movw R24,R28
 2386 8696              adiw R24,38
 2388 FA01              movw R30,R20
 238A EE0F              lsl R30
 238C FF1F              rol R31
 238E E80F              add R30,R24
 2390 F91F              adc R31,R25
 2392 0081              ldd R16,z+0
 2394 1181              ldd R17,z+1
 2396 0E940000          xcall _lcd_write_pos
 239A                   .dbline 1093
 239A           ;                       }else if (cur==15){
 239A F5C1              xjmp L466
 239C           L469:
 239C                   .dbline 1093
 239C 4F30              cpi R20,15
 239E E0E0              ldi R30,0
 23A0 5E07              cpc R21,R30
 23A2 09F0              breq X307
 23A4 F0C1              xjmp L466
 23A6           X307:
 23A6           X266:
 23A6                   .dbline 1093
 23A6                   .dbline 1094
 23A6           ;                           Set_White_off(9,2,10);
 23A6 8AE0              ldi R24,10
 23A8 8883              std y+0,R24
 23AA 22E0              ldi R18,2
 23AC 09E0              ldi R16,9
 23AE 0E940000          xcall _Set_White_off
 23B2                   .dbline 1095
 23B2           ;                           Set_White(4,2,5);
 23B2 85E0              ldi R24,5
 23B4 8883              std y+0,R24
 23B6 22E0              ldi R18,2
 23B8 04E0              ldi R16,4
 23BA 0E940000          xcall _Set_White
 23BE                   .dbline 1096
 23BE           ;                               cur=14;
 23BE 4EE0              ldi R20,14
 23C0 50E0              ldi R21,0
 23C2                   .dbline 1097
 23C2           ;                       }
 23C2                   .dbline 1100
 23C2           ;                       
 23C2           ;               
 23C2           ;        }else if(keyV=='r'){
 23C2 E1C1              xjmp L466
 23C4           L465:
 23C4                   .dbline 1100
 23C4 6237              cpi R22,114
 23C6 09F0              breq X308
 23C8 3AC0              xjmp L473
 23CA           X308:
 23CA           X267:
 23CA                   .dbline 1100
 23CA                   .dbline 1101
 23CA           ;              if(cur<7){
 23CA 4730              cpi R20,7
 23CC E0E0              ldi R30,0
 23CE 5E07              cpc R21,R30
 23D0 78F4              brsh L475
 23D2           X268:
 23D2                   .dbline 1101
 23D2                   .dbline 1102
 23D2           ;                          cur++;
 23D2 4F5F              subi R20,255  ; offset = 1
 23D4 5F4F              sbci R21,255
 23D6                   .dbline 1103
 23D6           ;                          lcd_write_pos(dateAc[cur],0);
 23D6 2227              clr R18
 23D8 CE01              movw R24,R28
 23DA 8696              adiw R24,38
 23DC FA01              movw R30,R20
 23DE EE0F              lsl R30
 23E0 FF1F              rol R31
 23E2 E80F              add R30,R24
 23E4 F91F              adc R31,R25
 23E6 0081              ldd R16,z+0
 23E8 1181              ldd R17,z+1
 23EA 0E940000          xcall _lcd_write_pos
 23EE                   .dbline 1104
 23EE           ;                       }else if (cur<13){
 23EE CBC1              xjmp L474
 23F0           L475:
 23F0                   .dbline 1104
 23F0 4D30              cpi R20,13
 23F2 E0E0              ldi R30,0
 23F4 5E07              cpc R21,R30
 23F6 78F4              brsh L477
 23F8           X269:
 23F8                   .dbline 1104
 23F8                   .dbline 1105
 23F8           ;                          cur++;
 23F8 4F5F              subi R20,255  ; offset = 1
 23FA 5F4F              sbci R21,255
 23FC                   .dbline 1106
 23FC           ;                          lcd_write_pos(dateAc[cur],1);
 23FC 21E0              ldi R18,1
 23FE CE01              movw R24,R28
 2400 8696              adiw R24,38
 2402 FA01              movw R30,R20
 2404 EE0F              lsl R30
 2406 FF1F              rol R31
 2408 E80F              add R30,R24
 240A F91F              adc R31,R25
 240C 0081              ldd R16,z+0
 240E 1181              ldd R17,z+1
 2410 0E940000          xcall _lcd_write_pos
 2414                   .dbline 1107
 2414           ;                       }else if (cur==14){
 2414 B8C1              xjmp L474
 2416           L477:
 2416                   .dbline 1107
 2416 4E30              cpi R20,14
 2418 E0E0              ldi R30,0
 241A 5E07              cpc R21,R30
 241C 09F0              breq X309
 241E B3C1              xjmp L474
 2420           X309:
 2420           X270:
 2420                   .dbline 1107
 2420                   .dbline 1108
 2420           ;                           Set_White_off(4,2,5);
 2420 85E0              ldi R24,5
 2422 8883              std y+0,R24
 2424 22E0              ldi R18,2
 2426 04E0              ldi R16,4
 2428 0E940000          xcall _Set_White_off
 242C                   .dbline 1109
 242C           ;                               Set_White(9,2,10);
 242C 8AE0              ldi R24,10
 242E 8883              std y+0,R24
 2430 22E0              ldi R18,2
 2432 09E0              ldi R16,9
 2434 0E940000          xcall _Set_White
 2438                   .dbline 1110
 2438           ;                               cur=15;
 2438 4FE0              ldi R20,15
 243A 50E0              ldi R21,0
 243C                   .dbline 1111
 243C           ;                       }
 243C                   .dbline 1112
 243C           ;        }else if(keyV=='e'){
 243C A4C1              xjmp L474
 243E           L473:
 243E                   .dbline 1112
 243E 6536              cpi R22,101
 2440 B9F4              brne L481
 2442           X271:
 2442                   .dbline 1112
 2442                   .dbline 1113
 2442           ;            cur_set(0);//关上半屏幕游标
 2442 0027              clr R16
 2444 1127              clr R17
 2446 0E940000          xcall _cur_set
 244A                   .dbline 1114
 244A           ;                 Set_White_off(4,2,5);
 244A 85E0              ldi R24,5
 244C 8883              std y+0,R24
 244E 22E0              ldi R18,2
 2450 04E0              ldi R16,4
 2452 0E940000          xcall _Set_White_off
 2456                   .dbline 1115
 2456           ;                 Set_White_off(9,2,10);
 2456 8AE0              ldi R24,10
 2458 8883              std y+0,R24
 245A 22E0              ldi R18,2
 245C 09E0              ldi R16,9
 245E 0E940000          xcall _Set_White_off
 2462                   .dbline 1116
 2462           ;                pageNum=1;
 2462 81E0              ldi R24,1
 2464 90E0              ldi R25,0
 2466 90930100          sts _pageNum+1,R25
 246A 80930000          sts _pageNum,R24
 246E                   .dbline 1117
 246E           ;                return;
 246E 8CC1              xjmp L420
 2470           L481:
 2470                   .dbline 1119
 2470           ;            //退出界面
 2470           ;        }else if(keyV=='t'){
 2470 6437              cpi R22,116
 2472 09F0              breq X310
 2474 85C0              xjmp L483
 2476           X310:
 2476           X272:
 2476                   .dbline 1119
 2476                   .dbline 1120
 2476           ;             if(cur==14){
 2476 4E30              cpi R20,14
 2478 E0E0              ldi R30,0
 247A 5E07              cpc R21,R30
 247C 09F0              breq X311
 247E 64C0              xjmp L485
 2480           X311:
 2480           X273:
 2480                   .dbline 1120
 2480                   .dbline 1121
 2480           ;                     setTime((date[2]*16)+date[3],(date[4]*16)+date[5],(date[6]*16)+date[7],(date[8]*16)+date[9],(date[10]*16)+date[11],(date[12]*16)+date[13]);
 2480 28A1              ldd R18,y+32
 2482 39A1              ldd R19,y+33
 2484 00E1              ldi R16,16
 2486 10E0              ldi R17,0
 2488 0E940000          xcall empy16s
 248C 1801              movw R2,R16
 248E 4AA0              ldd R4,y+34
 2490 5BA0              ldd R5,y+35
 2492 240C              add R2,R4
 2494 351C              adc R3,R5
 2496 3F82              std y+7,R3
 2498 2E82              std y+6,R2
 249A 2C8D              ldd R18,y+28
 249C 3D8D              ldd R19,y+29
 249E 00E1              ldi R16,16
 24A0 10E0              ldi R17,0
 24A2 0E940000          xcall empy16s
 24A6 1801              movw R2,R16
 24A8 4E8C              ldd R4,y+30
 24AA 5F8C              ldd R5,y+31
 24AC 240C              add R2,R4
 24AE 351C              adc R3,R5
 24B0 3D82              std y+5,R3
 24B2 2C82              std y+4,R2
 24B4 288D              ldd R18,y+24
 24B6 398D              ldd R19,y+25
 24B8 00E1              ldi R16,16
 24BA 10E0              ldi R17,0
 24BC 0E940000          xcall empy16s
 24C0 1801              movw R2,R16
 24C2 4A8C              ldd R4,y+26
 24C4 5B8C              ldd R5,y+27
 24C6 240C              add R2,R4
 24C8 351C              adc R3,R5
 24CA 3B82              std y+3,R3
 24CC 2A82              std y+2,R2
 24CE 2C89              ldd R18,y+20
 24D0 3D89              ldd R19,y+21
 24D2 00E1              ldi R16,16
 24D4 10E0              ldi R17,0
 24D6 0E940000          xcall empy16s
 24DA 1801              movw R2,R16
 24DC 4E88              ldd R4,y+22
 24DE 5F88              ldd R5,y+23
 24E0 240C              add R2,R4
 24E2 351C              adc R3,R5
 24E4 3982              std y+1,R3
 24E6 2882              std y+0,R2
 24E8 2889              ldd R18,y+16
 24EA 3989              ldd R19,y+17
 24EC 00E1              ldi R16,16
 24EE 10E0              ldi R17,0
 24F0 0E940000          xcall empy16s
 24F4 9801              movw R18,R16
 24F6 2A88              ldd R2,y+18
 24F8 3B88              ldd R3,y+19
 24FA 220D              add R18,R2
 24FC 331D              adc R19,R3
 24FE 2C84              ldd R2,y+12
 2500 3D84              ldd R3,y+13
 2502 00E1              ldi R16,16
 2504 10E0              ldi R17,0
 2506 2F93              push R18
 2508 3F93              push R19
 250A 9101              movw R18,R2
 250C 0E940000          xcall empy16s
 2510 1801              movw R2,R16
 2512 3F91              pop R19
 2514 2F91              pop R18
 2516 4E84              ldd R4,y+14
 2518 5F84              ldd R5,y+15
 251A 240C              add R2,R4
 251C 351C              adc R3,R5
 251E 8101              movw R16,R2
 2520 0E940000          xcall _setTime
 2524                   .dbline 1124
 2524           ;                       //setTime(1*16+2,1<<4+2+0x00,2*16+2,1<<4+2+0x00,5+0x00,5<<4+1+0x00);
 2524           ;                               //保存操作
 2524           ;                               pageParam[1]=0;//标记是时间的保存
 2524 2224              clr R2
 2526 3324              clr R3
 2528 30920300          sts _pageParam+2+1,R3
 252C 20920200          sts _pageParam+2,R2
 2530                   .dbline 1125
 2530           ;                               prePageNum=8;
 2530 88E0              ldi R24,8
 2532 90E0              ldi R25,0
 2534 90930100          sts _prePageNum+1,R25
 2538 80930000          sts _prePageNum,R24
 253C                   .dbline 1126
 253C           ;                               pageNum=6;
 253C 86E0              ldi R24,6
 253E 90930100          sts _pageNum+1,R25
 2542 80930000          sts _pageNum,R24
 2546                   .dbline 1127
 2546           ;                               return;
 2546 20C1              xjmp L420
 2548           L485:
 2548                   .dbline 1128
 2548           ;                }else if(cur==15){
 2548 4F30              cpi R20,15
 254A E0E0              ldi R30,0
 254C 5E07              cpc R21,R30
 254E 09F0              breq X312
 2550 1AC1              xjmp L484
 2552           X312:
 2552           X274:
 2552                   .dbline 1128
 2552                   .dbline 1130
 2552           ;                       //取消操作
 2552           ;                        cur_set(0);//关上半屏幕游标
 2552 0027              clr R16
 2554 1127              clr R17
 2556 0E940000          xcall _cur_set
 255A                   .dbline 1131
 255A           ;                 Set_White_off(4,2,5);
 255A 85E0              ldi R24,5
 255C 8883              std y+0,R24
 255E 22E0              ldi R18,2
 2560 04E0              ldi R16,4
 2562 0E940000          xcall _Set_White_off
 2566                   .dbline 1132
 2566           ;                 Set_White_off(9,2,10);
 2566 8AE0              ldi R24,10
 2568 8883              std y+0,R24
 256A 22E0              ldi R18,2
 256C 09E0              ldi R16,9
 256E 0E940000          xcall _Set_White_off
 2572                   .dbline 1133
 2572           ;                pageNum=1;
 2572 81E0              ldi R24,1
 2574 90E0              ldi R25,0
 2576 90930100          sts _pageNum+1,R25
 257A 80930000          sts _pageNum,R24
 257E                   .dbline 1134
 257E           ;                return;
 257E 04C1              xjmp L420
 2580           L483:
 2580                   .dbline 1136
 2580           ;                }
 2580           ;        }else if(keyV=='0' || keyV=='1' || keyV=='2' || keyV=='3' || keyV=='4' || keyV=='5' 
 2580 6033              cpi R22,48
 2582 99F0              breq L512
 2584           X275:
 2584 6133              cpi R22,49
 2586 89F0              breq L512
 2588           X276:
 2588 6233              cpi R22,50
 258A 79F0              breq L512
 258C           X277:
 258C 6333              cpi R22,51
 258E 69F0              breq L512
 2590           X278:
 2590 6433              cpi R22,52
 2592 59F0              breq L512
 2594           X279:
 2594 6533              cpi R22,53
 2596 49F0              breq L512
 2598           X280:
 2598 6633              cpi R22,54
 259A 39F0              breq L512
 259C           X281:
 259C 6733              cpi R22,55
 259E 29F0              breq L512
 25A0           X282:
 25A0 6833              cpi R22,56
 25A2 19F0              breq L512
 25A4           X283:
 25A4 6933              cpi R22,57
 25A6 09F0              breq X313
 25A8 EEC0              xjmp L502
 25AA           X313:
 25AA           X284:
 25AA           L512:
 25AA                   .dbline 1137
 25AA           ;                  || keyV=='6'  || keyV=='7' || keyV=='8' || keyV=='9'){
 25AA                   .dbline 1138
 25AA           ;                       if(cur<14){
 25AA 4E30              cpi R20,14
 25AC E0E0              ldi R30,0
 25AE 5E07              cpc R21,R30
 25B0 08F0              brlo X314
 25B2 E9C0              xjmp L513
 25B4           X314:
 25B4           X285:
 25B4                   .dbline 1138
 25B4                   .dbline 1139
 25B4           ;                        lcd_write_char_con(0,0x30 | keyV);
 25B4 262F              mov R18,R22
 25B6 2063              ori R18,48
 25B8 0027              clr R16
 25BA 0E940000          xcall _lcd_write_char_con
 25BE                   .dbline 1140
 25BE           ;                        lcd_write_char_con(0,' ');
 25BE 20E2              ldi R18,32
 25C0 0027              clr R16
 25C2 0E940000          xcall _lcd_write_char_con
 25C6                   .dbline 1141
 25C6           ;                        switch(keyV){
 25C6 7727              clr R23
 25C8 6033              cpi R22,48
 25CA E0E0              ldi R30,0
 25CC 7E07              cpc R23,R30
 25CE 09F4              brne X315
 25D0 2EC0              xjmp L518
 25D2           X315:
 25D2           X286:
 25D2 6133              cpi R22,49
 25D4 E0E0              ldi R30,0
 25D6 7E07              cpc R23,R30
 25D8 09F4              brne X316
 25DA 35C0              xjmp L519
 25DC           X316:
 25DC           X287:
 25DC 6233              cpi R22,50
 25DE E0E0              ldi R30,0
 25E0 7E07              cpc R23,R30
 25E2 09F4              brne X317
 25E4 3CC0              xjmp L520
 25E6           X317:
 25E6           X288:
 25E6 6333              cpi R22,51
 25E8 E0E0              ldi R30,0
 25EA 7E07              cpc R23,R30
 25EC 09F4              brne X318
 25EE 43C0              xjmp L521
 25F0           X318:
 25F0           X289:
 25F0 6433              cpi R22,52
 25F2 E0E0              ldi R30,0
 25F4 7E07              cpc R23,R30
 25F6 09F4              brne X319
 25F8 4AC0              xjmp L522
 25FA           X319:
 25FA           X290:
 25FA 6533              cpi R22,53
 25FC E0E0              ldi R30,0
 25FE 7E07              cpc R23,R30
 2600 09F4              brne X320
 2602 51C0              xjmp L523
 2604           X320:
 2604           X291:
 2604 6633              cpi R22,54
 2606 E0E0              ldi R30,0
 2608 7E07              cpc R23,R30
 260A 09F4              brne X321
 260C 58C0              xjmp L524
 260E           X321:
 260E           X292:
 260E 6733              cpi R22,55
 2610 E0E0              ldi R30,0
 2612 7E07              cpc R23,R30
 2614 09F4              brne X322
 2616 5FC0              xjmp L525
 2618           X322:
 2618           X293:
 2618 6833              cpi R22,56
 261A E0E0              ldi R30,0
 261C 7E07              cpc R23,R30
 261E 09F4              brne X323
 2620 66C0              xjmp L526
 2622           X323:
 2622           X294:
 2622 6933              cpi R22,57
 2624 E0E0              ldi R30,0
 2626 7E07              cpc R23,R30
 2628 09F4              brne X324
 262A 6DC0              xjmp L527
 262C           X324:
 262C           X295:
 262C 77C0              xjmp L515
 262E           L518:
 262E                   .dbline 1143
 262E           ;                         case '0':
 262E           ;                           date[cur]=0;
 262E CE01              movw R24,R28
 2630 0896              adiw R24,8
 2632 FA01              movw R30,R20
 2634 EE0F              lsl R30
 2636 FF1F              rol R31
 2638 E80F              add R30,R24
 263A F91F              adc R31,R25
 263C 2224              clr R2
 263E 3324              clr R3
 2640 3182              std z+1,R3
 2642 2082              std z+0,R2
 2644                   .dbline 1144
 2644           ;                           break;
 2644 6BC0              xjmp L516
 2646           L519:
 2646                   .dbline 1146
 2646           ;                         case '1':
 2646           ;                           date[cur]=1;
 2646 CE01              movw R24,R28
 2648 0896              adiw R24,8
 264A FA01              movw R30,R20
 264C EE0F              lsl R30
 264E FF1F              rol R31
 2650 E80F              add R30,R24
 2652 F91F              adc R31,R25
 2654 81E0              ldi R24,1
 2656 90E0              ldi R25,0
 2658 9183              std z+1,R25
 265A 8083              std z+0,R24
 265C                   .dbline 1147
 265C           ;                           break;
 265C 5FC0              xjmp L516
 265E           L520:
 265E                   .dbline 1149
 265E           ;                         case '2':
 265E           ;                           date[cur]=2;
 265E CE01              movw R24,R28
 2660 0896              adiw R24,8
 2662 FA01              movw R30,R20
 2664 EE0F              lsl R30
 2666 FF1F              rol R31
 2668 E80F              add R30,R24
 266A F91F              adc R31,R25
 266C 82E0              ldi R24,2
 266E 90E0              ldi R25,0
 2670 9183              std z+1,R25
 2672 8083              std z+0,R24
 2674                   .dbline 1150
 2674           ;                           break;
 2674 53C0              xjmp L516
 2676           L521:
 2676                   .dbline 1152
 2676           ;                         case '3':
 2676           ;                           date[cur]=3;
 2676 CE01              movw R24,R28
 2678 0896              adiw R24,8
 267A FA01              movw R30,R20
 267C EE0F              lsl R30
 267E FF1F              rol R31
 2680 E80F              add R30,R24
 2682 F91F              adc R31,R25
 2684 83E0              ldi R24,3
 2686 90E0              ldi R25,0
 2688 9183              std z+1,R25
 268A 8083              std z+0,R24
 268C                   .dbline 1153
 268C           ;                           break;
 268C 47C0              xjmp L516
 268E           L522:
 268E                   .dbline 1155
 268E           ;                         case '4':
 268E           ;                           date[cur]=4;
 268E CE01              movw R24,R28
 2690 0896              adiw R24,8
 2692 FA01              movw R30,R20
 2694 EE0F              lsl R30
 2696 FF1F              rol R31
 2698 E80F              add R30,R24
 269A F91F              adc R31,R25
 269C 84E0              ldi R24,4
 269E 90E0              ldi R25,0
 26A0 9183              std z+1,R25
 26A2 8083              std z+0,R24
 26A4                   .dbline 1156
 26A4           ;                           break;
 26A4 3BC0              xjmp L516
 26A6           L523:
 26A6                   .dbline 1158
 26A6           ;                         case '5':
 26A6           ;                           date[cur]=5;
 26A6 CE01              movw R24,R28
 26A8 0896              adiw R24,8
 26AA FA01              movw R30,R20
 26AC EE0F              lsl R30
 26AE FF1F              rol R31
 26B0 E80F              add R30,R24
 26B2 F91F              adc R31,R25
 26B4 85E0              ldi R24,5
 26B6 90E0              ldi R25,0
 26B8 9183              std z+1,R25
 26BA 8083              std z+0,R24
 26BC                   .dbline 1159
 26BC           ;                           break;
 26BC 2FC0              xjmp L516
 26BE           L524:
 26BE                   .dbline 1161
 26BE           ;                         case '6':
 26BE           ;                           date[cur]=6;
 26BE CE01              movw R24,R28
 26C0 0896              adiw R24,8
 26C2 FA01              movw R30,R20
 26C4 EE0F              lsl R30
 26C6 FF1F              rol R31
 26C8 E80F              add R30,R24
 26CA F91F              adc R31,R25
 26CC 86E0              ldi R24,6
 26CE 90E0              ldi R25,0
 26D0 9183              std z+1,R25
 26D2 8083              std z+0,R24
 26D4                   .dbline 1162
 26D4           ;                           break;
 26D4 23C0              xjmp L516
 26D6           L525:
 26D6                   .dbline 1164
 26D6           ;                         case '7':
 26D6           ;                           date[cur]=7;
 26D6 CE01              movw R24,R28
 26D8 0896              adiw R24,8
 26DA FA01              movw R30,R20
 26DC EE0F              lsl R30
 26DE FF1F              rol R31
 26E0 E80F              add R30,R24
 26E2 F91F              adc R31,R25
 26E4 87E0              ldi R24,7
 26E6 90E0              ldi R25,0
 26E8 9183              std z+1,R25
 26EA 8083              std z+0,R24
 26EC                   .dbline 1165
 26EC           ;                           break;
 26EC 17C0              xjmp L516
 26EE           L526:
 26EE                   .dbline 1167
 26EE           ;                     case '8':
 26EE           ;                           date[cur]=8;
 26EE CE01              movw R24,R28
 26F0 0896              adiw R24,8
 26F2 FA01              movw R30,R20
 26F4 EE0F              lsl R30
 26F6 FF1F              rol R31
 26F8 E80F              add R30,R24
 26FA F91F              adc R31,R25
 26FC 88E0              ldi R24,8
 26FE 90E0              ldi R25,0
 2700 9183              std z+1,R25
 2702 8083              std z+0,R24
 2704                   .dbline 1168
 2704           ;                           break;
 2704 0BC0              xjmp L516
 2706           L527:
 2706                   .dbline 1170
 2706           ;                         case '9':
 2706           ;                           date[cur]=9;
 2706 CE01              movw R24,R28
 2708 0896              adiw R24,8
 270A FA01              movw R30,R20
 270C EE0F              lsl R30
 270E FF1F              rol R31
 2710 E80F              add R30,R24
 2712 F91F              adc R31,R25
 2714 89E0              ldi R24,9
 2716 90E0              ldi R25,0
 2718 9183              std z+1,R25
 271A 8083              std z+0,R24
 271C                   .dbline 1171
 271C           ;                           break;
 271C           L515:
 271C           L516:
 271C                   .dbline 1174
 271C           ;                         
 271C           ;                        }
 271C           ;                         if(cur==3 || cur==5){
 271C 4330              cpi R20,3
 271E E0E0              ldi R30,0
 2720 5E07              cpc R21,R30
 2722 21F0              breq L530
 2724           X296:
 2724 4530              cpi R20,5
 2726 E0E0              ldi R30,0
 2728 5E07              cpc R21,R30
 272A 31F4              brne L528
 272C           X297:
 272C           L530:
 272C                   .dbline 1174
 272C                   .dbline 1175
 272C           ;                           lcd_write_str_con(0,"- ");
 272C 20E0              ldi R18,<L442
 272E 30E0              ldi R19,>L442
 2730 0027              clr R16
 2732 0E940000          xcall _lcd_write_str_con
 2736                   .dbline 1176
 2736           ;                        }else if(cur==9 || cur==11){
 2736 0DC0              xjmp L529
 2738           L528:
 2738                   .dbline 1176
 2738 4930              cpi R20,9
 273A E0E0              ldi R30,0
 273C 5E07              cpc R21,R30
 273E 21F0              breq L533
 2740           X298:
 2740 4B30              cpi R20,11
 2742 E0E0              ldi R30,0
 2744 5E07              cpc R21,R30
 2746 29F4              brne L531
 2748           X299:
 2748           L533:
 2748                   .dbline 1176
 2748                   .dbline 1177
 2748           ;                           lcd_write_str_con(0,": ");
 2748 20E0              ldi R18,<L226
 274A 30E0              ldi R19,>L226
 274C 0027              clr R16
 274E 0E940000          xcall _lcd_write_str_con
 2752                   .dbline 1178
 2752           ;                        }
 2752           L531:
 2752           L529:
 2752                   .dbline 1179
 2752           ;                        cur++;
 2752 4F5F              subi R20,255  ; offset = 1
 2754 5F4F              sbci R21,255
 2756                   .dbline 1180
 2756           ;                        if(cur==8){
 2756 4830              cpi R20,8
 2758 E0E0              ldi R30,0
 275A 5E07              cpc R21,R30
 275C 31F4              brne L534
 275E           X300:
 275E                   .dbline 1180
 275E                   .dbline 1181
 275E           ;                           lcd_write_pos(dateAc[8],1);
 275E 21E0              ldi R18,1
 2760 0EA9              ldd R16,y+54
 2762 1FA9              ldd R17,y+55
 2764 0E940000          xcall _lcd_write_pos
 2768                   .dbline 1182
 2768           ;                        }else if(cur==14){
 2768 0EC0              xjmp L535
 276A           L534:
 276A                   .dbline 1182
 276A 4E30              cpi R20,14
 276C E0E0              ldi R30,0
 276E 5E07              cpc R21,R30
 2770 51F4              brne L537
 2772           X301:
 2772                   .dbline 1182
 2772                   .dbline 1183
 2772           ;                         cur_set(0);//关下半屏幕游标
 2772 0027              clr R16
 2774 1127              clr R17
 2776 0E940000          xcall _cur_set
 277A                   .dbline 1184
 277A           ;                         Set_White(4,2,5);
 277A 85E0              ldi R24,5
 277C 8883              std y+0,R24
 277E 22E0              ldi R18,2
 2780 04E0              ldi R16,4
 2782 0E940000          xcall _Set_White
 2786                   .dbline 1185
 2786           ;                        }
 2786           L537:
 2786           L535:
 2786                   .dbline 1186
 2786           ;                       }
 2786           L513:
 2786                   .dbline 1187
 2786           ;        }
 2786           L502:
 2786           L484:
 2786           L474:
 2786           L466:
 2786           L460:
 2786           L454:
 2786                   .dbline 1188
 2786           ;    }
 2786           L451:
 2786                   .dbline 1063
 2786 7BCD              xjmp L450
 2788           X302:
 2788                   .dbline -2
 2788           L420:
 2788                   .dbline 0 ; func end
 2788 EF96              adiw R28,63
 278A 2396              adiw R28,3  ; offset = 66
 278C 0C940000          xjmp pop_xgsetF00C
 2790                   .dbsym l dateAc 38 A[28:14]i
 2790                   .dbsym r time_cacah 22 i
 2790                   .dbsym r keyV 22 c
 2790                   .dbsym r cur 20 i
 2790                   .dbsym l date 8 A[30:15]i
 2790                   .dbsym r i 22 i
 2790                   .dbend
 2790                   .dbfunc e page9 _page9 fV
                        .even
 2790           _page9::
 2790 2297              sbiw R28,2
 2792                   .dbline -1
 2792                   .dbline 1190
 2792           ;  }
 2792           ; void page9(void){//复用的方法
 2792                   .dbline 1191
 2792           ;   if(pageParam[2]==0){
 2792 20900400          lds R2,_pageParam+4
 2796 30900500          lds R3,_pageParam+4+1
 279A 2220              tst R2
 279C 81F4              brne L540
 279E 3320              tst R3
 27A0 71F4              brne L540
 27A2           X325:
 27A2                   .dbline 1191
 27A2                   .dbline 1192
 27A2           ;      lcd_write_str(4,1,"系统重置中。。。");
 27A2 80E0              ldi R24,<L543
 27A4 90E0              ldi R25,>L543
 27A6 9983              std y+1,R25
 27A8 8883              std y+0,R24
 27AA 21E0              ldi R18,1
 27AC 04E0              ldi R16,4
 27AE 0E940000          xcall _lcd_write_str
 27B2                   .dbline 1194
 27B2           ;        //是否需要清除数据，考虑中
 27B2           ;        WDTCR|=(1<<WDCE)|(1<<WDE); /* 置位 WDTOE 和 WDE(在设置看门狗定时器的预置分频器参数时需要将其写1)*/
 27B2 81B5              in R24,0x21
 27B4 8861              ori R24,24
 27B6 81BD              out 0x21,R24
 27B8                   .dbline 1195
 27B8           ;      WDTCR=(1<<WDE)|(1<<WDP2)|(1<<WDP1); /*设定周期为1S*/
 27B8 8EE0              ldi R24,14
 27BA 81BD              out 0x21,R24
 27BC           L544:
 27BC                   .dbline 1196
 27BC           ;        while(1){
 27BC                   .dbline 1197
 27BC           ;        }
 27BC           L545:
 27BC                   .dbline 1196
 27BC FFCF              xjmp L544
 27BE           L540:
 27BE                   .dbline 1198
 27BE           ;    }else if(pageParam[2]==1){
 27BE 80910400          lds R24,_pageParam+4
 27C2 90910500          lds R25,_pageParam+4+1
 27C6 8130              cpi R24,1
 27C8 E0E0              ldi R30,0
 27CA 9E07              cpc R25,R30
 27CC 71F4              brne L547
 27CE           X326:
 27CE                   .dbline 1198
 27CE                   .dbline 1199
 27CE           ;      lcd_write_str(4,1,"数据重置中。。。");
 27CE 80E0              ldi R24,<L550
 27D0 90E0              ldi R25,>L550
 27D2 9983              std y+1,R25
 27D4 8883              std y+0,R24
 27D6 21E0              ldi R18,1
 27D8 04E0              ldi R16,4
 27DA 0E940000          xcall _lcd_write_str
 27DE                   .dbline 1200
 27DE           ;        reset_temp_data(pageParam[0]);
 27DE 00910000          lds R16,_pageParam
 27E2 10910100          lds R17,_pageParam+1
 27E6 0E940000          xcall _reset_temp_data
 27EA                   .dbline 1201
 27EA           ;    }
 27EA           L547:
 27EA           L541:
 27EA                   .dbline 1202
 27EA           ;    delay_ms(50);
 27EA 02E3              ldi R16,50
 27EC 10E0              ldi R17,0
 27EE 0E940000          xcall _delay_ms
 27F2                   .dbline 1203
 27F2           ;    pageNum=prePageNum;
 27F2 20900000          lds R2,_prePageNum
 27F6 30900100          lds R3,_prePageNum+1
 27FA 30920100          sts _pageNum+1,R3
 27FE 20920000          sts _pageNum,R2
 2802                   .dbline -2
 2802           L539:
 2802                   .dbline 0 ; func end
 2802 2296              adiw R28,2
 2804 0895              ret
 2806                   .dbend
 2806                   .dbfunc e dispatchPages _dispatchPages fV
                        .even
 2806           _dispatchPages::
 2806                   .dbline -1
 2806                   .dbline 1206
 2806           ;  }
 2806           ; //分发Pages
 2806           ; void dispatchPages(void){
 2806                   .dbline 1207
 2806           ;       lcd_clear();//清屏幕
 2806 0E940000          xcall _lcd_clear
 280A                   .dbline 1208
 280A           ;       if(pageNum==1){
 280A 80910000          lds R24,_pageNum
 280E 90910100          lds R25,_pageNum+1
 2812 8130              cpi R24,1
 2814 E0E0              ldi R30,0
 2816 9E07              cpc R25,R30
 2818 19F4              brne L552
 281A           X327:
 281A                   .dbline 1208
 281A                   .dbline 1209
 281A           ;           page1();
 281A 0E941C00          xcall _page1
 281E                   .dbline 1210
 281E           ;         }else if(pageNum==2){
 281E 52C0              xjmp L553
 2820           L552:
 2820                   .dbline 1210
 2820 80910000          lds R24,_pageNum
 2824 90910100          lds R25,_pageNum+1
 2828 8230              cpi R24,2
 282A E0E0              ldi R30,0
 282C 9E07              cpc R25,R30
 282E 19F4              brne L554
 2830           X328:
 2830                   .dbline 1210
 2830                   .dbline 1211
 2830           ;           page2();
 2830 0E94FF03          xcall _page2
 2834                   .dbline 1212
 2834           ;         }else if(pageNum==3){
 2834 47C0              xjmp L555
 2836           L554:
 2836                   .dbline 1212
 2836 80910000          lds R24,_pageNum
 283A 90910100          lds R25,_pageNum+1
 283E 8330              cpi R24,3
 2840 E0E0              ldi R30,0
 2842 9E07              cpc R25,R30
 2844 19F4              brne L556
 2846           X329:
 2846                   .dbline 1212
 2846                   .dbline 1213
 2846           ;           page3();
 2846 0E944805          xcall _page3
 284A                   .dbline 1214
 284A           ;         }else if(pageNum==4){
 284A 3CC0              xjmp L557
 284C           L556:
 284C                   .dbline 1214
 284C 80910000          lds R24,_pageNum
 2850 90910100          lds R25,_pageNum+1
 2854 8430              cpi R24,4
 2856 E0E0              ldi R30,0
 2858 9E07              cpc R25,R30
 285A 19F4              brne L558
 285C           X330:
 285C                   .dbline 1214
 285C                   .dbline 1215
 285C           ;           page4();
 285C 0E945F0B          xcall _page4
 2860                   .dbline 1216
 2860           ;         }else if(pageNum==5){
 2860 31C0              xjmp L559
 2862           L558:
 2862                   .dbline 1216
 2862 80910000          lds R24,_pageNum
 2866 90910100          lds R25,_pageNum+1
 286A 8530              cpi R24,5
 286C E0E0              ldi R30,0
 286E 9E07              cpc R25,R30
 2870 11F4              brne L560
 2872           X331:
 2872                   .dbline 1216
 2872                   .dbline 1217
 2872           ;           page5();
 2872 EED9              xcall _page5
 2874                   .dbline 1218
 2874           ;         }else if(pageNum==6){
 2874 27C0              xjmp L561
 2876           L560:
 2876                   .dbline 1218
 2876 80910000          lds R24,_pageNum
 287A 90910100          lds R25,_pageNum+1
 287E 8630              cpi R24,6
 2880 E0E0              ldi R30,0
 2882 9E07              cpc R25,R30
 2884 11F4              brne L562
 2886           X332:
 2886                   .dbline 1218
 2886                   .dbline 1219
 2886           ;           page6();
 2886 09DB              xcall _page6
 2888                   .dbline 1220
 2888           ;         }else if(pageNum==7){
 2888 1DC0              xjmp L563
 288A           L562:
 288A                   .dbline 1220
 288A 80910000          lds R24,_pageNum
 288E 90910100          lds R25,_pageNum+1
 2892 8730              cpi R24,7
 2894 E0E0              ldi R30,0
 2896 9E07              cpc R25,R30
 2898 11F4              brne L564
 289A           X333:
 289A                   .dbline 1220
 289A                   .dbline 1221
 289A           ;           page7();
 289A 40DB              xcall _page7
 289C                   .dbline 1222
 289C           ;         }else if(pageNum==8){
 289C 13C0              xjmp L565
 289E           L564:
 289E                   .dbline 1222
 289E 80910000          lds R24,_pageNum
 28A2 90910100          lds R25,_pageNum+1
 28A6 8830              cpi R24,8
 28A8 E0E0              ldi R30,0
 28AA 9E07              cpc R25,R30
 28AC 11F4              brne L566
 28AE           X334:
 28AE                   .dbline 1222
 28AE                   .dbline 1223
 28AE           ;           page8();
 28AE D6DB              xcall _page8
 28B0                   .dbline 1224
 28B0           ;         }else if(pageNum==9){
 28B0 09C0              xjmp L567
 28B2           L566:
 28B2                   .dbline 1224
 28B2 80910000          lds R24,_pageNum
 28B6 90910100          lds R25,_pageNum+1
 28BA 8930              cpi R24,9
 28BC E0E0              ldi R30,0
 28BE 9E07              cpc R25,R30
 28C0 09F4              brne L568
 28C2           X335:
 28C2                   .dbline 1224
 28C2                   .dbline 1225
 28C2           ;           page9();
 28C2 66DF              xcall _page9
 28C4                   .dbline 1226
 28C4           ;         }
 28C4           L568:
 28C4           L567:
 28C4           L565:
 28C4           L563:
 28C4           L561:
 28C4           L559:
 28C4           L557:
 28C4           L555:
 28C4           L553:
 28C4                   .dbline -2
 28C4           L551:
 28C4                   .dbline 0 ; func end
 28C4 0895              ret
 28C6                   .dbend
                        .area data(ram, con, rel)
 0122                   .dbfile E:\ICCDemo\Temp_Control\temp_control\pages.c
 0122           L550:
 0122                   .blkb 17
                        .area idata
 0122 CAFDBEDDD6D8D6C3D6D0A1A3A1A3A1A3  .byte 202,253,190,221,214,216,214,195,214,208,161,163,161,163,161,163
 0132 00                .byte 0
                        .area data(ram, con, rel)
 0133                   .dbfile E:\ICCDemo\Temp_Control\temp_control\pages.c
 0133           L543:
 0133                   .blkb 17
                        .area idata
 0133 CFB5CDB3D6D8D6C3D6D0A1A3A1A3A1A3  .byte 207,181,205,179,214,216,214,195,214,208,161,163,161,163,161,163
 0143 00                .byte 0
                        .area data(ram, con, rel)
 0144                   .dbfile E:\ICCDemo\Temp_Control\temp_control\pages.c
 0144           L442:
 0144                   .blkb 3
                        .area idata
 0144 2D2000            .byte 45,32,0
                        .area data(ram, con, rel)
 0147                   .dbfile E:\ICCDemo\Temp_Control\temp_control\pages.c
 0147           L401:
 0147                   .blkb 5
                        .area idata
 0147 C8B7C8CF00        .byte 200,183,200,207,0
                        .area data(ram, con, rel)
 014C                   .dbfile E:\ICCDemo\Temp_Control\temp_control\pages.c
 014C           L400:
 014C                   .blkb 9
                        .area idata
 014C CAC7B7F1D6D8D6C300        .byte 202,199,183,241,214,216,214,195,0
                        .area data(ram, con, rel)
 0155                   .dbfile E:\ICCDemo\Temp_Control\temp_control\pages.c
 0155           L398:
 0155                   .blkb 15
                        .area idata
 0155 CEC2B6C8B1A3B4E6CAA7B0DCA3A100    .byte 206,194,182,200,177,163,180,230,202,167,176,220,163,161,0
                        .area data(ram, con, rel)
 0164                   .dbfile E:\ICCDemo\Temp_Control\temp_control\pages.c
 0164           L394:
 0164                   .blkb 15
                        .area idata
 0164 CEC2B6C8B1A3B4E6B3C9B9A6A3A100    .byte 206,194,182,200,177,163,180,230,179,201,185,166,163,161,0
                        .area data(ram, con, rel)
 0173                   .dbfile E:\ICCDemo\Temp_Control\temp_control\pages.c
 0173           L390:
 0173                   .blkb 15
                        .area idata
 0173 CAB1BCE4B1A3B4E6B3C9B9A6A3A100    .byte 202,177,188,228,177,163,180,230,179,201,185,166,163,161,0
                        .area data(ram, con, rel)
 0182                   .dbfile E:\ICCDemo\Temp_Control\temp_control\pages.c
 0182           L349:
 0182                   .blkb 9
                        .area idata
 0182 D6D8D6C3CFB5CDB300        .byte 214,216,214,195,207,181,205,179,0
                        .area data(ram, con, rel)
 018B                   .dbfile E:\ICCDemo\Temp_Control\temp_control\pages.c
 018B           L348:
 018B                   .blkb 9
                        .area idata
 018B C9E8D6C3CAB1BCE400        .byte 201,232,214,195,202,177,188,228,0
                        .area data(ram, con, rel)
 0194                   .dbfile E:\ICCDemo\Temp_Control\temp_control\pages.c
 0194           L347:
 0194                   .blkb 13
                        .area idata
 0194 B6CFB5E7D7D4B6AFBBD6B8B400        .byte 182,207,181,231,215,212,182,175,187,214,184,180,0
                        .area data(ram, con, rel)
 01A1                   .dbfile E:\ICCDemo\Temp_Control\temp_control\pages.c
 01A1           L320:
 01A1                   .blkb 12
                        .area idata
 01A1 B1A3B4E6D6D02E202E202E00  .byte 177,163,180,230,214,208,46,32,46,32,46,0
                        .area data(ram, con, rel)
 01AD                   .dbfile E:\ICCDemo\Temp_Control\temp_control\pages.c
 01AD           L272:
 01AD                   .blkb 5
                        .area idata
 01AD B1A3B4E600        .byte 177,163,180,230,0
                        .area data(ram, con, rel)
 01B2                   .dbfile E:\ICCDemo\Temp_Control\temp_control\pages.c
 01B2           L271:
 01B2                   .blkb 5
                        .area idata
 01B2 CEC2B6C800        .byte 206,194,182,200,0
                        .area data(ram, con, rel)
 01B7                   .dbfile E:\ICCDemo\Temp_Control\temp_control\pages.c
 01B7           L227:
 01B7                   .blkb 2
                        .area idata
 01B7 2000              .byte 32,0
                        .area data(ram, con, rel)
 01B9                   .dbfile E:\ICCDemo\Temp_Control\temp_control\pages.c
 01B9           L226:
 01B9                   .blkb 3
                        .area idata
 01B9 3A2000            .byte 58,32,0
                        .area data(ram, con, rel)
 01BC                   .dbfile E:\ICCDemo\Temp_Control\temp_control\pages.c
 01BC           L181:
 01BC                   .blkb 17
                        .area idata
 01BC 20202020202020202020202020202020  .byte 32,32,32,32,32,32,32,32,32,32,32,32,32,32,32,32
 01CC 00                .byte 0
                        .area data(ram, con, rel)
 01CD                   .dbfile E:\ICCDemo\Temp_Control\temp_control\pages.c
 01CD           L180:
 01CD                   .blkb 7
                        .area idata
 01CD 20202020202000    .byte 32,32,32,32,32,32,0
                        .area data(ram, con, rel)
 01D4                   .dbfile E:\ICCDemo\Temp_Control\temp_control\pages.c
 01D4           L172:
 01D4                   .blkb 5
                        .area idata
 01D4 BAE3CEC200        .byte 186,227,206,194,0
                        .area data(ram, con, rel)
 01D9                   .dbfile E:\ICCDemo\Temp_Control\temp_control\pages.c
 01D9           L170:
 01D9                   .blkb 5
                        .area idata
 01D9 C9FDCEC200        .byte 201,253,206,194,0
                        .area data(ram, con, rel)
 01DE                   .dbfile E:\ICCDemo\Temp_Control\temp_control\pages.c
 01DE           L164:
 01DE                   .blkb 1
                        .area idata
 01DE 00                .byte 0
                        .area data(ram, con, rel)
 01DF                   .dbfile E:\ICCDemo\Temp_Control\temp_control\pages.c
 01DF           L150:
 01DF                   .blkb 5
                        .area idata
 01DF D6D8D6C300        .byte 214,216,214,195,0
                        .area data(ram, con, rel)
 01E4                   .dbfile E:\ICCDemo\Temp_Control\temp_control\pages.c
 01E4           L149:
 01E4                   .blkb 5
                        .area idata
 01E4 D4CBD0D000        .byte 212,203,208,208,0
                        .area data(ram, con, rel)
 01E9                   .dbfile E:\ICCDemo\Temp_Control\temp_control\pages.c
 01E9           L148:
 01E9                   .blkb 5
                        .area idata
 01E9 B1E0BCAD00        .byte 177,224,188,173,0
                        .area data(ram, con, rel)
 01EE                   .dbfile E:\ICCDemo\Temp_Control\temp_control\pages.c
 01EE           L147:
 01EE                   .blkb 6
                        .area idata
 01EE D7B4CCAC3A00      .byte 215,180,204,172,58,0
                        .area data(ram, con, rel)
 01F4                   .dbfile E:\ICCDemo\Temp_Control\temp_control\pages.c
 01F4           L146:
 01F4                   .blkb 6
                        .area idata
 01F4 C4BFB1EA3A00      .byte 196,191,177,234,58,0
                        .area data(ram, con, rel)
 01FA                   .dbfile E:\ICCDemo\Temp_Control\temp_control\pages.c
 01FA           L145:
 01FA                   .blkb 6
                        .area idata
 01FA CEC2B6C83A00      .byte 206,194,182,200,58,0
                        .area data(ram, con, rel)
 0200                   .dbfile E:\ICCDemo\Temp_Control\temp_control\pages.c
 0200           L144:
 0200                   .blkb 2
                        .area idata
 0200 5400              .byte 'T,0
                        .area data(ram, con, rel)
 0202                   .dbfile E:\ICCDemo\Temp_Control\temp_control\pages.c
 0202           L129:
 0202                   .blkb 12
                        .area idata
 0202 BBD6B8B4D6D02E202E202E00  .byte 187,214,184,180,214,208,46,32,46,32,46,0
                        .area data(ram, con, rel)
 020E                   .dbfile E:\ICCDemo\Temp_Control\temp_control\pages.c
 020E           L119:
 020E                   .blkb 5
                        .area idata
 020E C8A1CFFB00        .byte 200,161,207,251,0
                        .area data(ram, con, rel)
 0213                   .dbfile E:\ICCDemo\Temp_Control\temp_control\pages.c
 0213           L118:
 0213                   .blkb 5
                        .area idata
 0213 BBD6B8B400        .byte 187,214,184,180,0
                        .area data(ram, con, rel)
 0218                   .dbfile E:\ICCDemo\Temp_Control\temp_control\pages.c
 0218           L117:
 0218                   .blkb 17
                        .area idata
 0218 CAC7B7F1BBD6B8B4C9CFB4CEB9A4D7F7  .byte 202,199,183,241,187,214,184,180,201,207,180,206,185,164,215,247
 0228 00                .byte 0
                        .area data(ram, con, rel)
 0229                   .dbfile E:\ICCDemo\Temp_Control\temp_control\pages.c
 0229           L43:
 0229                   .blkb 5
                        .area idata
 0229 B5C8B4FD00        .byte 181,200,180,253,0
                        .area data(ram, con, rel)
 022E                   .dbfile E:\ICCDemo\Temp_Control\temp_control\pages.c
 022E           L41:
 022E                   .blkb 5
                        .area idata
 022E BDE1CAF800        .byte 189,225,202,248,0
                        .area data(ram, con, rel)
 0233                   .dbfile E:\ICCDemo\Temp_Control\temp_control\pages.c
 0233           L39:
 0233                   .blkb 5
                        .area idata
 0233 D4DDCDA300        .byte 212,221,205,163,0
                        .area data(ram, con, rel)
 0238                   .dbfile E:\ICCDemo\Temp_Control\temp_control\pages.c
 0238           L37:
 0238                   .blkb 5
                        .area idata
 0238 B9CAD5CF00        .byte 185,202,213,207,0
                        .area data(ram, con, rel)
 023D                   .dbfile E:\ICCDemo\Temp_Control\temp_control\pages.c
 023D           L31:
 023D                   .blkb 5
                        .area idata
 023D CDA3D6B900        .byte 205,163,214,185,0
                        .area data(ram, con, rel)
 0242                   .dbfile E:\ICCDemo\Temp_Control\temp_control\pages.c
 0242           L11:
 0242                   .blkb 5
                        .area idata
 0242 C9E8D6C300        .byte 201,232,214,195,0
                        .area data(ram, con, rel)
 0247                   .dbfile E:\ICCDemo\Temp_Control\temp_control\pages.c
 0247           L10:
 0247                   .blkb 9
                        .area idata
 0247 CDA3D6B92020202000        .byte 205,163,214,185,32,32,32,32,0
                        .area data(ram, con, rel)
 0250                   .dbfile E:\ICCDemo\Temp_Control\temp_control\pages.c
 0250           L9:
 0250                   .blkb 9
                        .area idata
 0250 BFAACABC2020202000        .byte 191,170,202,188,32,32,32,32,0
                        .area data(ram, con, rel)
 0259                   .dbfile E:\ICCDemo\Temp_Control\temp_control\pages.c
 0259           L8:
 0259                   .blkb 5
                        .area idata
 0259 2054343A00        .byte 32,'T,52,58,0
                        .area data(ram, con, rel)
 025E                   .dbfile E:\ICCDemo\Temp_Control\temp_control\pages.c
 025E           L7:
 025E                   .blkb 5
                        .area idata
 025E 2054333A00        .byte 32,'T,51,58,0
                        .area data(ram, con, rel)
 0263                   .dbfile E:\ICCDemo\Temp_Control\temp_control\pages.c
 0263           L6:
 0263                   .blkb 5
                        .area idata
 0263 2054323A00        .byte 32,'T,50,58,0
                        .area data(ram, con, rel)
 0268                   .dbfile E:\ICCDemo\Temp_Control\temp_control\pages.c
 0268           L5:
 0268                   .blkb 5
                        .area idata
 0268 2054313A00        .byte 32,'T,49,58,0
                        .area data(ram, con, rel)
 026D                   .dbfile E:\ICCDemo\Temp_Control\temp_control\pages.c
 026D           L2:
 026D                   .blkb 6
                        .area idata
 026D CAB1BCE43A00      .byte 202,177,188,228,58,0
                        .area data(ram, con, rel)
 0273                   .dbfile E:\ICCDemo\Temp_Control\temp_control\pages.c
 0273           ;                
 0273           ; }
