                        .module pages.c
                        .area text(rom, con, rel)
 0000                   .dbfile pages.c
 0000                   .dbfile E:\ICCDemo\Temp_Control\temp_control\pages.c
 0000                   .dbfunc e pageTime _pageTime fV
 0000           ;              y -> R10,R11
                        .even
 0000           _pageTime::
 0000 AA92              st -y,R10
 0002 BA92              st -y,R11
 0004 5801              movw R10,R16
 0006 2297              sbiw R28,2
 0008                   .dbline -1
 0008                   .dbline 17
 0008           ; #include<iom128v.h>
 0008           ; #include "main.h"
 0008           ; #include "lcd.h"
 0008           ; #include "time.h"
 0008           ; #include "timertask.h"
 0008           ; #include "key.h"
 0008           ; #include "delay.h"
 0008           ; //************************
 0008           ; // 所有界面信息在这里,用到全局变量， 
 0008           ; // unsigned int pageNum;//当前页面，如需跳转改变这个值就行
 0008           ; // unsigned int pageParam[5];//传递参数。界面间参数暂存
 0008           ; // unsigned int prePageNum;
 0008           ; //************************
 0008           ; 
 0008           ; //用于显第一行日期信息，其中Page1、Page3 、Page8使用，
 0008           ; //由定时器触发该函数，进入这三个界面是启动定时器，退出时关闭
 0008           ; void pageTime(uint y){
 0008                   .dbline 19
 0008           ;                 //关定时器
 0008           ;    lcd_write_str(0,y,"时间:");
 0008 80E0              ldi R24,<L2
 000A 90E0              ldi R25,>L2
 000C 9983              std y+1,R25
 000E 8883              std y+0,R24
 0010 2A2D              mov R18,R10
 0012 0027              clr R16
 0014 0E940000          xcall _lcd_write_str
 0018                   .dbline 20
 0018           ;    showTime_page(y);
 0018 8501              movw R16,R10
 001A 0E940000          xcall _showTime_page
 001E                   .dbline -2
 001E           L1:
 001E                   .dbline 0 ; func end
 001E 2296              adiw R28,2
 0020 B990              ld R11,y+
 0022 A990              ld R10,y+
 0024 0895              ret
 0026                   .dbsym r y 10 i
 0026                   .dbend
 0026                   .dbfunc e page1 _page1 fV
 0026           ;            cur -> R20,R21
 0026           ;           keyV -> R10
 0026           ;              y -> R22,R23
 0026           ;              i -> R10,R11
                        .even
 0026           _page1::
 0026 0E940000          xcall push_xgsetF03C
 002A 2297              sbiw R28,2
 002C                   .dbline -1
 002C                   .dbline 24
 002C           ;                  //开定时器 
 002C           ; }
 002C           ; //page1,首页的界面
 002C           ; void page1(void){
 002C                   .dbline 25
 002C           ;    uint cur=0;
 002C                   .dbline 29
 002C           ;    uchar keyV;
 002C           ;    uint i;//用于循环
 002C           ;    uint y;//确定是那个半屏幕
 002C           ;    prePageNum=1;//首页不会再有上一界面，这里设置。虽然违反规则
 002C 81E0              ldi R24,1
 002E 90E0              ldi R25,0
 0030 90930100          sts _prePageNum+1,R25
 0034 80930000          sts _prePageNum,R24
 0038                   .dbline 34
 0038           ;    //初始化起始选择
 0038           ;        
 0038           ;    
 0038           ;    
 0038           ;    lcd_write_str(1,1," T1:100");
 0038 80E0              ldi R24,<L4
 003A 90E0              ldi R25,>L4
 003C 9983              std y+1,R25
 003E 8883              std y+0,R24
 0040 21E0              ldi R18,1
 0042 01E0              ldi R16,1
 0044 0E940000          xcall _lcd_write_str
 0048                   .dbline 35
 0048           ;    lcd_write_char(5,1,0xA1);
 0048 81EA              ldi R24,161
 004A 8883              std y+0,R24
 004C 21E0              ldi R18,1
 004E 05E0              ldi R16,5
 0050 0E940000          xcall _lcd_write_char
 0054                   .dbline 36
 0054           ;    lcd_write_char_con(1,0xE6);
 0054 26EE              ldi R18,230
 0056 01E0              ldi R16,1
 0058 0E940000          xcall _lcd_write_char_con
 005C                   .dbline 39
 005C           ;       
 005C           ;    
 005C           ;     lcd_write_str(6,1," T2:800");
 005C 80E0              ldi R24,<L5
 005E 90E0              ldi R25,>L5
 0060 9983              std y+1,R25
 0062 8883              std y+0,R24
 0064 21E0              ldi R18,1
 0066 06E0              ldi R16,6
 0068 0E940000          xcall _lcd_write_str
 006C                   .dbline 40
 006C           ;       lcd_write_char(10,1,0xA1);
 006C 81EA              ldi R24,161
 006E 8883              std y+0,R24
 0070 21E0              ldi R18,1
 0072 0AE0              ldi R16,10
 0074 0E940000          xcall _lcd_write_char
 0078                   .dbline 41
 0078           ;       lcd_write_char_con(1,0xE6);
 0078 26EE              ldi R18,230
 007A 01E0              ldi R16,1
 007C 0E940000          xcall _lcd_write_char_con
 0080                   .dbline 43
 0080           ;       
 0080           ;     lcd_write_str(1,2," T3:停止");
 0080 80E0              ldi R24,<L6
 0082 90E0              ldi R25,>L6
 0084 9983              std y+1,R25
 0086 8883              std y+0,R24
 0088 22E0              ldi R18,2
 008A 01E0              ldi R16,1
 008C 0E940000          xcall _lcd_write_str
 0090                   .dbline 45
 0090           ; 
 0090           ;     lcd_write_str(6,2," T4:故障");
 0090 80E0              ldi R24,<L7
 0092 90E0              ldi R25,>L7
 0094 9983              std y+1,R25
 0096 8883              std y+0,R24
 0098 22E0              ldi R18,2
 009A 06E0              ldi R16,6
 009C 0E940000          xcall _lcd_write_str
 00A0                   .dbline 48
 00A0           ; 
 00A0           ;       
 00A0           ;       lcd_write_str(1,3,"开始    ");
 00A0 80E0              ldi R24,<L8
 00A2 90E0              ldi R25,>L8
 00A4 9983              std y+1,R25
 00A6 8883              std y+0,R24
 00A8 23E0              ldi R18,3
 00AA 01E0              ldi R16,1
 00AC 0E940000          xcall _lcd_write_str
 00B0                   .dbline 49
 00B0           ;     lcd_write_str_con(3,"停止    ");
 00B0 20E0              ldi R18,<L9
 00B2 30E0              ldi R19,>L9
 00B4 03E0              ldi R16,3
 00B6 0E940000          xcall _lcd_write_str_con
 00BA                   .dbline 50
 00BA           ;       lcd_write_str_con(3,"设置");
 00BA 20E0              ldi R18,<L10
 00BC 30E0              ldi R19,>L10
 00BE 03E0              ldi R16,3
 00C0 0E940000          xcall _lcd_write_str_con
 00C4                   .dbline 55
 00C4           ;       
 00C4           ;       
 00C4           ;       
 00C4           ;        
 00C4           ;       cur=0;
 00C4 4427              clr R20
 00C6 5527              clr R21
 00C8                   .dbline 56
 00C8           ;       Set_White(2,1,3);
 00C8 83E0              ldi R24,3
 00CA 8883              std y+0,R24
 00CC 21E0              ldi R18,1
 00CE 02E0              ldi R16,2
 00D0 0E940000          xcall _Set_White
 00D4 0FC3              xjmp L12
 00D6           L11:
 00D6                   .dbline 57
 00D6           ;       while(1){
 00D6                   .dbline 58
 00D6           ;        pageTime(0);
 00D6 0027              clr R16
 00D8 1127              clr R17
 00DA 92DF              xcall _pageTime
 00DC                   .dbline 59
 00DC           ;       for(i=0;i<4;i++){
 00DC AA24              clr R10
 00DE BB24              clr R11
 00E0 81C0              xjmp L17
 00E2           L14:
 00E2                   .dbline 59
 00E2                   .dbline 60
 00E2           ;         if(i==0){
 00E2 AA20              tst R10
 00E4 49F4              brne L18
 00E6 BB20              tst R11
 00E8 39F4              brne L18
 00EA           X0:
 00EA                   .dbline 60
 00EA                   .dbline 61
 00EA           ;           y=1;
 00EA 61E0              ldi R22,1
 00EC 70E0              ldi R23,0
 00EE                   .dbline 62
 00EE           ;           lcd_write_pos(3,1);
 00EE 21E0              ldi R18,1
 00F0 03E0              ldi R16,3
 00F2 0E940000          xcall _lcd_write_pos
 00F6                   .dbline 63
 00F6           ;         }else if(i==1){
 00F6 23C0              xjmp L19
 00F8           L18:
 00F8                   .dbline 63
 00F8 C501              movw R24,R10
 00FA 8130              cpi R24,1
 00FC E0E0              ldi R30,0
 00FE 9E07              cpc R25,R30
 0100 39F4              brne L20
 0102           X1:
 0102                   .dbline 63
 0102                   .dbline 64
 0102           ;           y=1;
 0102 61E0              ldi R22,1
 0104 70E0              ldi R23,0
 0106                   .dbline 65
 0106           ;           lcd_write_pos(8,1);
 0106 21E0              ldi R18,1
 0108 08E0              ldi R16,8
 010A 0E940000          xcall _lcd_write_pos
 010E                   .dbline 66
 010E           ;         }else if(i==2){
 010E 17C0              xjmp L21
 0110           L20:
 0110                   .dbline 66
 0110 C501              movw R24,R10
 0112 8230              cpi R24,2
 0114 E0E0              ldi R30,0
 0116 9E07              cpc R25,R30
 0118 39F4              brne L22
 011A           X2:
 011A                   .dbline 66
 011A                   .dbline 67
 011A           ;           y=2;
 011A 62E0              ldi R22,2
 011C 70E0              ldi R23,0
 011E                   .dbline 68
 011E           ;           lcd_write_pos(3,2);
 011E 22E0              ldi R18,2
 0120 03E0              ldi R16,3
 0122 0E940000          xcall _lcd_write_pos
 0126                   .dbline 69
 0126           ;         }else if(i==3){
 0126 0BC0              xjmp L23
 0128           L22:
 0128                   .dbline 69
 0128 C501              movw R24,R10
 012A 8330              cpi R24,3
 012C E0E0              ldi R30,0
 012E 9E07              cpc R25,R30
 0130 31F4              brne L24
 0132           X3:
 0132                   .dbline 69
 0132                   .dbline 70
 0132           ;           y=2;
 0132 62E0              ldi R22,2
 0134 70E0              ldi R23,0
 0136                   .dbline 71
 0136           ;           lcd_write_pos(8,2);
 0136 22E0              ldi R18,2
 0138 08E0              ldi R16,8
 013A 0E940000          xcall _lcd_write_pos
 013E                   .dbline 72
 013E           ;         }
 013E           L24:
 013E           L23:
 013E           L21:
 013E           L19:
 013E                   .dbline 73
 013E           ;          switch(temps[i].flag){
 013E 80E0              ldi R24,<_temps
 0140 90E0              ldi R25,>_temps
 0142 F501              movw R30,R10
 0144 EE0F              lsl R30
 0146 FF1F              rol R31
 0148 E80F              add R30,R24
 014A F91F              adc R31,R25
 014C C080              ldd R12,z+0
 014E D180              ldd R13,z+1
 0150 CC20              tst R12
 0152 11F4              brne X4
 0154 DD20              tst R13
 0156 D1F0              breq L29
 0158           X4:
 0158 C601              movw R24,R12
 015A 8130              cpi R24,1
 015C E0E0              ldi R30,0
 015E 9E07              cpc R25,R30
 0160 D9F0              breq L31
 0162           X5:
 0162 8230              cpi R24,2
 0164 E0E0              ldi R30,0
 0166 9E07              cpc R25,R30
 0168 E9F0              breq L33
 016A           X6:
 016A 8330              cpi R24,3
 016C E0E0              ldi R30,0
 016E 9E07              cpc R25,R30
 0170 F9F0              breq L35
 0172           X7:
 0172 8430              cpi R24,4
 0174 E0E0              ldi R30,0
 0176 9E07              cpc R25,R30
 0178 09F1              breq L37
 017A           X8:
 017A 8530              cpi R24,5
 017C E0E0              ldi R30,0
 017E 9E07              cpc R25,R30
 0180 19F1              breq L39
 0182           X9:
 0182 8630              cpi R24,6
 0184 E0E0              ldi R30,0
 0186 9E07              cpc R25,R30
 0188 29F1              breq L41
 018A           X10:
 018A 29C0              xjmp L27
 018C           L29:
 018C                   .dbline 75
 018C           ;            case 0:
 018C           ;                  lcd_write_str_con(y,"停止");
 018C 20E0              ldi R18,<L30
 018E 30E0              ldi R19,>L30
 0190 062F              mov R16,R22
 0192 0E940000          xcall _lcd_write_str_con
 0196                   .dbline 76
 0196           ;                  break;
 0196 23C0              xjmp L27
 0198           L31:
 0198                   .dbline 78
 0198           ;                case 1:
 0198           ;                  lcd_write_str_con(y,"150");
 0198 20E0              ldi R18,<L32
 019A 30E0              ldi R19,>L32
 019C 062F              mov R16,R22
 019E 0E940000          xcall _lcd_write_str_con
 01A2                   .dbline 79
 01A2           ;                  break;
 01A2 1DC0              xjmp L27
 01A4           L33:
 01A4                   .dbline 81
 01A4           ;                case 2:
 01A4           ;                  lcd_write_str_con(y,"故障");
 01A4 20E0              ldi R18,<L34
 01A6 30E0              ldi R19,>L34
 01A8 062F              mov R16,R22
 01AA 0E940000          xcall _lcd_write_str_con
 01AE                   .dbline 82
 01AE           ;                  break;
 01AE 17C0              xjmp L27
 01B0           L35:
 01B0                   .dbline 84
 01B0           ;                case 3:
 01B0           ;                  lcd_write_str_con(y,"暂停");
 01B0 20E0              ldi R18,<L36
 01B2 30E0              ldi R19,>L36
 01B4 062F              mov R16,R22
 01B6 0E940000          xcall _lcd_write_str_con
 01BA                   .dbline 85
 01BA           ;                  break;
 01BA 11C0              xjmp L27
 01BC           L37:
 01BC                   .dbline 87
 01BC           ;                case 4:
 01BC           ;                  lcd_write_str_con(y,"结束");
 01BC 20E0              ldi R18,<L38
 01BE 30E0              ldi R19,>L38
 01C0 062F              mov R16,R22
 01C2 0E940000          xcall _lcd_write_str_con
 01C6                   .dbline 88
 01C6           ;                  break;
 01C6 0BC0              xjmp L27
 01C8           L39:
 01C8                   .dbline 90
 01C8           ;                case 5:
 01C8           ;                  lcd_write_str_con(y,"等待");
 01C8 20E0              ldi R18,<L40
 01CA 30E0              ldi R19,>L40
 01CC 062F              mov R16,R22
 01CE 0E940000          xcall _lcd_write_str_con
 01D2                   .dbline 91
 01D2           ;                  break;
 01D2 05C0              xjmp L27
 01D4           L41:
 01D4                   .dbline 93
 01D4           ;                case 6:
 01D4           ;                  lcd_write_str_con(y,"加载");
 01D4 20E0              ldi R18,<L42
 01D6 30E0              ldi R19,>L42
 01D8 062F              mov R16,R22
 01DA 0E940000          xcall _lcd_write_str_con
 01DE                   .dbline 94
 01DE           ;                  break;
 01DE                   .dbline 95
 01DE           ;                  break;
 01DE                   .dbline 97
 01DE           ;                default:
 01DE           ;                  break;
 01DE           L27:
 01DE                   .dbline 99
 01DE           ;          }
 01DE           ;       }
 01DE           L15:
 01DE                   .dbline 59
 01DE C501              movw R24,R10
 01E0 0196              adiw R24,1
 01E2 5C01              movw R10,R24
 01E4           L17:
 01E4                   .dbline 59
 01E4 C501              movw R24,R10
 01E6 8430              cpi R24,4
 01E8 E0E0              ldi R30,0
 01EA 9E07              cpc R25,R30
 01EC 08F4              brsh X56
 01EE 79CF              xjmp L14
 01F0           X56:
 01F0           X11:
 01F0                   .dbline 100
 01F0           ;        keyV=KeyScan_once();
 01F0 0E940000          xcall _KeyScan_once
 01F4 A02E              mov R10,R16
 01F6                   .dbline 101
 01F6           ;        if(keyV=='a'){
 01F6 0136              cpi R16,97
 01F8 09F0              breq X57
 01FA 48C0              xjmp L43
 01FC           X57:
 01FC           X12:
 01FC                   .dbline 101
 01FC                   .dbline 103
 01FC           ;             //pageNum=8;//跳转到设置时间的界面
 01FC           ;                  pageNum=8;
 01FC 88E0              ldi R24,8
 01FE 90E0              ldi R25,0
 0200 90930100          sts _pageNum+1,R25
 0204 80930000          sts _pageNum,R24
 0208                   .dbline 104
 0208           ;          switch(cur){
 0208 4030              cpi R20,0
 020A 4507              cpc R20,R21
 020C A9F0              breq L47
 020E           X13:
 020E 4130              cpi R20,1
 0210 E0E0              ldi R30,0
 0212 5E07              cpc R21,R30
 0214 C1F0              breq L48
 0216           X14:
 0216 4230              cpi R20,2
 0218 E0E0              ldi R30,0
 021A 5E07              cpc R21,R30
 021C D9F0              breq L49
 021E           X15:
 021E 4330              cpi R20,3
 0220 E0E0              ldi R30,0
 0222 5E07              cpc R21,R30
 0224 F1F0              breq L50
 0226           X16:
 0226 4530              cpi R20,5
 0228 E0E0              ldi R30,0
 022A 5E07              cpc R21,R30
 022C 09F1              breq L51
 022E           X17:
 022E 4630              cpi R20,6
 0230 E0E0              ldi R30,0
 0232 5E07              cpc R21,R30
 0234 21F1              breq L52
 0236           X18:
 0236 5FC2              xjmp L3
 0238           L47:
 0238                   .dbline 106
 0238           ;                case 0: 
 0238           ;                   Set_White_off(2,1,3);
 0238 83E0              ldi R24,3
 023A 8883              std y+0,R24
 023C 21E0              ldi R18,1
 023E 02E0              ldi R16,2
 0240 0E940000          xcall _Set_White_off
 0244                   .dbline 107
 0244           ;                   break;
 0244 58C2              xjmp L3
 0246           L48:
 0246                   .dbline 109
 0246           ;                case 1:
 0246           ;                  Set_White_off(7,1,8);
 0246 88E0              ldi R24,8
 0248 8883              std y+0,R24
 024A 21E0              ldi R18,1
 024C 07E0              ldi R16,7
 024E 0E940000          xcall _Set_White_off
 0252                   .dbline 110
 0252           ;                  break;
 0252 51C2              xjmp L3
 0254           L49:
 0254                   .dbline 112
 0254           ;                case 2:
 0254           ;                 Set_White_off(2,2,3);
 0254 83E0              ldi R24,3
 0256 8883              std y+0,R24
 0258 22E0              ldi R18,2
 025A 02E0              ldi R16,2
 025C 0E940000          xcall _Set_White_off
 0260                   .dbline 113
 0260           ;                 break;
 0260 4AC2              xjmp L3
 0262           L50:
 0262                   .dbline 115
 0262           ;                case 3:
 0262           ;                  Set_White_off(7,2,8);
 0262 88E0              ldi R24,8
 0264 8883              std y+0,R24
 0266 22E0              ldi R18,2
 0268 07E0              ldi R16,7
 026A 0E940000          xcall _Set_White_off
 026E                   .dbline 116
 026E           ;                   break;
 026E 43C2              xjmp L3
 0270           L51:
 0270                   .dbline 118
 0270           ;               case 5:
 0270           ;                   Set_White_off(6,3,7);
 0270 87E0              ldi R24,7
 0272 8883              std y+0,R24
 0274 23E0              ldi R18,3
 0276 06E0              ldi R16,6
 0278 0E940000          xcall _Set_White_off
 027C                   .dbline 119
 027C           ;                   break;
 027C 3CC2              xjmp L3
 027E           L52:
 027E                   .dbline 121
 027E           ;                case 6:
 027E           ;                  Set_White_off(10,3,11);
 027E 8BE0              ldi R24,11
 0280 8883              std y+0,R24
 0282 23E0              ldi R18,3
 0284 0AE0              ldi R16,10
 0286 0E940000          xcall _Set_White_off
 028A                   .dbline 122
 028A           ;                   break;
 028A                   .dbline 124
 028A           ;                 default:
 028A           ;                  break;
 028A                   .dbline 126
 028A           ;                }
 028A           ;          return ;
 028A 35C2              xjmp L3
 028C           L43:
 028C                   .dbline 127
 028C           ;       }else if(keyV=='d'){
 028C 8A2D              mov R24,R10
 028E 8436              cpi R24,100
 0290 09F0              breq X58
 0292 4CC0              xjmp L53
 0294           X58:
 0294           X19:
 0294                   .dbline 127
 0294                   .dbline 128
 0294           ;            switch(cur){
 0294 4030              cpi R20,0
 0296 4507              cpc R20,R21
 0298 69F0              breq L57
 029A           X20:
 029A 4130              cpi R20,1
 029C E0E0              ldi R30,0
 029E 5E07              cpc R21,R30
 02A0 C1F0              breq L58
 02A2           X21:
 02A2 4230              cpi R20,2
 02A4 E0E0              ldi R30,0
 02A6 5E07              cpc R21,R30
 02A8 19F1              breq L59
 02AA           X22:
 02AA 4330              cpi R20,3
 02AC E0E0              ldi R30,0
 02AE 5E07              cpc R21,R30
 02B0 71F1              breq L60
 02B2           X23:
 02B2 20C2              xjmp L54
 02B4           L57:
 02B4                   .dbline 130
 02B4           ;                 case 0:
 02B4           ;                  Set_White_off(2,1,3);
 02B4 83E0              ldi R24,3
 02B6 8883              std y+0,R24
 02B8 21E0              ldi R18,1
 02BA 02E0              ldi R16,2
 02BC 0E940000          xcall _Set_White_off
 02C0                   .dbline 131
 02C0           ;                  Set_White(2,2,3);
 02C0 83E0              ldi R24,3
 02C2 8883              std y+0,R24
 02C4 22E0              ldi R18,2
 02C6 02E0              ldi R16,2
 02C8 0E940000          xcall _Set_White
 02CC                   .dbline 132
 02CC           ;                  cur=2;
 02CC 42E0              ldi R20,2
 02CE 50E0              ldi R21,0
 02D0                   .dbline 133
 02D0           ;                  break;
 02D0 11C2              xjmp L54
 02D2           L58:
 02D2                   .dbline 135
 02D2           ;                 case 1:
 02D2           ;                  Set_White_off(7,1,8);
 02D2 88E0              ldi R24,8
 02D4 8883              std y+0,R24
 02D6 21E0              ldi R18,1
 02D8 07E0              ldi R16,7
 02DA 0E940000          xcall _Set_White_off
 02DE                   .dbline 136
 02DE           ;                  Set_White(7,2,8);
 02DE 88E0              ldi R24,8
 02E0 8883              std y+0,R24
 02E2 22E0              ldi R18,2
 02E4 07E0              ldi R16,7
 02E6 0E940000          xcall _Set_White
 02EA                   .dbline 137
 02EA           ;                  cur=3;
 02EA 43E0              ldi R20,3
 02EC 50E0              ldi R21,0
 02EE                   .dbline 138
 02EE           ;                  break;
 02EE 02C2              xjmp L54
 02F0           L59:
 02F0                   .dbline 140
 02F0           ;                 case 2:
 02F0           ;                  Set_White_off(2,2,3);
 02F0 83E0              ldi R24,3
 02F2 8883              std y+0,R24
 02F4 22E0              ldi R18,2
 02F6 02E0              ldi R16,2
 02F8 0E940000          xcall _Set_White_off
 02FC                   .dbline 141
 02FC           ;                  Set_White(2,3,3);
 02FC 83E0              ldi R24,3
 02FE 8883              std y+0,R24
 0300 23E0              ldi R18,3
 0302 02E0              ldi R16,2
 0304 0E940000          xcall _Set_White
 0308                   .dbline 142
 0308           ;                  cur=4;
 0308 44E0              ldi R20,4
 030A 50E0              ldi R21,0
 030C                   .dbline 143
 030C           ;                  break;
 030C F3C1              xjmp L54
 030E           L60:
 030E                   .dbline 145
 030E           ;                 case 3:
 030E           ;                  Set_White_off(7,2,8);
 030E 88E0              ldi R24,8
 0310 8883              std y+0,R24
 0312 22E0              ldi R18,2
 0314 07E0              ldi R16,7
 0316 0E940000          xcall _Set_White_off
 031A                   .dbline 146
 031A           ;                  Set_White(6,3,7);
 031A 87E0              ldi R24,7
 031C 8883              std y+0,R24
 031E 23E0              ldi R18,3
 0320 06E0              ldi R16,6
 0322 0E940000          xcall _Set_White
 0326                   .dbline 147
 0326           ;                  cur=5;
 0326 45E0              ldi R20,5
 0328 50E0              ldi R21,0
 032A                   .dbline 148
 032A           ;                  break;
 032A                   .dbline 150
 032A           ;                 default:
 032A           ;                  break;
 032A                   .dbline 152
 032A           ;                }
 032A           ;       }else if(keyV=='u'){switch(cur){
 032A E4C1              xjmp L54
 032C           L53:
 032C                   .dbline 152
 032C 8A2D              mov R24,R10
 032E 8537              cpi R24,117
 0330 09F0              breq X59
 0332 61C0              xjmp L61
 0334           X59:
 0334           X24:
 0334                   .dbline 152
 0334                   .dbline 152
 0334 4230              cpi R20,2
 0336 E0E0              ldi R30,0
 0338 5E07              cpc R21,R30
 033A 91F0              breq L65
 033C           X25:
 033C 4330              cpi R20,3
 033E E0E0              ldi R30,0
 0340 5E07              cpc R21,R30
 0342 E9F0              breq L66
 0344           X26:
 0344 4430              cpi R20,4
 0346 E0E0              ldi R30,0
 0348 5E07              cpc R21,R30
 034A 41F1              breq L67
 034C           X27:
 034C 4530              cpi R20,5
 034E E0E0              ldi R30,0
 0350 5E07              cpc R21,R30
 0352 99F1              breq L68
 0354           X28:
 0354 4630              cpi R20,6
 0356 E0E0              ldi R30,0
 0358 5E07              cpc R21,R30
 035A 09F4              brne X60
 035C 3DC0              xjmp L69
 035E           X60:
 035E           X29:
 035E CAC1              xjmp L62
 0360           L65:
 0360                   .dbline 154
 0360           ;                 case 2:
 0360           ;                  Set_White_off(2,2,3);
 0360 83E0              ldi R24,3
 0362 8883              std y+0,R24
 0364 22E0              ldi R18,2
 0366 02E0              ldi R16,2
 0368 0E940000          xcall _Set_White_off
 036C                   .dbline 155
 036C           ;                  Set_White(2,1,3);
 036C 83E0              ldi R24,3
 036E 8883              std y+0,R24
 0370 21E0              ldi R18,1
 0372 02E0              ldi R16,2
 0374 0E940000          xcall _Set_White
 0378                   .dbline 156
 0378           ;                  cur=0;
 0378 4427              clr R20
 037A 5527              clr R21
 037C                   .dbline 157
 037C           ;                  break;
 037C BBC1              xjmp L62
 037E           L66:
 037E                   .dbline 159
 037E           ;                 case 3:
 037E           ;                  Set_White_off(7,2,8);
 037E 88E0              ldi R24,8
 0380 8883              std y+0,R24
 0382 22E0              ldi R18,2
 0384 07E0              ldi R16,7
 0386 0E940000          xcall _Set_White_off
 038A                   .dbline 160
 038A           ;                  Set_White(7,1,8);
 038A 88E0              ldi R24,8
 038C 8883              std y+0,R24
 038E 21E0              ldi R18,1
 0390 07E0              ldi R16,7
 0392 0E940000          xcall _Set_White
 0396                   .dbline 161
 0396           ;                  cur=1;
 0396 41E0              ldi R20,1
 0398 50E0              ldi R21,0
 039A                   .dbline 162
 039A           ;                  break;
 039A ACC1              xjmp L62
 039C           L67:
 039C                   .dbline 164
 039C           ;                 case 4:
 039C           ;                  Set_White_off(2,3,5);
 039C 85E0              ldi R24,5
 039E 8883              std y+0,R24
 03A0 23E0              ldi R18,3
 03A2 02E0              ldi R16,2
 03A4 0E940000          xcall _Set_White_off
 03A8                   .dbline 165
 03A8           ;                  Set_White(2,2,3);
 03A8 83E0              ldi R24,3
 03AA 8883              std y+0,R24
 03AC 22E0              ldi R18,2
 03AE 02E0              ldi R16,2
 03B0 0E940000          xcall _Set_White
 03B4                   .dbline 166
 03B4           ;                  cur=2;
 03B4 42E0              ldi R20,2
 03B6 50E0              ldi R21,0
 03B8                   .dbline 167
 03B8           ;                  break;
 03B8 9DC1              xjmp L62
 03BA           L68:
 03BA                   .dbline 169
 03BA           ;                 case 5:
 03BA           ;                  Set_White_off(6,3,7);
 03BA 87E0              ldi R24,7
 03BC 8883              std y+0,R24
 03BE 23E0              ldi R18,3
 03C0 06E0              ldi R16,6
 03C2 0E940000          xcall _Set_White_off
 03C6                   .dbline 170
 03C6           ;                  Set_White(7,2,8);
 03C6 88E0              ldi R24,8
 03C8 8883              std y+0,R24
 03CA 22E0              ldi R18,2
 03CC 07E0              ldi R16,7
 03CE 0E940000          xcall _Set_White
 03D2                   .dbline 171
 03D2           ;                  cur=3;
 03D2 43E0              ldi R20,3
 03D4 50E0              ldi R21,0
 03D6                   .dbline 172
 03D6           ;                  break;
 03D6 8EC1              xjmp L62
 03D8           L69:
 03D8                   .dbline 174
 03D8           ;                 case 6:
 03D8           ;                  Set_White_off(10,3,11);
 03D8 8BE0              ldi R24,11
 03DA 8883              std y+0,R24
 03DC 23E0              ldi R18,3
 03DE 0AE0              ldi R16,10
 03E0 0E940000          xcall _Set_White_off
 03E4                   .dbline 175
 03E4           ;                  Set_White(7,2,8);
 03E4 88E0              ldi R24,8
 03E6 8883              std y+0,R24
 03E8 22E0              ldi R18,2
 03EA 07E0              ldi R16,7
 03EC 0E940000          xcall _Set_White
 03F0                   .dbline 176
 03F0           ;                  cur=3;
 03F0 43E0              ldi R20,3
 03F2 50E0              ldi R21,0
 03F4                   .dbline 177
 03F4           ;                  break;
 03F4                   .dbline 179
 03F4           ;                 default:
 03F4           ;                  break;
 03F4                   .dbline 181
 03F4           ;                }
 03F4           ;       }else if(keyV=='l'){switch(cur){
 03F4 7FC1              xjmp L62
 03F6           L61:
 03F6                   .dbline 181
 03F6 8A2D              mov R24,R10
 03F8 8C36              cpi R24,108
 03FA 09F0              breq X61
 03FC 4DC0              xjmp L70
 03FE           X61:
 03FE           X30:
 03FE                   .dbline 181
 03FE                   .dbline 181
 03FE 4130              cpi R20,1
 0400 E0E0              ldi R30,0
 0402 5E07              cpc R21,R30
 0404 69F0              breq L74
 0406           X31:
 0406 4330              cpi R20,3
 0408 E0E0              ldi R30,0
 040A 5E07              cpc R21,R30
 040C C1F0              breq L75
 040E           X32:
 040E 4530              cpi R20,5
 0410 E0E0              ldi R30,0
 0412 5E07              cpc R21,R30
 0414 19F1              breq L76
 0416           X33:
 0416 4630              cpi R20,6
 0418 E0E0              ldi R30,0
 041A 5E07              cpc R21,R30
 041C 71F1              breq L77
 041E           X34:
 041E 6AC1              xjmp L71
 0420           L74:
 0420                   .dbline 183
 0420           ;                 case 1:
 0420           ;                  Set_White_off(7,1,8);
 0420 88E0              ldi R24,8
 0422 8883              std y+0,R24
 0424 21E0              ldi R18,1
 0426 07E0              ldi R16,7
 0428 0E940000          xcall _Set_White_off
 042C                   .dbline 184
 042C           ;                  Set_White(2,1,3);
 042C 83E0              ldi R24,3
 042E 8883              std y+0,R24
 0430 21E0              ldi R18,1
 0432 02E0              ldi R16,2
 0434 0E940000          xcall _Set_White
 0438                   .dbline 185
 0438           ;                  cur=0;
 0438 4427              clr R20
 043A 5527              clr R21
 043C                   .dbline 186
 043C           ;                  break;
 043C 5BC1              xjmp L71
 043E           L75:
 043E                   .dbline 188
 043E           ;                 case 3:
 043E           ;                  Set_White_off(7,2,8);
 043E 88E0              ldi R24,8
 0440 8883              std y+0,R24
 0442 22E0              ldi R18,2
 0444 07E0              ldi R16,7
 0446 0E940000          xcall _Set_White_off
 044A                   .dbline 189
 044A           ;                  Set_White(2,2,3);
 044A 83E0              ldi R24,3
 044C 8883              std y+0,R24
 044E 22E0              ldi R18,2
 0450 02E0              ldi R16,2
 0452 0E940000          xcall _Set_White
 0456                   .dbline 190
 0456           ;                  cur=2;
 0456 42E0              ldi R20,2
 0458 50E0              ldi R21,0
 045A                   .dbline 191
 045A           ;                  break;
 045A 4CC1              xjmp L71
 045C           L76:
 045C                   .dbline 193
 045C           ;                 case 5:
 045C           ;                  Set_White_off(6,3,7);
 045C 87E0              ldi R24,7
 045E 8883              std y+0,R24
 0460 23E0              ldi R18,3
 0462 06E0              ldi R16,6
 0464 0E940000          xcall _Set_White_off
 0468                   .dbline 194
 0468           ;                  Set_White(2,3,3);
 0468 83E0              ldi R24,3
 046A 8883              std y+0,R24
 046C 23E0              ldi R18,3
 046E 02E0              ldi R16,2
 0470 0E940000          xcall _Set_White
 0474                   .dbline 195
 0474           ;                  cur=4;
 0474 44E0              ldi R20,4
 0476 50E0              ldi R21,0
 0478                   .dbline 196
 0478           ;                  break;
 0478 3DC1              xjmp L71
 047A           L77:
 047A                   .dbline 198
 047A           ;                 case 6:
 047A           ;                  Set_White_off(10,3,11);
 047A 8BE0              ldi R24,11
 047C 8883              std y+0,R24
 047E 23E0              ldi R18,3
 0480 0AE0              ldi R16,10
 0482 0E940000          xcall _Set_White_off
 0486                   .dbline 199
 0486           ;                  Set_White(6,3,7);
 0486 87E0              ldi R24,7
 0488 8883              std y+0,R24
 048A 23E0              ldi R18,3
 048C 06E0              ldi R16,6
 048E 0E940000          xcall _Set_White
 0492                   .dbline 200
 0492           ;                  cur=5;
 0492 45E0              ldi R20,5
 0494 50E0              ldi R21,0
 0496                   .dbline 201
 0496           ;                  break;
 0496                   .dbline 203
 0496           ;                 default:
 0496           ;                  break;
 0496                   .dbline 205
 0496           ;                }
 0496           ;       }else if(keyV=='r'){
 0496 2EC1              xjmp L71
 0498           L70:
 0498                   .dbline 205
 0498 8A2D              mov R24,R10
 049A 8237              cpi R24,114
 049C 09F0              breq X62
 049E 4CC0              xjmp L78
 04A0           X62:
 04A0           X35:
 04A0                   .dbline 205
 04A0                   .dbline 206
 04A0           ;       switch(cur){
 04A0 4030              cpi R20,0
 04A2 4507              cpc R20,R21
 04A4 69F0              breq L82
 04A6           X36:
 04A6 4230              cpi R20,2
 04A8 E0E0              ldi R30,0
 04AA 5E07              cpc R21,R30
 04AC C1F0              breq L83
 04AE           X37:
 04AE 4430              cpi R20,4
 04B0 E0E0              ldi R30,0
 04B2 5E07              cpc R21,R30
 04B4 19F1              breq L84
 04B6           X38:
 04B6 4530              cpi R20,5
 04B8 E0E0              ldi R30,0
 04BA 5E07              cpc R21,R30
 04BC 71F1              breq L85
 04BE           X39:
 04BE 1AC1              xjmp L79
 04C0           L82:
 04C0                   .dbline 208
 04C0           ;                 case 0:
 04C0           ;                  Set_White_off(2,1,3);
 04C0 83E0              ldi R24,3
 04C2 8883              std y+0,R24
 04C4 21E0              ldi R18,1
 04C6 02E0              ldi R16,2
 04C8 0E940000          xcall _Set_White_off
 04CC                   .dbline 209
 04CC           ;                  Set_White(7,1,8);
 04CC 88E0              ldi R24,8
 04CE 8883              std y+0,R24
 04D0 21E0              ldi R18,1
 04D2 07E0              ldi R16,7
 04D4 0E940000          xcall _Set_White
 04D8                   .dbline 210
 04D8           ;                  cur=1;
 04D8 41E0              ldi R20,1
 04DA 50E0              ldi R21,0
 04DC                   .dbline 211
 04DC           ;                  break;
 04DC 0BC1              xjmp L79
 04DE           L83:
 04DE                   .dbline 213
 04DE           ;                 case 2:
 04DE           ;                  Set_White_off(2,2,3);
 04DE 83E0              ldi R24,3
 04E0 8883              std y+0,R24
 04E2 22E0              ldi R18,2
 04E4 02E0              ldi R16,2
 04E6 0E940000          xcall _Set_White_off
 04EA                   .dbline 214
 04EA           ;                  Set_White(7,2,8);
 04EA 88E0              ldi R24,8
 04EC 8883              std y+0,R24
 04EE 22E0              ldi R18,2
 04F0 07E0              ldi R16,7
 04F2 0E940000          xcall _Set_White
 04F6                   .dbline 215
 04F6           ;                  cur=3;
 04F6 43E0              ldi R20,3
 04F8 50E0              ldi R21,0
 04FA                   .dbline 216
 04FA           ;                  break;
 04FA FCC0              xjmp L79
 04FC           L84:
 04FC                   .dbline 218
 04FC           ;                 case 4:
 04FC           ;                  Set_White_off(2,3,3);
 04FC 83E0              ldi R24,3
 04FE 8883              std y+0,R24
 0500 23E0              ldi R18,3
 0502 02E0              ldi R16,2
 0504 0E940000          xcall _Set_White_off
 0508                   .dbline 219
 0508           ;                  Set_White(6,3,7);
 0508 87E0              ldi R24,7
 050A 8883              std y+0,R24
 050C 23E0              ldi R18,3
 050E 06E0              ldi R16,6
 0510 0E940000          xcall _Set_White
 0514                   .dbline 220
 0514           ;                  cur=5;
 0514 45E0              ldi R20,5
 0516 50E0              ldi R21,0
 0518                   .dbline 221
 0518           ;                  break;
 0518 EDC0              xjmp L79
 051A           L85:
 051A                   .dbline 223
 051A           ;                 case 5:
 051A           ;                  Set_White_off(6,3,7);
 051A 87E0              ldi R24,7
 051C 8883              std y+0,R24
 051E 23E0              ldi R18,3
 0520 06E0              ldi R16,6
 0522 0E940000          xcall _Set_White_off
 0526                   .dbline 224
 0526           ;                  Set_White(10,3,11);
 0526 8BE0              ldi R24,11
 0528 8883              std y+0,R24
 052A 23E0              ldi R18,3
 052C 0AE0              ldi R16,10
 052E 0E940000          xcall _Set_White
 0532                   .dbline 225
 0532           ;                  cur=6;
 0532 46E0              ldi R20,6
 0534 50E0              ldi R21,0
 0536                   .dbline 226
 0536           ;                  break;
 0536                   .dbline 228
 0536           ;                 default:
 0536           ;                  break;
 0536                   .dbline 230
 0536           ;                }
 0536           ;       }else if(keyV=='s'){
 0536 DEC0              xjmp L79
 0538           L78:
 0538                   .dbline 230
 0538 8A2D              mov R24,R10
 053A 8337              cpi R24,115
 053C 09F0              breq X63
 053E 48C0              xjmp L86
 0540           X63:
 0540           X40:
 0540                   .dbline 230
 0540                   .dbline 231
 0540           ;          pageNum=5;
 0540 85E0              ldi R24,5
 0542 90E0              ldi R25,0
 0544 90930100          sts _pageNum+1,R25
 0548 80930000          sts _pageNum,R24
 054C                   .dbline 232
 054C           ;          switch(cur){
 054C 4030              cpi R20,0
 054E 4507              cpc R20,R21
 0550 A9F0              breq L90
 0552           X41:
 0552 4130              cpi R20,1
 0554 E0E0              ldi R30,0
 0556 5E07              cpc R21,R30
 0558 C1F0              breq L91
 055A           X42:
 055A 4230              cpi R20,2
 055C E0E0              ldi R30,0
 055E 5E07              cpc R21,R30
 0560 D9F0              breq L92
 0562           X43:
 0562 4330              cpi R20,3
 0564 E0E0              ldi R30,0
 0566 5E07              cpc R21,R30
 0568 F1F0              breq L93
 056A           X44:
 056A 4530              cpi R20,5
 056C E0E0              ldi R30,0
 056E 5E07              cpc R21,R30
 0570 09F1              breq L94
 0572           X45:
 0572 4630              cpi R20,6
 0574 E0E0              ldi R30,0
 0576 5E07              cpc R21,R30
 0578 21F1              breq L95
 057A           X46:
 057A BDC0              xjmp L3
 057C           L90:
 057C                   .dbline 234
 057C           ;                case 0: 
 057C           ;                   Set_White_off(2,1,3);
 057C 83E0              ldi R24,3
 057E 8883              std y+0,R24
 0580 21E0              ldi R18,1
 0582 02E0              ldi R16,2
 0584 0E940000          xcall _Set_White_off
 0588                   .dbline 235
 0588           ;                   break;
 0588 B6C0              xjmp L3
 058A           L91:
 058A                   .dbline 237
 058A           ;                case 1:
 058A           ;                  Set_White_off(7,1,8);
 058A 88E0              ldi R24,8
 058C 8883              std y+0,R24
 058E 21E0              ldi R18,1
 0590 07E0              ldi R16,7
 0592 0E940000          xcall _Set_White_off
 0596                   .dbline 238
 0596           ;                  break;
 0596 AFC0              xjmp L3
 0598           L92:
 0598                   .dbline 240
 0598           ;                case 2:
 0598           ;                 Set_White_off(2,2,3);
 0598 83E0              ldi R24,3
 059A 8883              std y+0,R24
 059C 22E0              ldi R18,2
 059E 02E0              ldi R16,2
 05A0 0E940000          xcall _Set_White_off
 05A4                   .dbline 241
 05A4           ;                 break;
 05A4 A8C0              xjmp L3
 05A6           L93:
 05A6                   .dbline 243
 05A6           ;                case 3:
 05A6           ;                  Set_White_off(7,2,8);
 05A6 88E0              ldi R24,8
 05A8 8883              std y+0,R24
 05AA 22E0              ldi R18,2
 05AC 07E0              ldi R16,7
 05AE 0E940000          xcall _Set_White_off
 05B2                   .dbline 244
 05B2           ;                   break;
 05B2 A1C0              xjmp L3
 05B4           L94:
 05B4                   .dbline 246
 05B4           ;               case 5:
 05B4           ;                   Set_White_off(6,3,7);
 05B4 87E0              ldi R24,7
 05B6 8883              std y+0,R24
 05B8 23E0              ldi R18,3
 05BA 06E0              ldi R16,6
 05BC 0E940000          xcall _Set_White_off
 05C0                   .dbline 247
 05C0           ;                   break;
 05C0 9AC0              xjmp L3
 05C2           L95:
 05C2                   .dbline 249
 05C2           ;                case 6:
 05C2           ;                  Set_White_off(10,3,11);
 05C2 8BE0              ldi R24,11
 05C4 8883              std y+0,R24
 05C6 23E0              ldi R18,3
 05C8 0AE0              ldi R16,10
 05CA 0E940000          xcall _Set_White_off
 05CE                   .dbline 250
 05CE           ;                   break;
 05CE                   .dbline 252
 05CE           ;                 default:
 05CE           ;                  break;
 05CE                   .dbline 254
 05CE           ;                }
 05CE           ;          return ;
 05CE 93C0              xjmp L3
 05D0           L86:
 05D0                   .dbline 255
 05D0           ;       }else if(keyV=='t'){
 05D0 8A2D              mov R24,R10
 05D2 8437              cpi R24,116
 05D4 09F0              breq X64
 05D6 8EC0              xjmp L96
 05D8           X64:
 05D8           X47:
 05D8                   .dbline 255
 05D8                   .dbline 256
 05D8           ;          switch(cur){
 05D8 4030              cpi R20,0
 05DA 4507              cpc R20,R21
 05DC F1F0              breq L100
 05DE           X48:
 05DE 4130              cpi R20,1
 05E0 E0E0              ldi R30,0
 05E2 5E07              cpc R21,R30
 05E4 91F1              breq L101
 05E6           X49:
 05E6 4230              cpi R20,2
 05E8 E0E0              ldi R30,0
 05EA 5E07              cpc R21,R30
 05EC 09F4              brne X65
 05EE 43C0              xjmp L102
 05F0           X65:
 05F0           X50:
 05F0 4330              cpi R20,3
 05F2 E0E0              ldi R30,0
 05F4 5E07              cpc R21,R30
 05F6 09F4              brne X66
 05F8 55C0              xjmp L103
 05FA           X66:
 05FA           X51:
 05FA 4430              cpi R20,4
 05FC E0E0              ldi R30,0
 05FE 5E07              cpc R21,R30
 0600 09F4              brne X67
 0602 78C0              xjmp L99
 0604           X67:
 0604           X52:
 0604 4530              cpi R20,5
 0606 E0E0              ldi R30,0
 0608 5E07              cpc R21,R30
 060A 09F4              brne X68
 060C 73C0              xjmp L99
 060E           X68:
 060E           X53:
 060E 4630              cpi R20,6
 0610 E0E0              ldi R30,0
 0612 5E07              cpc R21,R30
 0614 09F4              brne X69
 0616 5CC0              xjmp L106
 0618           X69:
 0618           X54:
 0618 6DC0              xjmp L99
 061A           L100:
 061A                   .dbline 258
 061A           ;                case 0: 
 061A           ;                   Set_White_off(2,1,3);
 061A 83E0              ldi R24,3
 061C 8883              std y+0,R24
 061E 21E0              ldi R18,1
 0620 02E0              ldi R16,2
 0622 0E940000          xcall _Set_White_off
 0626                   .dbline 259
 0626           ;                   prePageNum=1;
 0626 81E0              ldi R24,1
 0628 90E0              ldi R25,0
 062A 90930100          sts _prePageNum+1,R25
 062E 80930000          sts _prePageNum,R24
 0632                   .dbline 260
 0632           ;                   pageParam[0]=0;//传递使用第一个，对应不同的温度
 0632 2224              clr R2
 0634 3324              clr R3
 0636 30920100          sts _pageParam+1,R3
 063A 20920000          sts _pageParam,R2
 063E                   .dbline 261
 063E           ;                   pageNum=3;
 063E 83E0              ldi R24,3
 0640 90930100          sts _pageNum+1,R25
 0644 80930000          sts _pageNum,R24
 0648                   .dbline 262
 0648           ;                   return;
 0648 56C0              xjmp L3
 064A           L101:
 064A                   .dbline 264
 064A           ;                case 1:
 064A           ;                  Set_White_off(7,1,8);
 064A 88E0              ldi R24,8
 064C 8883              std y+0,R24
 064E 21E0              ldi R18,1
 0650 07E0              ldi R16,7
 0652 0E940000          xcall _Set_White_off
 0656                   .dbline 265
 0656           ;                   prePageNum=1;
 0656 81E0              ldi R24,1
 0658 90E0              ldi R25,0
 065A 90930100          sts _prePageNum+1,R25
 065E 80930000          sts _prePageNum,R24
 0662                   .dbline 266
 0662           ;                  pageParam[0]=1;//传递使用第一个，对应不同的温度
 0662 90930100          sts _pageParam+1,R25
 0666 80930000          sts _pageParam,R24
 066A                   .dbline 267
 066A           ;                   pageNum=3;
 066A 83E0              ldi R24,3
 066C 90930100          sts _pageNum+1,R25
 0670 80930000          sts _pageNum,R24
 0674                   .dbline 268
 0674           ;                   return;
 0674 40C0              xjmp L3
 0676           L102:
 0676                   .dbline 270
 0676           ;                case 2:
 0676           ;                 Set_White_off(2,2,3);
 0676 83E0              ldi R24,3
 0678 8883              std y+0,R24
 067A 22E0              ldi R18,2
 067C 02E0              ldi R16,2
 067E 0E940000          xcall _Set_White_off
 0682                   .dbline 271
 0682           ;                   prePageNum=1;
 0682 81E0              ldi R24,1
 0684 90E0              ldi R25,0
 0686 90930100          sts _prePageNum+1,R25
 068A 80930000          sts _prePageNum,R24
 068E                   .dbline 272
 068E           ;                   pageParam[0]=2;//传递使用第一个，对应不同的温度
 068E 82E0              ldi R24,2
 0690 90930100          sts _pageParam+1,R25
 0694 80930000          sts _pageParam,R24
 0698                   .dbline 273
 0698           ;                  pageNum=3;
 0698 83E0              ldi R24,3
 069A 90930100          sts _pageNum+1,R25
 069E 80930000          sts _pageNum,R24
 06A2                   .dbline 274
 06A2           ;                  return;
 06A2 29C0              xjmp L3
 06A4           L103:
 06A4                   .dbline 276
 06A4           ;                case 3:
 06A4           ;                  Set_White_off(7,2,8);
 06A4 88E0              ldi R24,8
 06A6 8883              std y+0,R24
 06A8 22E0              ldi R18,2
 06AA 07E0              ldi R16,7
 06AC 0E940000          xcall _Set_White_off
 06B0                   .dbline 277
 06B0           ;                    prePageNum=1;
 06B0 81E0              ldi R24,1
 06B2 90E0              ldi R25,0
 06B4 90930100          sts _prePageNum+1,R25
 06B8 80930000          sts _prePageNum,R24
 06BC                   .dbline 278
 06BC           ;                   pageParam[0]=3;//传递使用第一个，对应不同的温度
 06BC 83E0              ldi R24,3
 06BE 90930100          sts _pageParam+1,R25
 06C2 80930000          sts _pageParam,R24
 06C6                   .dbline 279
 06C6           ;                   pageNum=3;
 06C6 90930100          sts _pageNum+1,R25
 06CA 80930000          sts _pageNum,R24
 06CE                   .dbline 280
 06CE           ;                   return;
 06CE 13C0              xjmp L3
 06D0           L106:
 06D0                   .dbline 288
 06D0           ;                case 4:
 06D0           ;                   //调用函数全部开始，参数正确的
 06D0           ;                  break;
 06D0           ;                case 5:
 06D0           ;                   //全部停止
 06D0           ;                  break;
 06D0           ;                case 6:
 06D0           ;                  Set_White_off(10,3,11);
 06D0 8BE0              ldi R24,11
 06D2 8883              std y+0,R24
 06D4 23E0              ldi R18,3
 06D6 0AE0              ldi R16,10
 06D8 0E940000          xcall _Set_White_off
 06DC                   .dbline 289
 06DC           ;                   prePageNum=1;
 06DC 81E0              ldi R24,1
 06DE 90E0              ldi R25,0
 06E0 90930100          sts _prePageNum+1,R25
 06E4 80930000          sts _prePageNum,R24
 06E8                   .dbline 290
 06E8           ;                  pageNum=5;
 06E8 85E0              ldi R24,5
 06EA 90930100          sts _pageNum+1,R25
 06EE 80930000          sts _pageNum,R24
 06F2                   .dbline 291
 06F2           ;                   return;
 06F2 01C0              xjmp L3
 06F4           L99:
 06F4                   .dbline 296
 06F4           ;                 default:
 06F4           ;                  break;
 06F4           ;                }
 06F4           ;       
 06F4           ;       }
 06F4           L96:
 06F4           L79:
 06F4           L71:
 06F4           L62:
 06F4           L54:
 06F4                   .dbline 297
 06F4           ;   }
 06F4           L12:
 06F4                   .dbline 57
 06F4 F0CC              xjmp L11
 06F6           X55:
 06F6                   .dbline -2
 06F6           L3:
 06F6                   .dbline 0 ; func end
 06F6 2296              adiw R28,2
 06F8 0C940000          xjmp pop_xgsetF03C
 06FC                   .dbsym r cur 20 i
 06FC                   .dbsym r keyV 10 c
 06FC                   .dbsym r y 22 i
 06FC                   .dbsym r i 10 i
 06FC                   .dbend
 06FC                   .dbfunc e page2 _page2 fV
 06FC           ;            cur -> R20,R21
 06FC           ;           keyV -> R10
                        .even
 06FC           _page2::
 06FC 0E940000          xcall push_xgsetF00C
 0700 2297              sbiw R28,2
 0702                   .dbline -1
 0702                   .dbline 300
 0702           ;    return;
 0702           ; }
 0702           ;  void page2(void){
 0702                   .dbline 301
 0702           ;    uint cur=0;
 0702 4427              clr R20
 0704 5527              clr R21
 0706                   .dbline 304
 0706           ;    uchar keyV;
 0706           ;    //初始画面，会有读取EEPROM的判断默认操作，本次只是画界面
 0706           ;    lcd_write_str(2,0,"是否恢复上次工作");
 0706 80E0              ldi R24,<L108
 0708 90E0              ldi R25,>L108
 070A 9983              std y+1,R25
 070C 8883              std y+0,R24
 070E 2227              clr R18
 0710 02E0              ldi R16,2
 0712 0E940000          xcall _lcd_write_str
 0716                   .dbline 305
 0716           ;    lcd_write_str(2,2,"恢复");
 0716 80E0              ldi R24,<L109
 0718 90E0              ldi R25,>L109
 071A 9983              std y+1,R25
 071C 8883              std y+0,R24
 071E 22E0              ldi R18,2
 0720 02E0              ldi R16,2
 0722 0E940000          xcall _lcd_write_str
 0726                   .dbline 306
 0726           ;    lcd_write_str(8,2,"取消");
 0726 80E0              ldi R24,<L110
 0728 90E0              ldi R25,>L110
 072A 9983              std y+1,R25
 072C 8883              std y+0,R24
 072E 22E0              ldi R18,2
 0730 08E0              ldi R16,8
 0732 0E940000          xcall _lcd_write_str
 0736                   .dbline 307
 0736           ;    Set_White(3,2,4);
 0736 84E0              ldi R24,4
 0738 8883              std y+0,R24
 073A 22E0              ldi R18,2
 073C 03E0              ldi R16,3
 073E 0E940000          xcall _Set_White
 0742 4FC0              xjmp L112
 0744           L111:
 0744                   .dbline 308
 0744           ;     while(1){
 0744                   .dbline 309
 0744           ;       keyV=KeyScan_once();
 0744 0E940000          xcall _KeyScan_once
 0748 A02E              mov R10,R16
 074A                   .dbline 310
 074A           ;         switch(keyV){
 074A 6A2D              mov R22,R10
 074C 7727              clr R23
 074E 6C36              cpi R22,108
 0750 E0E0              ldi R30,0
 0752 7E07              cpc R23,R30
 0754 71F0              breq L117
 0756           X70:
 0756 6C36              cpi R22,108
 0758 E0E0              ldi R30,0
 075A 7E07              cpc R23,R30
 075C 0CF4              brge X77
 075E 41C0              xjmp L114
 0760           X77:
 0760           X71:
 0760           L124:
 0760 6237              cpi R22,114
 0762 E0E0              ldi R30,0
 0764 7E07              cpc R23,R30
 0766 C1F0              breq L120
 0768           X72:
 0768 6437              cpi R22,116
 076A E0E0              ldi R30,0
 076C 7E07              cpc R23,R30
 076E 31F1              breq L123
 0770           X73:
 0770 38C0              xjmp L114
 0772           L117:
 0772                   .dbline 312
 0772           ;           case 'l':
 0772           ;                  if(cur==1){
 0772 4130              cpi R20,1
 0774 E0E0              ldi R30,0
 0776 5E07              cpc R21,R30
 0778 A1F5              brne L115
 077A           X74:
 077A                   .dbline 312
 077A                   .dbline 313
 077A           ;                     Set_White_off(9,2,10);
 077A 8AE0              ldi R24,10
 077C 8883              std y+0,R24
 077E 22E0              ldi R18,2
 0780 09E0              ldi R16,9
 0782 0E940000          xcall _Set_White_off
 0786                   .dbline 314
 0786           ;                     Set_White(3,2,4);
 0786 84E0              ldi R24,4
 0788 8883              std y+0,R24
 078A 22E0              ldi R18,2
 078C 03E0              ldi R16,3
 078E 0E940000          xcall _Set_White
 0792                   .dbline 315
 0792           ;                         cur=1;
 0792 41E0              ldi R20,1
 0794 50E0              ldi R21,0
 0796                   .dbline 316
 0796           ;                  }
 0796                   .dbline 317
 0796           ;                  break;
 0796 25C0              xjmp L115
 0798           L120:
 0798                   .dbline 319
 0798           ;               case 'r':
 0798           ;                  if(cur==0){
 0798 4030              cpi R20,0
 079A 4507              cpc R20,R21
 079C 11F5              brne L115
 079E           X75:
 079E                   .dbline 319
 079E                   .dbline 320
 079E           ;                     Set_White_off(3,2,4);
 079E 84E0              ldi R24,4
 07A0 8883              std y+0,R24
 07A2 22E0              ldi R18,2
 07A4 03E0              ldi R16,3
 07A6 0E940000          xcall _Set_White_off
 07AA                   .dbline 321
 07AA           ;                     Set_White(9,2,10);
 07AA 8AE0              ldi R24,10
 07AC 8883              std y+0,R24
 07AE 22E0              ldi R18,2
 07B0 09E0              ldi R16,9
 07B2 0E940000          xcall _Set_White
 07B6                   .dbline 322
 07B6           ;                         cur=0;
 07B6 4427              clr R20
 07B8 5527              clr R21
 07BA                   .dbline 323
 07BA           ;                  }
 07BA                   .dbline 324
 07BA           ;                 break;
 07BA 13C0              xjmp L115
 07BC           L123:
 07BC                   .dbline 327
 07BC           ;               case 't':
 07BC           ;                 //执行相关操作
 07BC           ;                  Set_White_off(9,2,10);
 07BC 8AE0              ldi R24,10
 07BE 8883              std y+0,R24
 07C0 22E0              ldi R18,2
 07C2 09E0              ldi R16,9
 07C4 0E940000          xcall _Set_White_off
 07C8                   .dbline 328
 07C8           ;                   Set_White_off(3,2,4);
 07C8 84E0              ldi R24,4
 07CA 8883              std y+0,R24
 07CC 22E0              ldi R18,2
 07CE 03E0              ldi R16,3
 07D0 0E940000          xcall _Set_White_off
 07D4                   .dbline 329
 07D4           ;                 pageNum=1;
 07D4 81E0              ldi R24,1
 07D6 90E0              ldi R25,0
 07D8 90930100          sts _pageNum+1,R25
 07DC 80930000          sts _pageNum,R24
 07E0                   .dbline 330
 07E0           ;                 return;
 07E0 01C0              xjmp L107
 07E2           L114:
 07E2           L115:
 07E2                   .dbline 332
 07E2           ;         }
 07E2           ;       }
 07E2           L112:
 07E2                   .dbline 308
 07E2 B0CF              xjmp L111
 07E4           X76:
 07E4                   .dbline -2
 07E4           L107:
 07E4                   .dbline 0 ; func end
 07E4 2296              adiw R28,2
 07E6 0C940000          xjmp pop_xgsetF00C
 07EA                   .dbsym r cur 20 i
 07EA                   .dbsym r keyV 10 c
 07EA                   .dbend
 07EA                   .dbfunc e page3 _page3 fV
 07EA           ;            cur -> R10,R11
 07EA           ;           keyV -> R20
                        .even
 07EA           _page3::
 07EA 0E940000          xcall push_xgset300C
 07EE 2297              sbiw R28,2
 07F0                   .dbline -1
 07F0                   .dbline 334
 07F0           ;  }
 07F0           ;  void page3(void){
 07F0                   .dbline 335
 07F0           ;   uint cur=0;
 07F0 AA24              clr R10
 07F2 BB24              clr R11
 07F4                   .dbline 337
 07F4           ;    uchar keyV;
 07F4           ;    lcd_write_str(2,0,"单个温控界面");
 07F4 80E0              ldi R24,<L126
 07F6 90E0              ldi R25,>L126
 07F8 9983              std y+1,R25
 07FA 8883              std y+0,R24
 07FC 2227              clr R18
 07FE 02E0              ldi R16,2
 0800 0E940000          xcall _lcd_write_str
 0804 0CC0              xjmp L128
 0806           L127:
 0806                   .dbline 339
 0806           ;    //Set_White(9,2,10);
 0806           ;     while(1){
 0806                   .dbline 340
 0806           ;       keyV=KeyScan_once();
 0806 0E940000          xcall _KeyScan_once
 080A 402F              mov R20,R16
 080C                   .dbline 341
 080C           ;         if(keyV=='e'){
 080C 0536              cpi R16,101
 080E 39F4              brne L130
 0810           X78:
 0810                   .dbline 341
 0810                   .dbline 342
 0810           ;                   pageNum=1;
 0810 81E0              ldi R24,1
 0812 90E0              ldi R25,0
 0814 90930100          sts _pageNum+1,R25
 0818 80930000          sts _pageNum,R24
 081C                   .dbline 343
 081C           ;                   return;
 081C 01C0              xjmp L125
 081E           L130:
 081E                   .dbline 345
 081E           ;         }
 081E           ;       }
 081E           L128:
 081E                   .dbline 339
 081E F3CF              xjmp L127
 0820           X79:
 0820                   .dbline -2
 0820           L125:
 0820                   .dbline 0 ; func end
 0820 2296              adiw R28,2
 0822 0C940000          xjmp pop_xgset300C
 0826                   .dbsym r cur 10 i
 0826                   .dbsym r keyV 20 c
 0826                   .dbend
 0826                   .dbfunc e page4 _page4 fV
 0826           ;            cur -> R10,R11
 0826           ;           keyV -> R20
                        .even
 0826           _page4::
 0826 0E940000          xcall push_xgset300C
 082A 2297              sbiw R28,2
 082C                   .dbline -1
 082C                   .dbline 347
 082C           ;  }
 082C           ;   void page4(void){
 082C                   .dbline 348
 082C           ;     uint cur=0;
 082C AA24              clr R10
 082E BB24              clr R11
 0830                   .dbline 350
 0830           ;    uchar keyV;
 0830           ;    lcd_write_str(2,0,"单个温控设置界面");
 0830 80E0              ldi R24,<L133
 0832 90E0              ldi R25,>L133
 0834 9983              std y+1,R25
 0836 8883              std y+0,R24
 0838 2227              clr R18
 083A 02E0              ldi R16,2
 083C 0E940000          xcall _lcd_write_str
 0840 0CC0              xjmp L135
 0842           L134:
 0842                   .dbline 352
 0842           ;    //Set_White(9,2,10);
 0842           ;     while(1){
 0842                   .dbline 353
 0842           ;       keyV=KeyScan_once();
 0842 0E940000          xcall _KeyScan_once
 0846 402F              mov R20,R16
 0848                   .dbline 354
 0848           ;         if(keyV=='e'){
 0848 0536              cpi R16,101
 084A 39F4              brne L137
 084C           X80:
 084C                   .dbline 354
 084C                   .dbline 355
 084C           ;                   pageNum=3;
 084C 83E0              ldi R24,3
 084E 90E0              ldi R25,0
 0850 90930100          sts _pageNum+1,R25
 0854 80930000          sts _pageNum,R24
 0858                   .dbline 356
 0858           ;                   return;
 0858 01C0              xjmp L132
 085A           L137:
 085A                   .dbline 358
 085A           ;         }
 085A           ;       }
 085A           L135:
 085A                   .dbline 352
 085A F3CF              xjmp L134
 085C           X81:
 085C                   .dbline -2
 085C           L132:
 085C                   .dbline 0 ; func end
 085C 2296              adiw R28,2
 085E 0C940000          xjmp pop_xgset300C
 0862                   .dbsym r cur 10 i
 0862                   .dbsym r keyV 20 c
 0862                   .dbend
 0862                   .dbfunc e page5 _page5 fV
 0862           ;            cur -> R20,R21
 0862           ;           keyV -> R22
                        .even
 0862           _page5::
 0862 0E940000          xcall push_xgsetF000
 0866 2297              sbiw R28,2
 0868                   .dbline -1
 0868                   .dbline 360
 0868           ;  }
 0868           ;  void page5(void){
 0868                   .dbline 361
 0868           ;   uint cur=0;
 0868                   .dbline 363
 0868           ;    uchar keyV;
 0868           ;    lcd_write_str(4,0,"断电自动重置");
 0868 80E0              ldi R24,<L140
 086A 90E0              ldi R25,>L140
 086C 9983              std y+1,R25
 086E 8883              std y+0,R24
 0870 2227              clr R18
 0872 04E0              ldi R16,4
 0874 0E940000          xcall _lcd_write_str
 0878                   .dbline 364
 0878           ;    lcd_write_str(4,1,"设置时间");
 0878 80E0              ldi R24,<L141
 087A 90E0              ldi R25,>L141
 087C 9983              std y+1,R25
 087E 8883              std y+0,R24
 0880 21E0              ldi R18,1
 0882 04E0              ldi R16,4
 0884 0E940000          xcall _lcd_write_str
 0888                   .dbline 365
 0888           ;    lcd_write_str(4,2,"重置系统");
 0888 80E0              ldi R24,<L142
 088A 90E0              ldi R25,>L142
 088C 9983              std y+1,R25
 088E 8883              std y+0,R24
 0890 22E0              ldi R18,2
 0892 04E0              ldi R16,4
 0894 0E940000          xcall _lcd_write_str
 0898                   .dbline 366
 0898           ;    lcd_write_char(3,0,0xA1);
 0898 81EA              ldi R24,161
 089A 8883              std y+0,R24
 089C 2227              clr R18
 089E 03E0              ldi R16,3
 08A0 0E940000          xcall _lcd_write_char
 08A4                   .dbline 367
 08A4           ;    lcd_write_char_con(0,0xC1);
 08A4 21EC              ldi R18,193
 08A6 0027              clr R16
 08A8 0E940000          xcall _lcd_write_char_con
 08AC                   .dbline 371
 08AC           ;    
 08AC           ;    /* lcd_write_char(1,0,0xA1);
 08AC           ;    lcd_write_char_con(0,0xCC);*/
 08AC           ;    cur=0;
 08AC 4427              clr R20
 08AE 5527              clr R21
 08B0                   .dbline 372
 08B0           ;    Set_White(5,0,10);
 08B0 8AE0              ldi R24,10
 08B2 8883              std y+0,R24
 08B4 2227              clr R18
 08B6 05E0              ldi R16,5
 08B8 0E940000          xcall _Set_White
 08BC A4C0              xjmp L144
 08BE           L143:
 08BE                   .dbline 373
 08BE           ;    while(1){
 08BE                   .dbline 374
 08BE           ;       keyV=KeyScan_once();
 08BE 0E940000          xcall _KeyScan_once
 08C2 602F              mov R22,R16
 08C4                   .dbline 375
 08C4           ;         if(keyV=='u'){
 08C4 0537              cpi R16,117
 08C6 39F5              brne L146
 08C8           X82:
 08C8                   .dbline 375
 08C8                   .dbline 376
 08C8           ;           switch(cur){
 08C8 4130              cpi R20,1
 08CA E0E0              ldi R30,0
 08CC 5E07              cpc R21,R30
 08CE 29F0              breq L150
 08D0           X83:
 08D0 4230              cpi R20,2
 08D2 E0E0              ldi R30,0
 08D4 5E07              cpc R21,R30
 08D6 81F0              breq L151
 08D8           X84:
 08D8 96C0              xjmp L147
 08DA           L150:
 08DA                   .dbline 378
 08DA           ;                 case 1:
 08DA           ;                  Set_White_off(5,1,8);
 08DA 88E0              ldi R24,8
 08DC 8883              std y+0,R24
 08DE 21E0              ldi R18,1
 08E0 05E0              ldi R16,5
 08E2 0E940000          xcall _Set_White_off
 08E6                   .dbline 379
 08E6           ;                  Set_White(5,0,10);
 08E6 8AE0              ldi R24,10
 08E8 8883              std y+0,R24
 08EA 2227              clr R18
 08EC 05E0              ldi R16,5
 08EE 0E940000          xcall _Set_White
 08F2                   .dbline 380
 08F2           ;                  cur=0;
 08F2 4427              clr R20
 08F4 5527              clr R21
 08F6                   .dbline 381
 08F6           ;                  break;
 08F6 87C0              xjmp L147
 08F8           L151:
 08F8                   .dbline 383
 08F8           ;                 case 2: 
 08F8           ;                  Set_White_off(5,2,8);
 08F8 88E0              ldi R24,8
 08FA 8883              std y+0,R24
 08FC 22E0              ldi R18,2
 08FE 05E0              ldi R16,5
 0900 0E940000          xcall _Set_White_off
 0904                   .dbline 384
 0904           ;                  Set_White(5,1,8);
 0904 88E0              ldi R24,8
 0906 8883              std y+0,R24
 0908 21E0              ldi R18,1
 090A 05E0              ldi R16,5
 090C 0E940000          xcall _Set_White
 0910                   .dbline 385
 0910           ;                  cur=1;
 0910 41E0              ldi R20,1
 0912 50E0              ldi R21,0
 0914                   .dbline 386
 0914           ;                  break;
 0914                   .dbline 388
 0914           ;               }
 0914           ;         }else if(keyV=='d'){
 0914 78C0              xjmp L147
 0916           L146:
 0916                   .dbline 388
 0916 6436              cpi R22,100
 0918 31F5              brne L152
 091A           X85:
 091A                   .dbline 388
 091A                   .dbline 389
 091A           ;             switch(cur){
 091A 4030              cpi R20,0
 091C 4507              cpc R20,R21
 091E 29F0              breq L156
 0920           X86:
 0920 4130              cpi R20,1
 0922 E0E0              ldi R30,0
 0924 5E07              cpc R21,R30
 0926 81F0              breq L157
 0928           X87:
 0928 6EC0              xjmp L153
 092A           L156:
 092A                   .dbline 391
 092A           ;                 case 0:
 092A           ;                  Set_White_off(5,0,10);
 092A 8AE0              ldi R24,10
 092C 8883              std y+0,R24
 092E 2227              clr R18
 0930 05E0              ldi R16,5
 0932 0E940000          xcall _Set_White_off
 0936                   .dbline 392
 0936           ;                  Set_White(5,1,8);
 0936 88E0              ldi R24,8
 0938 8883              std y+0,R24
 093A 21E0              ldi R18,1
 093C 05E0              ldi R16,5
 093E 0E940000          xcall _Set_White
 0942                   .dbline 393
 0942           ;                  cur=1;
 0942 41E0              ldi R20,1
 0944 50E0              ldi R21,0
 0946                   .dbline 394
 0946           ;                  break;
 0946 5FC0              xjmp L153
 0948           L157:
 0948                   .dbline 396
 0948           ;                 case 1: 
 0948           ;                  Set_White_off(5,1,8);
 0948 88E0              ldi R24,8
 094A 8883              std y+0,R24
 094C 21E0              ldi R18,1
 094E 05E0              ldi R16,5
 0950 0E940000          xcall _Set_White_off
 0954                   .dbline 397
 0954           ;                  Set_White(5,2,8);
 0954 88E0              ldi R24,8
 0956 8883              std y+0,R24
 0958 22E0              ldi R18,2
 095A 05E0              ldi R16,5
 095C 0E940000          xcall _Set_White
 0960                   .dbline 398
 0960           ;                  cur=2;
 0960 42E0              ldi R20,2
 0962 50E0              ldi R21,0
 0964                   .dbline 399
 0964           ;                  break;
 0964                   .dbline 401
 0964           ;               }
 0964           ;         }else if(keyV=='e'){
 0964 50C0              xjmp L153
 0966           L152:
 0966                   .dbline 401
 0966 6536              cpi R22,101
 0968 39F5              brne L158
 096A           X88:
 096A                   .dbline 401
 096A                   .dbline 402
 096A           ;            switch(cur){
 096A 4030              cpi R20,0
 096C 4507              cpc R20,R21
 096E 49F0              breq L162
 0970           X89:
 0970 4130              cpi R20,1
 0972 E0E0              ldi R30,0
 0974 5E07              cpc R21,R30
 0976 61F0              breq L163
 0978           X90:
 0978 4230              cpi R20,2
 097A E0E0              ldi R30,0
 097C 5E07              cpc R21,R30
 097E 79F0              breq L164
 0980           X91:
 0980 14C0              xjmp L161
 0982           L162:
 0982                   .dbline 404
 0982           ;                case 0: 
 0982           ;                  Set_White_off(5,0,10);
 0982 8AE0              ldi R24,10
 0984 8883              std y+0,R24
 0986 2227              clr R18
 0988 05E0              ldi R16,5
 098A 0E940000          xcall _Set_White_off
 098E                   .dbline 405
 098E           ;                   break;
 098E 0DC0              xjmp L161
 0990           L163:
 0990                   .dbline 407
 0990           ;                case 1:
 0990           ;                  Set_White_off(5,1,8);
 0990 88E0              ldi R24,8
 0992 8883              std y+0,R24
 0994 21E0              ldi R18,1
 0996 05E0              ldi R16,5
 0998 0E940000          xcall _Set_White_off
 099C                   .dbline 408
 099C           ;                  break;
 099C 06C0              xjmp L161
 099E           L164:
 099E                   .dbline 410
 099E           ;                case 2:
 099E           ;                 Set_White_off(5,2,8);
 099E 88E0              ldi R24,8
 09A0 8883              std y+0,R24
 09A2 22E0              ldi R18,2
 09A4 05E0              ldi R16,5
 09A6 0E940000          xcall _Set_White_off
 09AA                   .dbline 411
 09AA           ;                 break;
 09AA                   .dbline 414
 09AA           ;       
 09AA           ;                 default:
 09AA           ;                  break;
 09AA           L161:
 09AA                   .dbline 416
 09AA           ;                }
 09AA           ;           pageNum=1;
 09AA 81E0              ldi R24,1
 09AC 90E0              ldi R25,0
 09AE 90930100          sts _pageNum+1,R25
 09B2 80930000          sts _pageNum,R24
 09B6                   .dbline 417
 09B6           ;               return;
 09B6 28C0              xjmp L139
 09B8           L158:
 09B8                   .dbline 418
 09B8           ;         }else if(keyV=='t'){
 09B8 6437              cpi R22,116
 09BA 29F5              brne L165
 09BC           X92:
 09BC                   .dbline 418
 09BC                   .dbline 419
 09BC           ;           switch(cur){
 09BC 4030              cpi R20,0
 09BE 4507              cpc R20,R21
 09C0 11F1              breq L168
 09C2           X93:
 09C2 4130              cpi R20,1
 09C4 E0E0              ldi R30,0
 09C6 5E07              cpc R21,R30
 09C8 29F0              breq L170
 09CA           X94:
 09CA 4230              cpi R20,2
 09CC E0E0              ldi R30,0
 09CE 5E07              cpc R21,R30
 09D0 69F0              breq L171
 09D2           X95:
 09D2 19C0              xjmp L167
 09D4           L170:
 09D4                   .dbline 424
 09D4           ;                 case 0:
 09D4           ;                    //执行EEPROM操作
 09D4           ;                   break;
 09D4           ;                 case 1:
 09D4           ;                  pageNum=8;
 09D4 88E0              ldi R24,8
 09D6 90E0              ldi R25,0
 09D8 90930100          sts _pageNum+1,R25
 09DC 80930000          sts _pageNum,R24
 09E0                   .dbline 425
 09E0           ;                  Set_White_off(5,1,8);
 09E0 8883              std y+0,R24
 09E2 21E0              ldi R18,1
 09E4 05E0              ldi R16,5
 09E6 0E940000          xcall _Set_White_off
 09EA                   .dbline 426
 09EA           ;                  return;
 09EA 0EC0              xjmp L139
 09EC           L171:
 09EC                   .dbline 429
 09EC           ;                 
 09EC           ;                 case 2:
 09EC           ;                   pageNum=7;
 09EC 87E0              ldi R24,7
 09EE 90E0              ldi R25,0
 09F0 90930100          sts _pageNum+1,R25
 09F4 80930000          sts _pageNum,R24
 09F8                   .dbline 430
 09F8           ;                   Set_White_off(5,2,8);
 09F8 88E0              ldi R24,8
 09FA 8883              std y+0,R24
 09FC 22E0              ldi R18,2
 09FE 05E0              ldi R16,5
 0A00 0E940000          xcall _Set_White_off
 0A04                   .dbline 431
 0A04           ;                  return;
 0A04 01C0              xjmp L139
 0A06           L167:
 0A06           L168:
 0A06                   .dbline 434
 0A06           ;               }
 0A06           ;           
 0A06           ;         }
 0A06           L165:
 0A06           L153:
 0A06           L147:
 0A06                   .dbline 435
 0A06           ;    }
 0A06           L144:
 0A06                   .dbline 373
 0A06 5BCF              xjmp L143
 0A08           X96:
 0A08                   .dbline -2
 0A08           L139:
 0A08                   .dbline 0 ; func end
 0A08 2296              adiw R28,2
 0A0A 0C940000          xjmp pop_xgsetF000
 0A0E                   .dbsym r cur 20 i
 0A0E                   .dbsym r keyV 22 c
 0A0E                   .dbend
 0A0E                   .dbfunc e page6 _page6 fV
                        .even
 0A0E           _page6::
 0A0E 2297              sbiw R28,2
 0A10                   .dbline -1
 0A10                   .dbline 438
 0A10           ;    
 0A10           ;  }
 0A10           ;  void page6(void){//复用的方法
 0A10                   .dbline 439
 0A10           ;    lcd_write_str(5,1,"保存成功！");
 0A10 80E0              ldi R24,<L173
 0A12 90E0              ldi R25,>L173
 0A14 9983              std y+1,R25
 0A16 8883              std y+0,R24
 0A18 21E0              ldi R18,1
 0A1A 05E0              ldi R16,5
 0A1C 0E940000          xcall _lcd_write_str
 0A20                   .dbline 440
 0A20           ;    delay_ms(500);
 0A20 04EF              ldi R16,500
 0A22 11E0              ldi R17,1
 0A24 0E940000          xcall _delay_ms
 0A28                   .dbline 441
 0A28           ;    pageNum=prePageNum;
 0A28 20900000          lds R2,_prePageNum
 0A2C 30900100          lds R3,_prePageNum+1
 0A30 30920100          sts _pageNum+1,R3
 0A34 20920000          sts _pageNum,R2
 0A38                   .dbline -2
 0A38           L172:
 0A38                   .dbline 0 ; func end
 0A38 2296              adiw R28,2
 0A3A 0895              ret
 0A3C                   .dbend
 0A3C                   .dbfunc e page7 _page7 fV
 0A3C           ;            cur -> R20,R21
 0A3C           ;           keyV -> R10
                        .even
 0A3C           _page7::
 0A3C 0E940000          xcall push_xgsetF00C
 0A40 2297              sbiw R28,2
 0A42                   .dbline -1
 0A42                   .dbline 443
 0A42           ;  }
 0A42           ;  void page7(void){
 0A42                   .dbline 444
 0A42           ;    uint cur=1;
 0A42 41E0              ldi R20,1
 0A44 50E0              ldi R21,0
 0A46                   .dbline 446
 0A46           ;    uchar keyV;
 0A46           ;    lcd_write_str(2,0,"是否重置");
 0A46 80E0              ldi R24,<L175
 0A48 90E0              ldi R25,>L175
 0A4A 9983              std y+1,R25
 0A4C 8883              std y+0,R24
 0A4E 2227              clr R18
 0A50 02E0              ldi R16,2
 0A52 0E940000          xcall _lcd_write_str
 0A56                   .dbline 447
 0A56           ;    lcd_write_str(2,2,"确认");
 0A56 80E0              ldi R24,<L176
 0A58 90E0              ldi R25,>L176
 0A5A 9983              std y+1,R25
 0A5C 8883              std y+0,R24
 0A5E 22E0              ldi R18,2
 0A60 02E0              ldi R16,2
 0A62 0E940000          xcall _lcd_write_str
 0A66                   .dbline 448
 0A66           ;    lcd_write_str(8,2,"取消");
 0A66 80E0              ldi R24,<L110
 0A68 90E0              ldi R25,>L110
 0A6A 9983              std y+1,R25
 0A6C 8883              std y+0,R24
 0A6E 22E0              ldi R18,2
 0A70 08E0              ldi R16,8
 0A72 0E940000          xcall _lcd_write_str
 0A76                   .dbline 449
 0A76           ;    Set_White(9,2,10);
 0A76 8AE0              ldi R24,10
 0A78 8883              std y+0,R24
 0A7A 22E0              ldi R18,2
 0A7C 09E0              ldi R16,9
 0A7E 0E940000          xcall _Set_White
 0A82 74C0              xjmp L178
 0A84           L177:
 0A84                   .dbline 450
 0A84           ;     while(1){
 0A84                   .dbline 451
 0A84           ;       keyV=KeyScan_once();
 0A84 0E940000          xcall _KeyScan_once
 0A88 A02E              mov R10,R16
 0A8A                   .dbline 452
 0A8A           ;         switch(keyV){
 0A8A 6A2D              mov R22,R10
 0A8C 7727              clr R23
 0A8E 6C36              cpi R22,108
 0A90 E0E0              ldi R30,0
 0A92 7E07              cpc R23,R30
 0A94 A1F0              breq L183
 0A96           X97:
 0A96 8CE6              ldi R24,108
 0A98 90E0              ldi R25,0
 0A9A 8617              cp R24,R22
 0A9C 9707              cpc R25,R23
 0A9E 34F0              brlt L194
 0AA0           X98:
 0AA0           L193:
 0AA0 6536              cpi R22,101
 0AA2 E0E0              ldi R30,0
 0AA4 7E07              cpc R23,R30
 0AA6 09F4              brne X106
 0AA8 4EC0              xjmp L192
 0AAA           X106:
 0AAA           X99:
 0AAA 60C0              xjmp L180
 0AAC           L194:
 0AAC 6237              cpi R22,114
 0AAE E0E0              ldi R30,0
 0AB0 7E07              cpc R23,R30
 0AB2 C9F0              breq L186
 0AB4           X100:
 0AB4 6437              cpi R22,116
 0AB6 E0E0              ldi R30,0
 0AB8 7E07              cpc R23,R30
 0ABA 41F1              breq L189
 0ABC           X101:
 0ABC 57C0              xjmp L180
 0ABE           L183:
 0ABE                   .dbline 454
 0ABE           ;           case 'l':
 0ABE           ;                  if(cur==1){
 0ABE 4130              cpi R20,1
 0AC0 E0E0              ldi R30,0
 0AC2 5E07              cpc R21,R30
 0AC4 09F0              breq X107
 0AC6 52C0              xjmp L181
 0AC8           X107:
 0AC8           X102:
 0AC8                   .dbline 454
 0AC8                   .dbline 455
 0AC8           ;                     Set_White_off(9,2,10);
 0AC8 8AE0              ldi R24,10
 0ACA 8883              std y+0,R24
 0ACC 22E0              ldi R18,2
 0ACE 09E0              ldi R16,9
 0AD0 0E940000          xcall _Set_White_off
 0AD4                   .dbline 456
 0AD4           ;                     Set_White(3,2,4);
 0AD4 84E0              ldi R24,4
 0AD6 8883              std y+0,R24
 0AD8 22E0              ldi R18,2
 0ADA 03E0              ldi R16,3
 0ADC 0E940000          xcall _Set_White
 0AE0                   .dbline 457
 0AE0           ;                         cur=0;
 0AE0 4427              clr R20
 0AE2 5527              clr R21
 0AE4                   .dbline 458
 0AE4           ;                  }
 0AE4                   .dbline 459
 0AE4           ;                  break;
 0AE4 43C0              xjmp L181
 0AE6           L186:
 0AE6                   .dbline 461
 0AE6           ;               case 'r':
 0AE6           ;                  if(cur==0){
 0AE6 4030              cpi R20,0
 0AE8 4507              cpc R20,R21
 0AEA 09F0              breq X108
 0AEC 3FC0              xjmp L181
 0AEE           X108:
 0AEE           X103:
 0AEE                   .dbline 461
 0AEE                   .dbline 462
 0AEE           ;                     Set_White_off(3,2,4);
 0AEE 84E0              ldi R24,4
 0AF0 8883              std y+0,R24
 0AF2 22E0              ldi R18,2
 0AF4 03E0              ldi R16,3
 0AF6 0E940000          xcall _Set_White_off
 0AFA                   .dbline 463
 0AFA           ;                     Set_White(9,2,10);
 0AFA 8AE0              ldi R24,10
 0AFC 8883              std y+0,R24
 0AFE 22E0              ldi R18,2
 0B00 09E0              ldi R16,9
 0B02 0E940000          xcall _Set_White
 0B06                   .dbline 464
 0B06           ;                         cur=1;
 0B06 41E0              ldi R20,1
 0B08 50E0              ldi R21,0
 0B0A                   .dbline 465
 0B0A           ;                  }
 0B0A                   .dbline 466
 0B0A           ;                 break;
 0B0A 30C0              xjmp L181
 0B0C           L189:
 0B0C                   .dbline 469
 0B0C           ;               case 't':
 0B0C           ;                 //执行相关操作          
 0B0C           ;                 if(cur==0){
 0B0C 4030              cpi R20,0
 0B0E 4507              cpc R20,R21
 0B10 69F4              brne L190
 0B12           X104:
 0B12                   .dbline 469
 0B12                   .dbline 470
 0B12           ;                    Set_White_off(3,2,4);
 0B12 84E0              ldi R24,4
 0B14 8883              std y+0,R24
 0B16 22E0              ldi R18,2
 0B18 03E0              ldi R16,3
 0B1A 0E940000          xcall _Set_White_off
 0B1E                   .dbline 473
 0B1E           ;                        
 0B1E           ;                      //进入重置画面。在Page9启动看门狗重置系统、不喂狗
 0B1E           ;                      pageNum=9;
 0B1E 89E0              ldi R24,9
 0B20 90E0              ldi R25,0
 0B22 90930100          sts _pageNum+1,R25
 0B26 80930000          sts _pageNum,R24
 0B2A                   .dbline 474
 0B2A           ;                 }else {
 0B2A 21C0              xjmp L174
 0B2C           L190:
 0B2C                   .dbline 474
 0B2C                   .dbline 475
 0B2C           ;                     Set_White_off(9,2,10);
 0B2C 8AE0              ldi R24,10
 0B2E 8883              std y+0,R24
 0B30 22E0              ldi R18,2
 0B32 09E0              ldi R16,9
 0B34 0E940000          xcall _Set_White_off
 0B38                   .dbline 476
 0B38           ;                      pageNum=5;
 0B38 85E0              ldi R24,5
 0B3A 90E0              ldi R25,0
 0B3C 90930100          sts _pageNum+1,R25
 0B40 80930000          sts _pageNum,R24
 0B44                   .dbline 477
 0B44           ;                 }
 0B44                   .dbline 478
 0B44           ;                 return;
 0B44 14C0              xjmp L174
 0B46           L192:
 0B46                   .dbline 480
 0B46           ;                case 'e':
 0B46           ;                   Set_White_off(3,2,4);
 0B46 84E0              ldi R24,4
 0B48 8883              std y+0,R24
 0B4A 22E0              ldi R18,2
 0B4C 03E0              ldi R16,3
 0B4E 0E940000          xcall _Set_White_off
 0B52                   .dbline 481
 0B52           ;                   Set_White_off(9,2,10);
 0B52 8AE0              ldi R24,10
 0B54 8883              std y+0,R24
 0B56 22E0              ldi R18,2
 0B58 09E0              ldi R16,9
 0B5A 0E940000          xcall _Set_White_off
 0B5E                   .dbline 482
 0B5E           ;                   pageNum=5;
 0B5E 85E0              ldi R24,5
 0B60 90E0              ldi R25,0
 0B62 90930100          sts _pageNum+1,R25
 0B66 80930000          sts _pageNum,R24
 0B6A                   .dbline 483
 0B6A           ;                   return;
 0B6A 01C0              xjmp L174
 0B6C           L180:
 0B6C           L181:
 0B6C                   .dbline 485
 0B6C           ;         }
 0B6C           ;       }
 0B6C           L178:
 0B6C                   .dbline 450
 0B6C 8BCF              xjmp L177
 0B6E           X105:
 0B6E                   .dbline -2
 0B6E           L174:
 0B6E                   .dbline 0 ; func end
 0B6E 2296              adiw R28,2
 0B70 0C940000          xjmp pop_xgsetF00C
 0B74                   .dbsym r cur 20 i
 0B74                   .dbsym r keyV 10 c
 0B74                   .dbend
                        .area data(ram, con, rel)
 0000                   .dbfile E:\ICCDemo\Temp_Control\temp_control\pages.c
 0000           L196:
 0000                   .blkb 2
                        .area idata
 0000 0100              .word 1
                        .area data(ram, con, rel)
 0002                   .dbfile E:\ICCDemo\Temp_Control\temp_control\pages.c
 0002                   .blkb 2
                        .area idata
 0002 0200              .word 2
                        .area data(ram, con, rel)
 0004                   .dbfile E:\ICCDemo\Temp_Control\temp_control\pages.c
 0004                   .blkb 2
                        .area idata
 0004 0300              .word 3
                        .area data(ram, con, rel)
 0006                   .dbfile E:\ICCDemo\Temp_Control\temp_control\pages.c
 0006                   .blkb 2
                        .area idata
 0006 0400              .word 4
                        .area data(ram, con, rel)
 0008                   .dbfile E:\ICCDemo\Temp_Control\temp_control\pages.c
 0008                   .blkb 2
                        .area idata
 0008 0600              .word 6
                        .area data(ram, con, rel)
 000A                   .dbfile E:\ICCDemo\Temp_Control\temp_control\pages.c
 000A                   .blkb 2
                        .area idata
 000A 0700              .word 7
                        .area data(ram, con, rel)
 000C                   .dbfile E:\ICCDemo\Temp_Control\temp_control\pages.c
 000C                   .blkb 2
                        .area idata
 000C 0900              .word 9
                        .area data(ram, con, rel)
 000E                   .dbfile E:\ICCDemo\Temp_Control\temp_control\pages.c
 000E                   .blkb 2
                        .area idata
 000E 0A00              .word 10
                        .area data(ram, con, rel)
 0010                   .dbfile E:\ICCDemo\Temp_Control\temp_control\pages.c
 0010                   .blkb 2
                        .area idata
 0010 0200              .word 2
                        .area data(ram, con, rel)
 0012                   .dbfile E:\ICCDemo\Temp_Control\temp_control\pages.c
 0012                   .blkb 2
                        .area idata
 0012 0300              .word 3
                        .area data(ram, con, rel)
 0014                   .dbfile E:\ICCDemo\Temp_Control\temp_control\pages.c
 0014                   .blkb 2
                        .area idata
 0014 0500              .word 5
                        .area data(ram, con, rel)
 0016                   .dbfile E:\ICCDemo\Temp_Control\temp_control\pages.c
 0016                   .blkb 2
                        .area idata
 0016 0600              .word 6
                        .area data(ram, con, rel)
 0018                   .dbfile E:\ICCDemo\Temp_Control\temp_control\pages.c
 0018                   .blkb 2
                        .area idata
 0018 0800              .word 8
                        .area data(ram, con, rel)
 001A                   .dbfile E:\ICCDemo\Temp_Control\temp_control\pages.c
 001A                   .blkb 2
                        .area idata
 001A 0900              .word 9
                        .area data(ram, con, rel)
 001C                   .dbfile E:\ICCDemo\Temp_Control\temp_control\pages.c
                        .area text(rom, con, rel)
 0B74                   .dbfile E:\ICCDemo\Temp_Control\temp_control\pages.c
 0B74                   .dbfunc e page8 _page8 fV
 0B74           ;         dateAc -> y+17
 0B74           ;           keyV -> R22
 0B74           ;            cur -> R20,R21
 0B74           ;           date -> y+2
 0B74           ;              i -> R22,R23
                        .even
 0B74           _page8::
 0B74 0E940000          xcall push_xgsetF000
 0B78 AD97              sbiw R28,45
 0B7A                   .dbline -1
 0B7A                   .dbline 488
 0B7A           ;  }
 0B7A           ;  //由于使用DS1307，暂时不做读取和保存时间的。等实时时钟模块买来
 0B7A           ;  void page8(void){
 0B7A                   .dbline 489
 0B7A           ;    uint cur=0;
 0B7A 4427              clr R20
 0B7C 5527              clr R21
 0B7E                   .dbline 493
 0B7E           ;    uchar keyV;
 0B7E           ;    uchar date[15];
 0B7E           ;    uint i;
 0B7E           ;     uint dateAc[14]={1,2,3,4,6,7,9,10,2,3,5,6,8,9};
 0B7E 80E0              ldi R24,<L196
 0B80 90E0              ldi R25,>L196
 0B82 FE01              movw R30,R28
 0B84 7196              adiw R30,17
 0B86 0CE1              ldi R16,28
 0B88 10E0              ldi R17,0
 0B8A FA93              st -y,R31
 0B8C EA93              st -y,R30
 0B8E 9A93              st -y,R25
 0B90 8A93              st -y,R24
 0B92 0E940000          xcall asgnblk
 0B96                   .dbline 494
 0B96           ;       prePageNum=8;//同样 是违反规则的设置
 0B96 88E0              ldi R24,8
 0B98 90E0              ldi R25,0
 0B9A 90930100          sts _prePageNum+1,R25
 0B9E 80930000          sts _prePageNum,R24
 0BA2                   .dbline 495
 0BA2           ;    date[0]=2;
 0BA2 82E0              ldi R24,2
 0BA4 8A83              std y+2,R24
 0BA6                   .dbline 496
 0BA6           ;    date[1]=0;
 0BA6 2224              clr R2
 0BA8 2B82              std y+3,R2
 0BAA                   .dbline 497
 0BAA           ;    date[2]=1;
 0BAA 81E0              ldi R24,1
 0BAC 8C83              std y+4,R24
 0BAE                   .dbline 498
 0BAE           ;    date[3]=5;
 0BAE 85E0              ldi R24,5
 0BB0 8D83              std y+5,R24
 0BB2                   .dbline 499
 0BB2           ;    date[4]=1;
 0BB2 81E0              ldi R24,1
 0BB4 8E83              std y+6,R24
 0BB6                   .dbline 500
 0BB6           ;    date[5]=2;
 0BB6 82E0              ldi R24,2
 0BB8 8F83              std y+7,R24
 0BBA                   .dbline 501
 0BBA           ;    date[6]=2;
 0BBA 8887              std y+8,R24
 0BBC                   .dbline 502
 0BBC           ;    date[7]=5;
 0BBC 85E0              ldi R24,5
 0BBE 8987              std y+9,R24
 0BC0                   .dbline 503
 0BC0           ;    date[8]=1;
 0BC0 81E0              ldi R24,1
 0BC2 8A87              std y+10,R24
 0BC4                   .dbline 504
 0BC4           ;    date[9]=2;
 0BC4 82E0              ldi R24,2
 0BC6 8B87              std y+11,R24
 0BC8                   .dbline 505
 0BC8           ;    date[10]=3;
 0BC8 83E0              ldi R24,3
 0BCA 8C87              std y+12,R24
 0BCC                   .dbline 506
 0BCC           ;    date[11]=0;
 0BCC 2D86              std y+13,R2
 0BCE                   .dbline 507
 0BCE           ;    date[12]=5;
 0BCE 85E0              ldi R24,5
 0BD0 8E87              std y+14,R24
 0BD2                   .dbline 508
 0BD2           ;    date[13]=0;
 0BD2 2F86              std y+15,R2
 0BD4                   .dbline 509
 0BD4           ;     lcd_write_pos(1,0);
 0BD4 2227              clr R18
 0BD6 01E0              ldi R16,1
 0BD8 0E940000          xcall _lcd_write_pos
 0BDC                   .dbline 510
 0BDC           ;   for(i=0;i<8;i++){
 0BDC 6627              clr R22
 0BDE 7727              clr R23
 0BE0 1DC0              xjmp L213
 0BE2           L210:
 0BE2                   .dbline 510
 0BE2                   .dbline 511
 0BE2           ;    lcd_write_char_con(0,0x30 | date[i]);
 0BE2 CE01              movw R24,R28
 0BE4 0296              adiw R24,2
 0BE6 FB01              movw R30,R22
 0BE8 E80F              add R30,R24
 0BEA F91F              adc R31,R25
 0BEC 2081              ldd R18,z+0
 0BEE 2063              ori R18,48
 0BF0 0027              clr R16
 0BF2 0E940000          xcall _lcd_write_char_con
 0BF6                   .dbline 512
 0BF6           ;     lcd_write_char_con(0,' ');
 0BF6 20E2              ldi R18,32
 0BF8 0027              clr R16
 0BFA 0E940000          xcall _lcd_write_char_con
 0BFE                   .dbline 513
 0BFE           ;       if(i==3 || i==5){
 0BFE 6330              cpi R22,3
 0C00 E0E0              ldi R30,0
 0C02 7E07              cpc R23,R30
 0C04 21F0              breq L216
 0C06           X109:
 0C06 6530              cpi R22,5
 0C08 E0E0              ldi R30,0
 0C0A 7E07              cpc R23,R30
 0C0C 29F4              brne L214
 0C0E           X110:
 0C0E           L216:
 0C0E                   .dbline 513
 0C0E                   .dbline 514
 0C0E           ;         lcd_write_str_con(0,"- ");
 0C0E 20E0              ldi R18,<L217
 0C10 30E0              ldi R19,>L217
 0C12 0027              clr R16
 0C14 0E940000          xcall _lcd_write_str_con
 0C18                   .dbline 515
 0C18           ;       }
 0C18           L214:
 0C18                   .dbline 516
 0C18           ;   }
 0C18           L211:
 0C18                   .dbline 510
 0C18 6F5F              subi R22,255  ; offset = 1
 0C1A 7F4F              sbci R23,255
 0C1C           L213:
 0C1C                   .dbline 510
 0C1C 6830              cpi R22,8
 0C1E E0E0              ldi R30,0
 0C20 7E07              cpc R23,R30
 0C22 F8F2              brlo L210
 0C24           X111:
 0C24                   .dbline 517
 0C24           ;    lcd_write_pos(2,1);
 0C24 21E0              ldi R18,1
 0C26 02E0              ldi R16,2
 0C28 0E940000          xcall _lcd_write_pos
 0C2C                   .dbline 518
 0C2C           ;    for(i=8;i<14;i++){
 0C2C 68E0              ldi R22,8
 0C2E 70E0              ldi R23,0
 0C30 1DC0              xjmp L221
 0C32           L218:
 0C32                   .dbline 518
 0C32                   .dbline 519
 0C32           ;    lcd_write_char_con(1,0x30 | date[i]);
 0C32 CE01              movw R24,R28
 0C34 0296              adiw R24,2
 0C36 FB01              movw R30,R22
 0C38 E80F              add R30,R24
 0C3A F91F              adc R31,R25
 0C3C 2081              ldd R18,z+0
 0C3E 2063              ori R18,48
 0C40 01E0              ldi R16,1
 0C42 0E940000          xcall _lcd_write_char_con
 0C46                   .dbline 520
 0C46           ;    lcd_write_char_con(0,' ');
 0C46 20E2              ldi R18,32
 0C48 0027              clr R16
 0C4A 0E940000          xcall _lcd_write_char_con
 0C4E                   .dbline 521
 0C4E           ;    if(i==9 || i==11){
 0C4E 6930              cpi R22,9
 0C50 E0E0              ldi R30,0
 0C52 7E07              cpc R23,R30
 0C54 21F0              breq L224
 0C56           X112:
 0C56 6B30              cpi R22,11
 0C58 E0E0              ldi R30,0
 0C5A 7E07              cpc R23,R30
 0C5C 29F4              brne L222
 0C5E           X113:
 0C5E           L224:
 0C5E                   .dbline 521
 0C5E                   .dbline 522
 0C5E           ;        lcd_write_str_con(0,": ");
 0C5E 20E0              ldi R18,<L225
 0C60 30E0              ldi R19,>L225
 0C62 0027              clr R16
 0C64 0E940000          xcall _lcd_write_str_con
 0C68                   .dbline 523
 0C68           ;    }
 0C68           L222:
 0C68                   .dbline 524
 0C68           ;   } 
 0C68           L219:
 0C68                   .dbline 518
 0C68 6F5F              subi R22,255  ; offset = 1
 0C6A 7F4F              sbci R23,255
 0C6C           L221:
 0C6C                   .dbline 518
 0C6C 6E30              cpi R22,14
 0C6E E0E0              ldi R30,0
 0C70 7E07              cpc R23,R30
 0C72 F8F2              brlo L218
 0C74           X114:
 0C74                   .dbline 525
 0C74           ;    lcd_write_str(3,2,"保存");
 0C74 80E0              ldi R24,<L226
 0C76 90E0              ldi R25,>L226
 0C78 9983              std y+1,R25
 0C7A 8883              std y+0,R24
 0C7C 22E0              ldi R18,2
 0C7E 03E0              ldi R16,3
 0C80 0E940000          xcall _lcd_write_str
 0C84                   .dbline 526
 0C84           ;    lcd_write_str(8,2,"取消");
 0C84 80E0              ldi R24,<L110
 0C86 90E0              ldi R25,>L110
 0C88 9983              std y+1,R25
 0C8A 8883              std y+0,R24
 0C8C 22E0              ldi R18,2
 0C8E 08E0              ldi R16,8
 0C90 0E940000          xcall _lcd_write_str
 0C94                   .dbline 529
 0C94           ;    //初始化date
 0C94           ;   
 0C94           ;    cur=0;
 0C94 4427              clr R20
 0C96 5527              clr R21
 0C98                   .dbline 530
 0C98           ;    lcd_write_pos(1,0);//初始游标位置
 0C98 2227              clr R18
 0C9A 01E0              ldi R16,1
 0C9C 0E940000          xcall _lcd_write_pos
 0CA0                   .dbline 531
 0CA0           ;    cur_set(3);//上半屏幕游标设置
 0CA0 03E0              ldi R16,3
 0CA2 10E0              ldi R17,0
 0CA4 0E940000          xcall _cur_set
 0CA8 7EC1              xjmp L228
 0CAA           L227:
 0CAA                   .dbline 532
 0CAA           ;    while(1){
 0CAA                   .dbline 533
 0CAA           ;      pageTime(3);//
 0CAA 03E0              ldi R16,3
 0CAC 10E0              ldi R17,0
 0CAE A8D9              xcall _pageTime
 0CB0                   .dbline 534
 0CB0           ;        keyV=KeyScan_once();
 0CB0 0E940000          xcall _KeyScan_once
 0CB4 602F              mov R22,R16
 0CB6                   .dbline 535
 0CB6           ;        if(keyV=='u'){
 0CB6 0537              cpi R16,117
 0CB8 71F5              brne L230
 0CBA           X115:
 0CBA                   .dbline 535
 0CBA                   .dbline 536
 0CBA           ;          if(cur>13){//调到时间第一个
 0CBA 8DE0              ldi R24,13
 0CBC 90E0              ldi R25,0
 0CBE 8417              cp R24,R20
 0CC0 9507              cpc R25,R21
 0CC2 B8F4              brsh L232
 0CC4           X116:
 0CC4                   .dbline 536
 0CC4                   .dbline 537
 0CC4           ;               Set_White_off(4,2,5);
 0CC4 85E0              ldi R24,5
 0CC6 8883              std y+0,R24
 0CC8 22E0              ldi R18,2
 0CCA 04E0              ldi R16,4
 0CCC 0E940000          xcall _Set_White_off
 0CD0                   .dbline 538
 0CD0           ;                       Set_White_off(9,2,10);
 0CD0 8AE0              ldi R24,10
 0CD2 8883              std y+0,R24
 0CD4 22E0              ldi R18,2
 0CD6 09E0              ldi R16,9
 0CD8 0E940000          xcall _Set_White_off
 0CDC                   .dbline 539
 0CDC           ;               lcd_write_pos(2,1);
 0CDC 21E0              ldi R18,1
 0CDE 02E0              ldi R16,2
 0CE0 0E940000          xcall _lcd_write_pos
 0CE4                   .dbline 540
 0CE4           ;                   cur_set(3);
 0CE4 03E0              ldi R16,3
 0CE6 10E0              ldi R17,0
 0CE8 0E940000          xcall _cur_set
 0CEC                   .dbline 541
 0CEC           ;                       cur=8; 
 0CEC 48E0              ldi R20,8
 0CEE 50E0              ldi R21,0
 0CF0                   .dbline 542
 0CF0           ;                  }else if(cur>7 && cur <14){//调到日期第一个
 0CF0 5AC1              xjmp L231
 0CF2           L232:
 0CF2                   .dbline 542
 0CF2 87E0              ldi R24,7
 0CF4 90E0              ldi R25,0
 0CF6 8417              cp R24,R20
 0CF8 9507              cpc R25,R21
 0CFA 08F0              brlo X155
 0CFC 54C1              xjmp L231
 0CFE           X155:
 0CFE           X117:
 0CFE 4E30              cpi R20,14
 0D00 E0E0              ldi R30,0
 0D02 5E07              cpc R21,R30
 0D04 08F0              brlo X156
 0D06 4FC1              xjmp L231
 0D08           X156:
 0D08           X118:
 0D08                   .dbline 542
 0D08                   .dbline 543
 0D08           ;                   lcd_write_pos(1,0);
 0D08 2227              clr R18
 0D0A 01E0              ldi R16,1
 0D0C 0E940000          xcall _lcd_write_pos
 0D10                   .dbline 544
 0D10           ;                       cur=0; 
 0D10 4427              clr R20
 0D12 5527              clr R21
 0D14                   .dbline 545
 0D14           ;                  }
 0D14                   .dbline 546
 0D14           ;        }else if(keyV=='d'){
 0D14 48C1              xjmp L231
 0D16           L230:
 0D16                   .dbline 546
 0D16 6436              cpi R22,100
 0D18 19F5              brne L236
 0D1A           X119:
 0D1A                   .dbline 546
 0D1A                   .dbline 547
 0D1A           ;            if(cur>7 && cur <14){//在时间上，第三行，默认要保存，所以调到保存上
 0D1A 87E0              ldi R24,7
 0D1C 90E0              ldi R25,0
 0D1E 8417              cp R24,R20
 0D20 9507              cpc R25,R21
 0D22 88F4              brsh L238
 0D24           X120:
 0D24 4E30              cpi R20,14
 0D26 E0E0              ldi R30,0
 0D28 5E07              cpc R21,R30
 0D2A 68F4              brsh L238
 0D2C           X121:
 0D2C                   .dbline 547
 0D2C                   .dbline 548
 0D2C           ;                     cur_set(0);//关下半屏幕游标
 0D2C 0027              clr R16
 0D2E 1127              clr R17
 0D30 0E940000          xcall _cur_set
 0D34                   .dbline 549
 0D34           ;                         Set_White(4,2,5);
 0D34 85E0              ldi R24,5
 0D36 8883              std y+0,R24
 0D38 22E0              ldi R18,2
 0D3A 04E0              ldi R16,4
 0D3C 0E940000          xcall _Set_White
 0D40                   .dbline 550
 0D40           ;                         cur=14;
 0D40 4EE0              ldi R20,14
 0D42 50E0              ldi R21,0
 0D44                   .dbline 551
 0D44           ;                }else if(cur<=7){ //调到时间第一个
 0D44 30C1              xjmp L237
 0D46           L238:
 0D46                   .dbline 551
 0D46 87E0              ldi R24,7
 0D48 90E0              ldi R25,0
 0D4A 8417              cp R24,R20
 0D4C 9507              cpc R25,R21
 0D4E 08F4              brsh X157
 0D50 2AC1              xjmp L237
 0D52           X157:
 0D52           X122:
 0D52                   .dbline 551
 0D52                   .dbline 552
 0D52           ;                   lcd_write_pos(2,1);
 0D52 21E0              ldi R18,1
 0D54 02E0              ldi R16,2
 0D56 0E940000          xcall _lcd_write_pos
 0D5A                   .dbline 553
 0D5A           ;                       cur=8; 
 0D5A 48E0              ldi R20,8
 0D5C 50E0              ldi R21,0
 0D5E                   .dbline 554
 0D5E           ;                }
 0D5E                   .dbline 555
 0D5E           ;        }else if(keyV=='l'){
 0D5E 23C1              xjmp L237
 0D60           L236:
 0D60                   .dbline 555
 0D60 6C36              cpi R22,108
 0D62 09F0              breq X158
 0D64 43C0              xjmp L242
 0D66           X158:
 0D66           X123:
 0D66                   .dbline 555
 0D66                   .dbline 556
 0D66           ;                       if(cur<=8 && cur>0){
 0D66 88E0              ldi R24,8
 0D68 90E0              ldi R25,0
 0D6A 8417              cp R24,R20
 0D6C 9507              cpc R25,R21
 0D6E 90F0              brlo L244
 0D70           X124:
 0D70 4030              cpi R20,0
 0D72 4507              cpc R20,R21
 0D74 79F0              breq L244
 0D76           X125:
 0D76                   .dbline 556
 0D76                   .dbline 557
 0D76           ;                        cur--;
 0D76 4150              subi R20,1
 0D78 5040              sbci R21,0
 0D7A                   .dbline 558
 0D7A           ;                        lcd_write_pos(dateAc[cur],0);
 0D7A 2227              clr R18
 0D7C CE01              movw R24,R28
 0D7E 4196              adiw R24,17
 0D80 FA01              movw R30,R20
 0D82 EE0F              lsl R30
 0D84 FF1F              rol R31
 0D86 E80F              add R30,R24
 0D88 F91F              adc R31,R25
 0D8A 0081              ldd R16,z+0
 0D8C 1181              ldd R17,z+1
 0D8E 0E940000          xcall _lcd_write_pos
 0D92                   .dbline 559
 0D92           ;                       }else if (cur>8 && cur<14){
 0D92 09C1              xjmp L243
 0D94           L244:
 0D94                   .dbline 559
 0D94 88E0              ldi R24,8
 0D96 90E0              ldi R25,0
 0D98 8417              cp R24,R20
 0D9A 9507              cpc R25,R21
 0D9C 98F4              brsh L246
 0D9E           X126:
 0D9E 4E30              cpi R20,14
 0DA0 E0E0              ldi R30,0
 0DA2 5E07              cpc R21,R30
 0DA4 78F4              brsh L246
 0DA6           X127:
 0DA6                   .dbline 559
 0DA6                   .dbline 560
 0DA6           ;                        cur--;
 0DA6 4150              subi R20,1
 0DA8 5040              sbci R21,0
 0DAA                   .dbline 561
 0DAA           ;                        lcd_write_pos(dateAc[cur],1);
 0DAA 21E0              ldi R18,1
 0DAC CE01              movw R24,R28
 0DAE 4196              adiw R24,17
 0DB0 FA01              movw R30,R20
 0DB2 EE0F              lsl R30
 0DB4 FF1F              rol R31
 0DB6 E80F              add R30,R24
 0DB8 F91F              adc R31,R25
 0DBA 0081              ldd R16,z+0
 0DBC 1181              ldd R17,z+1
 0DBE 0E940000          xcall _lcd_write_pos
 0DC2                   .dbline 562
 0DC2           ;                       }else if (cur==15){
 0DC2 F1C0              xjmp L243
 0DC4           L246:
 0DC4                   .dbline 562
 0DC4 4F30              cpi R20,15
 0DC6 E0E0              ldi R30,0
 0DC8 5E07              cpc R21,R30
 0DCA 09F0              breq X159
 0DCC ECC0              xjmp L243
 0DCE           X159:
 0DCE           X128:
 0DCE                   .dbline 562
 0DCE                   .dbline 563
 0DCE           ;                           Set_White_off(9,2,10);
 0DCE 8AE0              ldi R24,10
 0DD0 8883              std y+0,R24
 0DD2 22E0              ldi R18,2
 0DD4 09E0              ldi R16,9
 0DD6 0E940000          xcall _Set_White_off
 0DDA                   .dbline 564
 0DDA           ;                           Set_White(4,2,5);
 0DDA 85E0              ldi R24,5
 0DDC 8883              std y+0,R24
 0DDE 22E0              ldi R18,2
 0DE0 04E0              ldi R16,4
 0DE2 0E940000          xcall _Set_White
 0DE6                   .dbline 565
 0DE6           ;                               cur=14;
 0DE6 4EE0              ldi R20,14
 0DE8 50E0              ldi R21,0
 0DEA                   .dbline 566
 0DEA           ;                       }
 0DEA                   .dbline 569
 0DEA           ;                       
 0DEA           ;               
 0DEA           ;        }else if(keyV=='r'){
 0DEA DDC0              xjmp L243
 0DEC           L242:
 0DEC                   .dbline 569
 0DEC 6237              cpi R22,114
 0DEE 09F0              breq X160
 0DF0 3AC0              xjmp L250
 0DF2           X160:
 0DF2           X129:
 0DF2                   .dbline 569
 0DF2                   .dbline 570
 0DF2           ;              if(cur<7){
 0DF2 4730              cpi R20,7
 0DF4 E0E0              ldi R30,0
 0DF6 5E07              cpc R21,R30
 0DF8 78F4              brsh L252
 0DFA           X130:
 0DFA                   .dbline 570
 0DFA                   .dbline 571
 0DFA           ;                          cur++;
 0DFA 4F5F              subi R20,255  ; offset = 1
 0DFC 5F4F              sbci R21,255
 0DFE                   .dbline 572
 0DFE           ;                          lcd_write_pos(dateAc[cur],0);
 0DFE 2227              clr R18
 0E00 CE01              movw R24,R28
 0E02 4196              adiw R24,17
 0E04 FA01              movw R30,R20
 0E06 EE0F              lsl R30
 0E08 FF1F              rol R31
 0E0A E80F              add R30,R24
 0E0C F91F              adc R31,R25
 0E0E 0081              ldd R16,z+0
 0E10 1181              ldd R17,z+1
 0E12 0E940000          xcall _lcd_write_pos
 0E16                   .dbline 573
 0E16           ;                       }else if (cur<13){
 0E16 C7C0              xjmp L251
 0E18           L252:
 0E18                   .dbline 573
 0E18 4D30              cpi R20,13
 0E1A E0E0              ldi R30,0
 0E1C 5E07              cpc R21,R30
 0E1E 78F4              brsh L254
 0E20           X131:
 0E20                   .dbline 573
 0E20                   .dbline 574
 0E20           ;                          cur++;
 0E20 4F5F              subi R20,255  ; offset = 1
 0E22 5F4F              sbci R21,255
 0E24                   .dbline 575
 0E24           ;                          lcd_write_pos(dateAc[cur],1);
 0E24 21E0              ldi R18,1
 0E26 CE01              movw R24,R28
 0E28 4196              adiw R24,17
 0E2A FA01              movw R30,R20
 0E2C EE0F              lsl R30
 0E2E FF1F              rol R31
 0E30 E80F              add R30,R24
 0E32 F91F              adc R31,R25
 0E34 0081              ldd R16,z+0
 0E36 1181              ldd R17,z+1
 0E38 0E940000          xcall _lcd_write_pos
 0E3C                   .dbline 576
 0E3C           ;                       }else if (cur==14){
 0E3C B4C0              xjmp L251
 0E3E           L254:
 0E3E                   .dbline 576
 0E3E 4E30              cpi R20,14
 0E40 E0E0              ldi R30,0
 0E42 5E07              cpc R21,R30
 0E44 09F0              breq X161
 0E46 AFC0              xjmp L251
 0E48           X161:
 0E48           X132:
 0E48                   .dbline 576
 0E48                   .dbline 577
 0E48           ;                           Set_White_off(4,2,5);
 0E48 85E0              ldi R24,5
 0E4A 8883              std y+0,R24
 0E4C 22E0              ldi R18,2
 0E4E 04E0              ldi R16,4
 0E50 0E940000          xcall _Set_White_off
 0E54                   .dbline 578
 0E54           ;                               Set_White(9,2,10);
 0E54 8AE0              ldi R24,10
 0E56 8883              std y+0,R24
 0E58 22E0              ldi R18,2
 0E5A 09E0              ldi R16,9
 0E5C 0E940000          xcall _Set_White
 0E60                   .dbline 579
 0E60           ;                               cur=15;
 0E60 4FE0              ldi R20,15
 0E62 50E0              ldi R21,0
 0E64                   .dbline 580
 0E64           ;                       }
 0E64                   .dbline 581
 0E64           ;        }else if(keyV=='e'){
 0E64 A0C0              xjmp L251
 0E66           L250:
 0E66                   .dbline 581
 0E66 6536              cpi R22,101
 0E68 B9F4              brne L258
 0E6A           X133:
 0E6A                   .dbline 581
 0E6A                   .dbline 582
 0E6A           ;            cur_set(0);//关上半屏幕游标
 0E6A 0027              clr R16
 0E6C 1127              clr R17
 0E6E 0E940000          xcall _cur_set
 0E72                   .dbline 583
 0E72           ;                 Set_White_off(4,2,5);
 0E72 85E0              ldi R24,5
 0E74 8883              std y+0,R24
 0E76 22E0              ldi R18,2
 0E78 04E0              ldi R16,4
 0E7A 0E940000          xcall _Set_White_off
 0E7E                   .dbline 584
 0E7E           ;                 Set_White_off(9,2,10);
 0E7E 8AE0              ldi R24,10
 0E80 8883              std y+0,R24
 0E82 22E0              ldi R18,2
 0E84 09E0              ldi R16,9
 0E86 0E940000          xcall _Set_White_off
 0E8A                   .dbline 585
 0E8A           ;                pageNum=1;
 0E8A 81E0              ldi R24,1
 0E8C 90E0              ldi R25,0
 0E8E 90930100          sts _pageNum+1,R25
 0E92 80930000          sts _pageNum,R24
 0E96                   .dbline 586
 0E96           ;                return;
 0E96 88C0              xjmp L195
 0E98           L258:
 0E98                   .dbline 588
 0E98           ;            //退出界面
 0E98           ;        }else if(keyV=='t'){
 0E98 6437              cpi R22,116
 0E9A 39F5              brne L260
 0E9C           X134:
 0E9C                   .dbline 588
 0E9C                   .dbline 589
 0E9C           ;             if(cur==14){
 0E9C 4E30              cpi R20,14
 0E9E E0E0              ldi R30,0
 0EA0 5E07              cpc R21,R30
 0EA2 39F4              brne L262
 0EA4           X135:
 0EA4                   .dbline 589
 0EA4                   .dbline 591
 0EA4           ;                       //保存操作
 0EA4           ;                               pageNum=6;
 0EA4 86E0              ldi R24,6
 0EA6 90E0              ldi R25,0
 0EA8 90930100          sts _pageNum+1,R25
 0EAC 80930000          sts _pageNum,R24
 0EB0                   .dbline 592
 0EB0           ;                               return;
 0EB0 7BC0              xjmp L195
 0EB2           L262:
 0EB2                   .dbline 593
 0EB2           ;                }else if(cur==15){
 0EB2 4F30              cpi R20,15
 0EB4 E0E0              ldi R30,0
 0EB6 5E07              cpc R21,R30
 0EB8 09F0              breq X162
 0EBA 75C0              xjmp L261
 0EBC           X162:
 0EBC           X136:
 0EBC                   .dbline 593
 0EBC                   .dbline 595
 0EBC           ;                       //取消操作
 0EBC           ;                        cur_set(0);//关上半屏幕游标
 0EBC 0027              clr R16
 0EBE 1127              clr R17
 0EC0 0E940000          xcall _cur_set
 0EC4                   .dbline 596
 0EC4           ;                 Set_White_off(4,2,5);
 0EC4 85E0              ldi R24,5
 0EC6 8883              std y+0,R24
 0EC8 22E0              ldi R18,2
 0ECA 04E0              ldi R16,4
 0ECC 0E940000          xcall _Set_White_off
 0ED0                   .dbline 597
 0ED0           ;                 Set_White_off(9,2,10);
 0ED0 8AE0              ldi R24,10
 0ED2 8883              std y+0,R24
 0ED4 22E0              ldi R18,2
 0ED6 09E0              ldi R16,9
 0ED8 0E940000          xcall _Set_White_off
 0EDC                   .dbline 598
 0EDC           ;                pageNum=1;
 0EDC 81E0              ldi R24,1
 0EDE 90E0              ldi R25,0
 0EE0 90930100          sts _pageNum+1,R25
 0EE4 80930000          sts _pageNum,R24
 0EE8                   .dbline 599
 0EE8           ;                return;
 0EE8 5FC0              xjmp L195
 0EEA           L260:
 0EEA                   .dbline 601
 0EEA           ;                }
 0EEA           ;        }else if(keyV=='0' || keyV=='1' || keyV=='2' || keyV=='3' || keyV=='4' || keyV=='5' 
 0EEA 6033              cpi R22,48
 0EEC 99F0              breq L276
 0EEE           X137:
 0EEE 6133              cpi R22,49
 0EF0 89F0              breq L276
 0EF2           X138:
 0EF2 6233              cpi R22,50
 0EF4 79F0              breq L276
 0EF6           X139:
 0EF6 6333              cpi R22,51
 0EF8 69F0              breq L276
 0EFA           X140:
 0EFA 6433              cpi R22,52
 0EFC 59F0              breq L276
 0EFE           X141:
 0EFE 6533              cpi R22,53
 0F00 49F0              breq L276
 0F02           X142:
 0F02 6633              cpi R22,54
 0F04 39F0              breq L276
 0F06           X143:
 0F06 6733              cpi R22,55
 0F08 29F0              breq L276
 0F0A           X144:
 0F0A 6833              cpi R22,56
 0F0C 19F0              breq L276
 0F0E           X145:
 0F0E 6933              cpi R22,57
 0F10 09F0              breq X163
 0F12 49C0              xjmp L266
 0F14           X163:
 0F14           X146:
 0F14           L276:
 0F14                   .dbline 602
 0F14           ;                  || keyV=='6'  || keyV=='7' || keyV=='8' || keyV=='9'){
 0F14                   .dbline 603
 0F14           ;                       if(cur<14){
 0F14 4E30              cpi R20,14
 0F16 E0E0              ldi R30,0
 0F18 5E07              cpc R21,R30
 0F1A 08F0              brlo X164
 0F1C 44C0              xjmp L277
 0F1E           X164:
 0F1E           X147:
 0F1E                   .dbline 603
 0F1E                   .dbline 604
 0F1E           ;                        lcd_write_char_con(0,0x30 | keyV);
 0F1E 262F              mov R18,R22
 0F20 2063              ori R18,48
 0F22 0027              clr R16
 0F24 0E940000          xcall _lcd_write_char_con
 0F28                   .dbline 605
 0F28           ;                        lcd_write_char_con(0,' ');
 0F28 20E2              ldi R18,32
 0F2A 0027              clr R16
 0F2C 0E940000          xcall _lcd_write_char_con
 0F30                   .dbline 606
 0F30           ;                        date[cur]=keyV;
 0F30 CE01              movw R24,R28
 0F32 0296              adiw R24,2
 0F34 FA01              movw R30,R20
 0F36 E80F              add R30,R24
 0F38 F91F              adc R31,R25
 0F3A 6083              std z+0,R22
 0F3C                   .dbline 607
 0F3C           ;                         if(cur==3 || cur==5){
 0F3C 4330              cpi R20,3
 0F3E E0E0              ldi R30,0
 0F40 5E07              cpc R21,R30
 0F42 21F0              breq L281
 0F44           X148:
 0F44 4530              cpi R20,5
 0F46 E0E0              ldi R30,0
 0F48 5E07              cpc R21,R30
 0F4A 31F4              brne L279
 0F4C           X149:
 0F4C           L281:
 0F4C                   .dbline 607
 0F4C                   .dbline 608
 0F4C           ;                           lcd_write_str_con(0,"- ");
 0F4C 20E0              ldi R18,<L217
 0F4E 30E0              ldi R19,>L217
 0F50 0027              clr R16
 0F52 0E940000          xcall _lcd_write_str_con
 0F56                   .dbline 609
 0F56           ;                        }else if(cur==9 || cur==11){
 0F56 0DC0              xjmp L280
 0F58           L279:
 0F58                   .dbline 609
 0F58 4930              cpi R20,9
 0F5A E0E0              ldi R30,0
 0F5C 5E07              cpc R21,R30
 0F5E 21F0              breq L284
 0F60           X150:
 0F60 4B30              cpi R20,11
 0F62 E0E0              ldi R30,0
 0F64 5E07              cpc R21,R30
 0F66 29F4              brne L282
 0F68           X151:
 0F68           L284:
 0F68                   .dbline 609
 0F68                   .dbline 610
 0F68           ;                           lcd_write_str_con(0,": ");
 0F68 20E0              ldi R18,<L225
 0F6A 30E0              ldi R19,>L225
 0F6C 0027              clr R16
 0F6E 0E940000          xcall _lcd_write_str_con
 0F72                   .dbline 611
 0F72           ;                        }
 0F72           L282:
 0F72           L280:
 0F72                   .dbline 612
 0F72           ;                        cur++;
 0F72 4F5F              subi R20,255  ; offset = 1
 0F74 5F4F              sbci R21,255
 0F76                   .dbline 613
 0F76           ;                        if(cur==8){
 0F76 4830              cpi R20,8
 0F78 E0E0              ldi R30,0
 0F7A 5E07              cpc R21,R30
 0F7C 31F4              brne L285
 0F7E           X152:
 0F7E                   .dbline 613
 0F7E                   .dbline 614
 0F7E           ;                           lcd_write_pos(dateAc[8],1);
 0F7E 21E0              ldi R18,1
 0F80 09A1              ldd R16,y+33
 0F82 1AA1              ldd R17,y+34
 0F84 0E940000          xcall _lcd_write_pos
 0F88                   .dbline 615
 0F88           ;                        }else if(cur==14){
 0F88 0EC0              xjmp L286
 0F8A           L285:
 0F8A                   .dbline 615
 0F8A 4E30              cpi R20,14
 0F8C E0E0              ldi R30,0
 0F8E 5E07              cpc R21,R30
 0F90 51F4              brne L288
 0F92           X153:
 0F92                   .dbline 615
 0F92                   .dbline 616
 0F92           ;                         cur_set(0);//关下半屏幕游标
 0F92 0027              clr R16
 0F94 1127              clr R17
 0F96 0E940000          xcall _cur_set
 0F9A                   .dbline 617
 0F9A           ;                         Set_White(4,2,5);
 0F9A 85E0              ldi R24,5
 0F9C 8883              std y+0,R24
 0F9E 22E0              ldi R18,2
 0FA0 04E0              ldi R16,4
 0FA2 0E940000          xcall _Set_White
 0FA6                   .dbline 618
 0FA6           ;                        }
 0FA6           L288:
 0FA6           L286:
 0FA6                   .dbline 619
 0FA6           ;                       }
 0FA6           L277:
 0FA6                   .dbline 620
 0FA6           ;        }
 0FA6           L266:
 0FA6           L261:
 0FA6           L251:
 0FA6           L243:
 0FA6           L237:
 0FA6           L231:
 0FA6                   .dbline 621
 0FA6           ;    }
 0FA6           L228:
 0FA6                   .dbline 532
 0FA6 81CE              xjmp L227
 0FA8           X154:
 0FA8                   .dbline -2
 0FA8           L195:
 0FA8                   .dbline 0 ; func end
 0FA8 AD96              adiw R28,45
 0FAA 0C940000          xjmp pop_xgsetF000
 0FAE                   .dbsym l dateAc 17 A[28:14]i
 0FAE                   .dbsym r keyV 22 c
 0FAE                   .dbsym r cur 20 i
 0FAE                   .dbsym l date 2 A[15:15]c
 0FAE                   .dbsym r i 22 i
 0FAE                   .dbend
 0FAE                   .dbfunc e page9 _page9 fV
                        .even
 0FAE           _page9::
 0FAE 2297              sbiw R28,2
 0FB0                   .dbline -1
 0FB0                   .dbline 623
 0FB0           ;  }
 0FB0           ; void page9(void){//复用的方法
 0FB0                   .dbline 624
 0FB0           ;    lcd_write_str(5,1,"重置中。。。。");
 0FB0 80E0              ldi R24,<L291
 0FB2 90E0              ldi R25,>L291
 0FB4 9983              std y+1,R25
 0FB6 8883              std y+0,R24
 0FB8 21E0              ldi R18,1
 0FBA 05E0              ldi R16,5
 0FBC 0E940000          xcall _lcd_write_str
 0FC0           L292:
 0FC0                   .dbline 625
 0FC0           ;    while(1){
 0FC0                   .dbline 627
 0FC0           ;       
 0FC0           ;    }
 0FC0           L293:
 0FC0                   .dbline 625
 0FC0 FFCF              xjmp L292
 0FC2           X165:
 0FC2                   .dbline -2
 0FC2           L290:
 0FC2                   .dbline 0 ; func end
 0FC2 2296              adiw R28,2
 0FC4 0895              ret
 0FC6                   .dbend
 0FC6                   .dbfunc e dispatchPages _dispatchPages fV
                        .even
 0FC6           _dispatchPages::
 0FC6                   .dbline -1
 0FC6                   .dbline 630
 0FC6           ;  }
 0FC6           ; //分发Pages
 0FC6           ; void dispatchPages(void){
 0FC6                   .dbline 631
 0FC6           ;       lcd_clear();//清屏幕
 0FC6 0E940000          xcall _lcd_clear
 0FCA                   .dbline 632
 0FCA           ;       if(pageNum==1){
 0FCA 80910000          lds R24,_pageNum
 0FCE 90910100          lds R25,_pageNum+1
 0FD2 8130              cpi R24,1
 0FD4 E0E0              ldi R30,0
 0FD6 9E07              cpc R25,R30
 0FD8 11F4              brne L296
 0FDA           X166:
 0FDA                   .dbline 632
 0FDA                   .dbline 633
 0FDA           ;           page1();
 0FDA 25D8              xcall _page1
 0FDC                   .dbline 634
 0FDC           ;         }else if(pageNum==2){
 0FDC 4FC0              xjmp L297
 0FDE           L296:
 0FDE                   .dbline 634
 0FDE 80910000          lds R24,_pageNum
 0FE2 90910100          lds R25,_pageNum+1
 0FE6 8230              cpi R24,2
 0FE8 E0E0              ldi R30,0
 0FEA 9E07              cpc R25,R30
 0FEC 11F4              brne L298
 0FEE           X167:
 0FEE                   .dbline 634
 0FEE                   .dbline 635
 0FEE           ;           page2();
 0FEE 86DB              xcall _page2
 0FF0                   .dbline 636
 0FF0           ;         }else if(pageNum==3){
 0FF0 45C0              xjmp L299
 0FF2           L298:
 0FF2                   .dbline 636
 0FF2 80910000          lds R24,_pageNum
 0FF6 90910100          lds R25,_pageNum+1
 0FFA 8330              cpi R24,3
 0FFC E0E0              ldi R30,0
 0FFE 9E07              cpc R25,R30
 1000 11F4              brne L300
 1002           X168:
 1002                   .dbline 636
 1002                   .dbline 637
 1002           ;           page3();
 1002 F3DB              xcall _page3
 1004                   .dbline 638
 1004           ;         }else if(pageNum==4){
 1004 3BC0              xjmp L301
 1006           L300:
 1006                   .dbline 638
 1006 80910000          lds R24,_pageNum
 100A 90910100          lds R25,_pageNum+1
 100E 8430              cpi R24,4
 1010 E0E0              ldi R30,0
 1012 9E07              cpc R25,R30
 1014 11F4              brne L302
 1016           X169:
 1016                   .dbline 638
 1016                   .dbline 639
 1016           ;           page4();
 1016 07DC              xcall _page4
 1018                   .dbline 640
 1018           ;         }else if(pageNum==5){
 1018 31C0              xjmp L303
 101A           L302:
 101A                   .dbline 640
 101A 80910000          lds R24,_pageNum
 101E 90910100          lds R25,_pageNum+1
 1022 8530              cpi R24,5
 1024 E0E0              ldi R30,0
 1026 9E07              cpc R25,R30
 1028 11F4              brne L304
 102A           X170:
 102A                   .dbline 640
 102A                   .dbline 641
 102A           ;           page5();
 102A 1BDC              xcall _page5
 102C                   .dbline 642
 102C           ;         }else if(pageNum==6){
 102C 27C0              xjmp L305
 102E           L304:
 102E                   .dbline 642
 102E 80910000          lds R24,_pageNum
 1032 90910100          lds R25,_pageNum+1
 1036 8630              cpi R24,6
 1038 E0E0              ldi R30,0
 103A 9E07              cpc R25,R30
 103C 11F4              brne L306
 103E           X171:
 103E                   .dbline 642
 103E                   .dbline 643
 103E           ;           page6();
 103E E7DC              xcall _page6
 1040                   .dbline 644
 1040           ;         }else if(pageNum==7){
 1040 1DC0              xjmp L307
 1042           L306:
 1042                   .dbline 644
 1042 80910000          lds R24,_pageNum
 1046 90910100          lds R25,_pageNum+1
 104A 8730              cpi R24,7
 104C E0E0              ldi R30,0
 104E 9E07              cpc R25,R30
 1050 11F4              brne L308
 1052           X172:
 1052                   .dbline 644
 1052                   .dbline 645
 1052           ;           page7();
 1052 F4DC              xcall _page7
 1054                   .dbline 646
 1054           ;         }else if(pageNum==8){
 1054 13C0              xjmp L309
 1056           L308:
 1056                   .dbline 646
 1056 80910000          lds R24,_pageNum
 105A 90910100          lds R25,_pageNum+1
 105E 8830              cpi R24,8
 1060 E0E0              ldi R30,0
 1062 9E07              cpc R25,R30
 1064 11F4              brne L310
 1066           X173:
 1066                   .dbline 646
 1066                   .dbline 647
 1066           ;           page8();
 1066 86DD              xcall _page8
 1068                   .dbline 648
 1068           ;         }else if(pageNum==9){
 1068 09C0              xjmp L311
 106A           L310:
 106A                   .dbline 648
 106A 80910000          lds R24,_pageNum
 106E 90910100          lds R25,_pageNum+1
 1072 8930              cpi R24,9
 1074 E0E0              ldi R30,0
 1076 9E07              cpc R25,R30
 1078 09F4              brne L312
 107A           X174:
 107A                   .dbline 648
 107A                   .dbline 649
 107A           ;           page9();
 107A 99DF              xcall _page9
 107C                   .dbline 650
 107C           ;         }
 107C           L312:
 107C           L311:
 107C           L309:
 107C           L307:
 107C           L305:
 107C           L303:
 107C           L301:
 107C           L299:
 107C           L297:
 107C                   .dbline -2
 107C           L295:
 107C                   .dbline 0 ; func end
 107C 0895              ret
 107E                   .dbend
                        .area data(ram, con, rel)
 001C                   .dbfile E:\ICCDemo\Temp_Control\temp_control\pages.c
 001C           L291:
 001C                   .blkb 15
                        .area idata
 001C D6D8D6C3D6D0A1A3A1A3A1A3A1A300    .byte 214,216,214,195,214,208,161,163,161,163,161,163,161,163,0
                        .area data(ram, con, rel)
 002B                   .dbfile E:\ICCDemo\Temp_Control\temp_control\pages.c
 002B           L226:
 002B                   .blkb 5
                        .area idata
 002B B1A3B4E600        .byte 177,163,180,230,0
                        .area data(ram, con, rel)
 0030                   .dbfile E:\ICCDemo\Temp_Control\temp_control\pages.c
 0030           L225:
 0030                   .blkb 3
                        .area idata
 0030 3A2000            .byte 58,32,0
                        .area data(ram, con, rel)
 0033                   .dbfile E:\ICCDemo\Temp_Control\temp_control\pages.c
 0033           L217:
 0033                   .blkb 3
                        .area idata
 0033 2D2000            .byte 45,32,0
                        .area data(ram, con, rel)
 0036                   .dbfile E:\ICCDemo\Temp_Control\temp_control\pages.c
 0036           L176:
 0036                   .blkb 5
                        .area idata
 0036 C8B7C8CF00        .byte 200,183,200,207,0
                        .area data(ram, con, rel)
 003B                   .dbfile E:\ICCDemo\Temp_Control\temp_control\pages.c
 003B           L175:
 003B                   .blkb 9
                        .area idata
 003B CAC7B7F1D6D8D6C300        .byte 202,199,183,241,214,216,214,195,0
                        .area data(ram, con, rel)
 0044                   .dbfile E:\ICCDemo\Temp_Control\temp_control\pages.c
 0044           L173:
 0044                   .blkb 11
                        .area idata
 0044 B1A3B4E6B3C9B9A6A3A100    .byte 177,163,180,230,179,201,185,166,163,161,0
                        .area data(ram, con, rel)
 004F                   .dbfile E:\ICCDemo\Temp_Control\temp_control\pages.c
 004F           L142:
 004F                   .blkb 9
                        .area idata
 004F D6D8D6C3CFB5CDB300        .byte 214,216,214,195,207,181,205,179,0
                        .area data(ram, con, rel)
 0058                   .dbfile E:\ICCDemo\Temp_Control\temp_control\pages.c
 0058           L141:
 0058                   .blkb 9
                        .area idata
 0058 C9E8D6C3CAB1BCE400        .byte 201,232,214,195,202,177,188,228,0
                        .area data(ram, con, rel)
 0061                   .dbfile E:\ICCDemo\Temp_Control\temp_control\pages.c
 0061           L140:
 0061                   .blkb 13
                        .area idata
 0061 B6CFB5E7D7D4B6AFD6D8D6C300        .byte 182,207,181,231,215,212,182,175,214,216,214,195,0
                        .area data(ram, con, rel)
 006E                   .dbfile E:\ICCDemo\Temp_Control\temp_control\pages.c
 006E           L133:
 006E                   .blkb 17
                        .area idata
 006E B5A5B8F6CEC2BFD8C9E8D6C3BDE7C3E6  .byte 181,165,184,246,206,194,191,216,201,232,214,195,189,231,195,230
 007E 00                .byte 0
                        .area data(ram, con, rel)
 007F                   .dbfile E:\ICCDemo\Temp_Control\temp_control\pages.c
 007F           L126:
 007F                   .blkb 13
                        .area idata
 007F B5A5B8F6CEC2BFD8BDE7C3E600        .byte 181,165,184,246,206,194,191,216,189,231,195,230,0
                        .area data(ram, con, rel)
 008C                   .dbfile E:\ICCDemo\Temp_Control\temp_control\pages.c
 008C           L110:
 008C                   .blkb 5
                        .area idata
 008C C8A1CFFB00        .byte 200,161,207,251,0
                        .area data(ram, con, rel)
 0091                   .dbfile E:\ICCDemo\Temp_Control\temp_control\pages.c
 0091           L109:
 0091                   .blkb 5
                        .area idata
 0091 BBD6B8B400        .byte 187,214,184,180,0
                        .area data(ram, con, rel)
 0096                   .dbfile E:\ICCDemo\Temp_Control\temp_control\pages.c
 0096           L108:
 0096                   .blkb 17
                        .area idata
 0096 CAC7B7F1BBD6B8B4C9CFB4CEB9A4D7F7  .byte 202,199,183,241,187,214,184,180,201,207,180,206,185,164,215,247
 00A6 00                .byte 0
                        .area data(ram, con, rel)
 00A7                   .dbfile E:\ICCDemo\Temp_Control\temp_control\pages.c
 00A7           L42:
 00A7                   .blkb 5
                        .area idata
 00A7 BCD3D4D800        .byte 188,211,212,216,0
                        .area data(ram, con, rel)
 00AC                   .dbfile E:\ICCDemo\Temp_Control\temp_control\pages.c
 00AC           L40:
 00AC                   .blkb 5
                        .area idata
 00AC B5C8B4FD00        .byte 181,200,180,253,0
                        .area data(ram, con, rel)
 00B1                   .dbfile E:\ICCDemo\Temp_Control\temp_control\pages.c
 00B1           L38:
 00B1                   .blkb 5
                        .area idata
 00B1 BDE1CAF800        .byte 189,225,202,248,0
                        .area data(ram, con, rel)
 00B6                   .dbfile E:\ICCDemo\Temp_Control\temp_control\pages.c
 00B6           L36:
 00B6                   .blkb 5
                        .area idata
 00B6 D4DDCDA300        .byte 212,221,205,163,0
                        .area data(ram, con, rel)
 00BB                   .dbfile E:\ICCDemo\Temp_Control\temp_control\pages.c
 00BB           L34:
 00BB                   .blkb 5
                        .area idata
 00BB B9CAD5CF00        .byte 185,202,213,207,0
                        .area data(ram, con, rel)
 00C0                   .dbfile E:\ICCDemo\Temp_Control\temp_control\pages.c
 00C0           L32:
 00C0                   .blkb 4
                        .area idata
 00C0 31353000          .byte 49,53,48,0
                        .area data(ram, con, rel)
 00C4                   .dbfile E:\ICCDemo\Temp_Control\temp_control\pages.c
 00C4           L30:
 00C4                   .blkb 5
                        .area idata
 00C4 CDA3D6B900        .byte 205,163,214,185,0
                        .area data(ram, con, rel)
 00C9                   .dbfile E:\ICCDemo\Temp_Control\temp_control\pages.c
 00C9           L10:
 00C9                   .blkb 5
                        .area idata
 00C9 C9E8D6C300        .byte 201,232,214,195,0
                        .area data(ram, con, rel)
 00CE                   .dbfile E:\ICCDemo\Temp_Control\temp_control\pages.c
 00CE           L9:
 00CE                   .blkb 9
                        .area idata
 00CE CDA3D6B92020202000        .byte 205,163,214,185,32,32,32,32,0
                        .area data(ram, con, rel)
 00D7                   .dbfile E:\ICCDemo\Temp_Control\temp_control\pages.c
 00D7           L8:
 00D7                   .blkb 9
                        .area idata
 00D7 BFAACABC2020202000        .byte 191,170,202,188,32,32,32,32,0
                        .area data(ram, con, rel)
 00E0                   .dbfile E:\ICCDemo\Temp_Control\temp_control\pages.c
 00E0           L7:
 00E0                   .blkb 9
                        .area idata
 00E0 2054343AB9CAD5CF00        .byte 32,'T,52,58,185,202,213,207,0
                        .area data(ram, con, rel)
 00E9                   .dbfile E:\ICCDemo\Temp_Control\temp_control\pages.c
 00E9           L6:
 00E9                   .blkb 9
                        .area idata
 00E9 2054333ACDA3D6B900        .byte 32,'T,51,58,205,163,214,185,0
                        .area data(ram, con, rel)
 00F2                   .dbfile E:\ICCDemo\Temp_Control\temp_control\pages.c
 00F2           L5:
 00F2                   .blkb 8
                        .area idata
 00F2 2054323A38303000  .byte 32,'T,50,58,56,48,48,0
                        .area data(ram, con, rel)
 00FA                   .dbfile E:\ICCDemo\Temp_Control\temp_control\pages.c
 00FA           L4:
 00FA                   .blkb 8
                        .area idata
 00FA 2054313A31303000  .byte 32,'T,49,58,49,48,48,0
                        .area data(ram, con, rel)
 0102                   .dbfile E:\ICCDemo\Temp_Control\temp_control\pages.c
 0102           L2:
 0102                   .blkb 6
                        .area idata
 0102 CAB1BCE43A00      .byte 202,177,188,228,58,0
                        .area data(ram, con, rel)
 0108                   .dbfile E:\ICCDemo\Temp_Control\temp_control\pages.c
 0108           ;                
 0108           ; }
