                        .module pages.c
                        .area text(rom, con, rel)
 0000                   .dbfile pages.c
 0000                   .dbfile E:\ICCDemo\Temp_Control\temp_control\pages.c
 0000                   .dbfunc e pageUtil _pageUtil fV
                        .even
 0000           _pageUtil::
 0000 2297              sbiw R28,2
 0002                   .dbline -1
 0002                   .dbline 16
 0002           ; #include<iom128v.h>
 0002           ; #include "main.h"
 0002           ; #include "lcd.h"
 0002           ; #include "time.h"
 0002           ; #include "timertask.h"
 0002           ; #include "key.h"
 0002           ; //************************
 0002           ; // 所有界面信息在这里,用到全局变量， 
 0002           ; // unsigned int pageNum;//当前页面，如需跳转改变这个值就行
 0002           ; // unsigned int pageParam[5];//传递参数。界面间参数暂存
 0002           ; // unsigned int prePageNum;
 0002           ; //************************
 0002           ; 
 0002           ; //用于显第一行日期信息，其中Page1、Page3 、Page8使用，
 0002           ; //由定时器触发该函数，进入这三个界面是启动定时器，退出时关闭
 0002           ; void pageUtil(void){
 0002                   .dbline 18
 0002           ;                 //关定时器
 0002           ;    lcd_write_str(0,0,"时间:");
 0002 80E0              ldi R24,<L2
 0004 90E0              ldi R25,>L2
 0006 9983              std y+1,R25
 0008 8883              std y+0,R24
 000A 2227              clr R18
 000C 0027              clr R16
 000E 0E940000          xcall _lcd_write_str
 0012                   .dbline 19
 0012           ;    showTime_page();
 0012 0E940000          xcall _showTime_page
 0016                   .dbline -2
 0016           L1:
 0016                   .dbline 0 ; func end
 0016 2296              adiw R28,2
 0018 0895              ret
 001A                   .dbend
 001A                   .dbfunc e page1 _page1 fV
 001A           ;            cur -> R20,R21
 001A           ;           keyV -> R10
 001A           ;              y -> R22,R23
 001A           ;              i -> R10,R11
                        .even
 001A           _page1::
 001A 0E940000          xcall push_xgsetF03C
 001E 2297              sbiw R28,2
 0020                   .dbline -1
 0020                   .dbline 23
 0020           ;                  //开定时器 
 0020           ; }
 0020           ; //page1,首页的界面
 0020           ; void page1(void){
 0020                   .dbline 24
 0020           ;    uint cur=0;
 0020                   .dbline 32
 0020           ;    uchar keyV;
 0020           ;    uint i;//用于循环
 0020           ;    uint y;//确定是那个半屏幕
 0020           ;    //初始化起始选择
 0020           ;        
 0020           ;    
 0020           ;    
 0020           ;    lcd_write_str(1,1," T1:100");
 0020 80E0              ldi R24,<L4
 0022 90E0              ldi R25,>L4
 0024 9983              std y+1,R25
 0026 8883              std y+0,R24
 0028 21E0              ldi R18,1
 002A 01E0              ldi R16,1
 002C 0E940000          xcall _lcd_write_str
 0030                   .dbline 33
 0030           ;    lcd_write_char(5,1,0xA1);
 0030 81EA              ldi R24,161
 0032 8883              std y+0,R24
 0034 21E0              ldi R18,1
 0036 05E0              ldi R16,5
 0038 0E940000          xcall _lcd_write_char
 003C                   .dbline 34
 003C           ;    lcd_write_char_con(1,0xE6);
 003C 26EE              ldi R18,230
 003E 01E0              ldi R16,1
 0040 0E940000          xcall _lcd_write_char_con
 0044                   .dbline 37
 0044           ;       
 0044           ;    
 0044           ;     lcd_write_str(6,1," T2:800");
 0044 80E0              ldi R24,<L5
 0046 90E0              ldi R25,>L5
 0048 9983              std y+1,R25
 004A 8883              std y+0,R24
 004C 21E0              ldi R18,1
 004E 06E0              ldi R16,6
 0050 0E940000          xcall _lcd_write_str
 0054                   .dbline 38
 0054           ;       lcd_write_char(10,1,0xA1);
 0054 81EA              ldi R24,161
 0056 8883              std y+0,R24
 0058 21E0              ldi R18,1
 005A 0AE0              ldi R16,10
 005C 0E940000          xcall _lcd_write_char
 0060                   .dbline 39
 0060           ;       lcd_write_char_con(1,0xE6);
 0060 26EE              ldi R18,230
 0062 01E0              ldi R16,1
 0064 0E940000          xcall _lcd_write_char_con
 0068                   .dbline 41
 0068           ;       
 0068           ;     lcd_write_str(1,2," T3:停止");
 0068 80E0              ldi R24,<L6
 006A 90E0              ldi R25,>L6
 006C 9983              std y+1,R25
 006E 8883              std y+0,R24
 0070 22E0              ldi R18,2
 0072 01E0              ldi R16,1
 0074 0E940000          xcall _lcd_write_str
 0078                   .dbline 43
 0078           ; 
 0078           ;     lcd_write_str(6,2," T4:故障");
 0078 80E0              ldi R24,<L7
 007A 90E0              ldi R25,>L7
 007C 9983              std y+1,R25
 007E 8883              std y+0,R24
 0080 22E0              ldi R18,2
 0082 06E0              ldi R16,6
 0084 0E940000          xcall _lcd_write_str
 0088                   .dbline 46
 0088           ; 
 0088           ;       
 0088           ;       lcd_write_str(1,3,"开始    ");
 0088 80E0              ldi R24,<L8
 008A 90E0              ldi R25,>L8
 008C 9983              std y+1,R25
 008E 8883              std y+0,R24
 0090 23E0              ldi R18,3
 0092 01E0              ldi R16,1
 0094 0E940000          xcall _lcd_write_str
 0098                   .dbline 47
 0098           ;     lcd_write_str_con(3,"停止    ");
 0098 20E0              ldi R18,<L9
 009A 30E0              ldi R19,>L9
 009C 03E0              ldi R16,3
 009E 0E940000          xcall _lcd_write_str_con
 00A2                   .dbline 48
 00A2           ;       lcd_write_str_con(3,"设置");
 00A2 20E0              ldi R18,<L10
 00A4 30E0              ldi R19,>L10
 00A6 03E0              ldi R16,3
 00A8 0E940000          xcall _lcd_write_str_con
 00AC                   .dbline 53
 00AC           ;       
 00AC           ;       
 00AC           ;       
 00AC           ;        
 00AC           ;       cur=0;
 00AC 4427              clr R20
 00AE 5527              clr R21
 00B0                   .dbline 54
 00B0           ;       Set_White(2,1,3);
 00B0 83E0              ldi R24,3
 00B2 8883              std y+0,R24
 00B4 21E0              ldi R18,1
 00B6 02E0              ldi R16,2
 00B8 0E940000          xcall _Set_White
 00BC BAC2              xjmp L12
 00BE           L11:
 00BE                   .dbline 55
 00BE           ;       while(1){
 00BE                   .dbline 56
 00BE           ;       for(i=0;i<4;i++){
 00BE AA24              clr R10
 00C0 BB24              clr R11
 00C2 81C0              xjmp L17
 00C4           L14:
 00C4                   .dbline 56
 00C4                   .dbline 57
 00C4           ;         if(i==0){
 00C4 AA20              tst R10
 00C6 49F4              brne L18
 00C8 BB20              tst R11
 00CA 39F4              brne L18
 00CC           X0:
 00CC                   .dbline 57
 00CC                   .dbline 58
 00CC           ;           y=1;
 00CC 61E0              ldi R22,1
 00CE 70E0              ldi R23,0
 00D0                   .dbline 59
 00D0           ;           lcd_write_pos(3,1);
 00D0 21E0              ldi R18,1
 00D2 03E0              ldi R16,3
 00D4 0E940000          xcall _lcd_write_pos
 00D8                   .dbline 60
 00D8           ;         }else if(i==1){
 00D8 23C0              xjmp L19
 00DA           L18:
 00DA                   .dbline 60
 00DA C501              movw R24,R10
 00DC 8130              cpi R24,1
 00DE E0E0              ldi R30,0
 00E0 9E07              cpc R25,R30
 00E2 39F4              brne L20
 00E4           X1:
 00E4                   .dbline 60
 00E4                   .dbline 61
 00E4           ;           y=1;
 00E4 61E0              ldi R22,1
 00E6 70E0              ldi R23,0
 00E8                   .dbline 62
 00E8           ;           lcd_write_pos(8,1);
 00E8 21E0              ldi R18,1
 00EA 08E0              ldi R16,8
 00EC 0E940000          xcall _lcd_write_pos
 00F0                   .dbline 63
 00F0           ;         }else if(i==2){
 00F0 17C0              xjmp L21
 00F2           L20:
 00F2                   .dbline 63
 00F2 C501              movw R24,R10
 00F4 8230              cpi R24,2
 00F6 E0E0              ldi R30,0
 00F8 9E07              cpc R25,R30
 00FA 39F4              brne L22
 00FC           X2:
 00FC                   .dbline 63
 00FC                   .dbline 64
 00FC           ;           y=2;
 00FC 62E0              ldi R22,2
 00FE 70E0              ldi R23,0
 0100                   .dbline 65
 0100           ;           lcd_write_pos(3,2);
 0100 22E0              ldi R18,2
 0102 03E0              ldi R16,3
 0104 0E940000          xcall _lcd_write_pos
 0108                   .dbline 66
 0108           ;         }else if(i==3){
 0108 0BC0              xjmp L23
 010A           L22:
 010A                   .dbline 66
 010A C501              movw R24,R10
 010C 8330              cpi R24,3
 010E E0E0              ldi R30,0
 0110 9E07              cpc R25,R30
 0112 31F4              brne L24
 0114           X3:
 0114                   .dbline 66
 0114                   .dbline 67
 0114           ;           y=2;
 0114 62E0              ldi R22,2
 0116 70E0              ldi R23,0
 0118                   .dbline 68
 0118           ;           lcd_write_pos(8,2);
 0118 22E0              ldi R18,2
 011A 08E0              ldi R16,8
 011C 0E940000          xcall _lcd_write_pos
 0120                   .dbline 69
 0120           ;         }
 0120           L24:
 0120           L23:
 0120           L21:
 0120           L19:
 0120                   .dbline 70
 0120           ;          switch(temps[i].flag){
 0120 80E0              ldi R24,<_temps
 0122 90E0              ldi R25,>_temps
 0124 F501              movw R30,R10
 0126 EE0F              lsl R30
 0128 FF1F              rol R31
 012A E80F              add R30,R24
 012C F91F              adc R31,R25
 012E C080              ldd R12,z+0
 0130 D180              ldd R13,z+1
 0132 CC20              tst R12
 0134 11F4              brne X4
 0136 DD20              tst R13
 0138 D1F0              breq L29
 013A           X4:
 013A C601              movw R24,R12
 013C 8130              cpi R24,1
 013E E0E0              ldi R30,0
 0140 9E07              cpc R25,R30
 0142 D9F0              breq L31
 0144           X5:
 0144 8230              cpi R24,2
 0146 E0E0              ldi R30,0
 0148 9E07              cpc R25,R30
 014A E9F0              breq L33
 014C           X6:
 014C 8330              cpi R24,3
 014E E0E0              ldi R30,0
 0150 9E07              cpc R25,R30
 0152 F9F0              breq L35
 0154           X7:
 0154 8430              cpi R24,4
 0156 E0E0              ldi R30,0
 0158 9E07              cpc R25,R30
 015A 09F1              breq L37
 015C           X8:
 015C 8530              cpi R24,5
 015E E0E0              ldi R30,0
 0160 9E07              cpc R25,R30
 0162 19F1              breq L39
 0164           X9:
 0164 8630              cpi R24,6
 0166 E0E0              ldi R30,0
 0168 9E07              cpc R25,R30
 016A 29F1              breq L41
 016C           X10:
 016C 29C0              xjmp L27
 016E           L29:
 016E                   .dbline 72
 016E           ;            case 0:
 016E           ;                  lcd_write_str_con(y,"停止");
 016E 20E0              ldi R18,<L30
 0170 30E0              ldi R19,>L30
 0172 062F              mov R16,R22
 0174 0E940000          xcall _lcd_write_str_con
 0178                   .dbline 73
 0178           ;                  break;
 0178 23C0              xjmp L27
 017A           L31:
 017A                   .dbline 75
 017A           ;                case 1:
 017A           ;                  lcd_write_str_con(y,"150");
 017A 20E0              ldi R18,<L32
 017C 30E0              ldi R19,>L32
 017E 062F              mov R16,R22
 0180 0E940000          xcall _lcd_write_str_con
 0184                   .dbline 76
 0184           ;                  break;
 0184 1DC0              xjmp L27
 0186           L33:
 0186                   .dbline 78
 0186           ;                case 2:
 0186           ;                  lcd_write_str_con(y,"故障");
 0186 20E0              ldi R18,<L34
 0188 30E0              ldi R19,>L34
 018A 062F              mov R16,R22
 018C 0E940000          xcall _lcd_write_str_con
 0190                   .dbline 79
 0190           ;                  break;
 0190 17C0              xjmp L27
 0192           L35:
 0192                   .dbline 81
 0192           ;                case 3:
 0192           ;                  lcd_write_str_con(y,"暂停");
 0192 20E0              ldi R18,<L36
 0194 30E0              ldi R19,>L36
 0196 062F              mov R16,R22
 0198 0E940000          xcall _lcd_write_str_con
 019C                   .dbline 82
 019C           ;                  break;
 019C 11C0              xjmp L27
 019E           L37:
 019E                   .dbline 84
 019E           ;                case 4:
 019E           ;                  lcd_write_str_con(y,"结束");
 019E 20E0              ldi R18,<L38
 01A0 30E0              ldi R19,>L38
 01A2 062F              mov R16,R22
 01A4 0E940000          xcall _lcd_write_str_con
 01A8                   .dbline 85
 01A8           ;                  break;
 01A8 0BC0              xjmp L27
 01AA           L39:
 01AA                   .dbline 87
 01AA           ;                case 5:
 01AA           ;                  lcd_write_str_con(y,"等待");
 01AA 20E0              ldi R18,<L40
 01AC 30E0              ldi R19,>L40
 01AE 062F              mov R16,R22
 01B0 0E940000          xcall _lcd_write_str_con
 01B4                   .dbline 88
 01B4           ;                  break;
 01B4 05C0              xjmp L27
 01B6           L41:
 01B6                   .dbline 90
 01B6           ;                case 6:
 01B6           ;                  lcd_write_str_con(y,"加载");
 01B6 20E0              ldi R18,<L42
 01B8 30E0              ldi R19,>L42
 01BA 062F              mov R16,R22
 01BC 0E940000          xcall _lcd_write_str_con
 01C0                   .dbline 91
 01C0           ;                  break;
 01C0                   .dbline 92
 01C0           ;                  break;
 01C0                   .dbline 94
 01C0           ;                default:
 01C0           ;                  break;
 01C0           L27:
 01C0                   .dbline 96
 01C0           ;          }
 01C0           ;       }
 01C0           L15:
 01C0                   .dbline 56
 01C0 C501              movw R24,R10
 01C2 0196              adiw R24,1
 01C4 5C01              movw R10,R24
 01C6           L17:
 01C6                   .dbline 56
 01C6 C501              movw R24,R10
 01C8 8430              cpi R24,4
 01CA E0E0              ldi R30,0
 01CC 9E07              cpc R25,R30
 01CE 08F4              brsh X49
 01D0 79CF              xjmp L14
 01D2           X49:
 01D2           X11:
 01D2                   .dbline 97
 01D2           ;        pageUtil();
 01D2 16DF              xcall _pageUtil
 01D4                   .dbline 98
 01D4           ;        keyV=KeyScan_once();
 01D4 0E940000          xcall _KeyScan_once
 01D8 A02E              mov R10,R16
 01DA                   .dbline 99
 01DA           ;        if(keyV=='a'){
 01DA 0136              cpi R16,97
 01DC 09F4              brne L43
 01DE           X12:
 01DE                   .dbline 99
 01DE                   .dbline 101
 01DE           ;             //pageNum=8;//跳转到设置时间的界面
 01DE           ;       }else if(keyV=='d'){
 01DE 29C2              xjmp L44
 01E0           L43:
 01E0                   .dbline 101
 01E0 8A2D              mov R24,R10
 01E2 8436              cpi R24,100
 01E4 09F0              breq X50
 01E6 4CC0              xjmp L45
 01E8           X50:
 01E8           X13:
 01E8                   .dbline 101
 01E8                   .dbline 102
 01E8           ;            switch(cur){
 01E8 4030              cpi R20,0
 01EA 4507              cpc R20,R21
 01EC 69F0              breq L49
 01EE           X14:
 01EE 4130              cpi R20,1
 01F0 E0E0              ldi R30,0
 01F2 5E07              cpc R21,R30
 01F4 C1F0              breq L50
 01F6           X15:
 01F6 4230              cpi R20,2
 01F8 E0E0              ldi R30,0
 01FA 5E07              cpc R21,R30
 01FC 19F1              breq L51
 01FE           X16:
 01FE 4330              cpi R20,3
 0200 E0E0              ldi R30,0
 0202 5E07              cpc R21,R30
 0204 71F1              breq L52
 0206           X17:
 0206 15C2              xjmp L46
 0208           L49:
 0208                   .dbline 104
 0208           ;                 case 0:
 0208           ;                  Set_White_off(2,1,3);
 0208 83E0              ldi R24,3
 020A 8883              std y+0,R24
 020C 21E0              ldi R18,1
 020E 02E0              ldi R16,2
 0210 0E940000          xcall _Set_White_off
 0214                   .dbline 105
 0214           ;                  Set_White(2,2,3);
 0214 83E0              ldi R24,3
 0216 8883              std y+0,R24
 0218 22E0              ldi R18,2
 021A 02E0              ldi R16,2
 021C 0E940000          xcall _Set_White
 0220                   .dbline 106
 0220           ;                  cur=2;
 0220 42E0              ldi R20,2
 0222 50E0              ldi R21,0
 0224                   .dbline 107
 0224           ;                  break;
 0224 06C2              xjmp L46
 0226           L50:
 0226                   .dbline 109
 0226           ;                 case 1:
 0226           ;                  Set_White_off(7,1,8);
 0226 88E0              ldi R24,8
 0228 8883              std y+0,R24
 022A 21E0              ldi R18,1
 022C 07E0              ldi R16,7
 022E 0E940000          xcall _Set_White_off
 0232                   .dbline 110
 0232           ;                  Set_White(7,2,8);
 0232 88E0              ldi R24,8
 0234 8883              std y+0,R24
 0236 22E0              ldi R18,2
 0238 07E0              ldi R16,7
 023A 0E940000          xcall _Set_White
 023E                   .dbline 111
 023E           ;                  cur=3;
 023E 43E0              ldi R20,3
 0240 50E0              ldi R21,0
 0242                   .dbline 112
 0242           ;                  break;
 0242 F7C1              xjmp L46
 0244           L51:
 0244                   .dbline 114
 0244           ;                 case 2:
 0244           ;                  Set_White_off(2,2,3);
 0244 83E0              ldi R24,3
 0246 8883              std y+0,R24
 0248 22E0              ldi R18,2
 024A 02E0              ldi R16,2
 024C 0E940000          xcall _Set_White_off
 0250                   .dbline 115
 0250           ;                  Set_White(2,3,3);
 0250 83E0              ldi R24,3
 0252 8883              std y+0,R24
 0254 23E0              ldi R18,3
 0256 02E0              ldi R16,2
 0258 0E940000          xcall _Set_White
 025C                   .dbline 116
 025C           ;                  cur=4;
 025C 44E0              ldi R20,4
 025E 50E0              ldi R21,0
 0260                   .dbline 117
 0260           ;                  break;
 0260 E8C1              xjmp L46
 0262           L52:
 0262                   .dbline 119
 0262           ;                 case 3:
 0262           ;                  Set_White_off(7,2,8);
 0262 88E0              ldi R24,8
 0264 8883              std y+0,R24
 0266 22E0              ldi R18,2
 0268 07E0              ldi R16,7
 026A 0E940000          xcall _Set_White_off
 026E                   .dbline 120
 026E           ;                  Set_White(6,3,7);
 026E 87E0              ldi R24,7
 0270 8883              std y+0,R24
 0272 23E0              ldi R18,3
 0274 06E0              ldi R16,6
 0276 0E940000          xcall _Set_White
 027A                   .dbline 121
 027A           ;                  cur=5;
 027A 45E0              ldi R20,5
 027C 50E0              ldi R21,0
 027E                   .dbline 122
 027E           ;                  break;
 027E                   .dbline 124
 027E           ;                 default:
 027E           ;                  break;
 027E                   .dbline 126
 027E           ;                }
 027E           ;       }else if(keyV=='u'){switch(cur){
 027E D9C1              xjmp L46
 0280           L45:
 0280                   .dbline 126
 0280 8A2D              mov R24,R10
 0282 8537              cpi R24,117
 0284 09F0              breq X51
 0286 61C0              xjmp L53
 0288           X51:
 0288           X18:
 0288                   .dbline 126
 0288                   .dbline 126
 0288 4230              cpi R20,2
 028A E0E0              ldi R30,0
 028C 5E07              cpc R21,R30
 028E 91F0              breq L57
 0290           X19:
 0290 4330              cpi R20,3
 0292 E0E0              ldi R30,0
 0294 5E07              cpc R21,R30
 0296 E9F0              breq L58
 0298           X20:
 0298 4430              cpi R20,4
 029A E0E0              ldi R30,0
 029C 5E07              cpc R21,R30
 029E 41F1              breq L59
 02A0           X21:
 02A0 4530              cpi R20,5
 02A2 E0E0              ldi R30,0
 02A4 5E07              cpc R21,R30
 02A6 99F1              breq L60
 02A8           X22:
 02A8 4630              cpi R20,6
 02AA E0E0              ldi R30,0
 02AC 5E07              cpc R21,R30
 02AE 09F4              brne X52
 02B0 3DC0              xjmp L61
 02B2           X52:
 02B2           X23:
 02B2 BFC1              xjmp L54
 02B4           L57:
 02B4                   .dbline 128
 02B4           ;                 case 2:
 02B4           ;                  Set_White_off(2,2,3);
 02B4 83E0              ldi R24,3
 02B6 8883              std y+0,R24
 02B8 22E0              ldi R18,2
 02BA 02E0              ldi R16,2
 02BC 0E940000          xcall _Set_White_off
 02C0                   .dbline 129
 02C0           ;                  Set_White(2,1,3);
 02C0 83E0              ldi R24,3
 02C2 8883              std y+0,R24
 02C4 21E0              ldi R18,1
 02C6 02E0              ldi R16,2
 02C8 0E940000          xcall _Set_White
 02CC                   .dbline 130
 02CC           ;                  cur=0;
 02CC 4427              clr R20
 02CE 5527              clr R21
 02D0                   .dbline 131
 02D0           ;                  break;
 02D0 B0C1              xjmp L54
 02D2           L58:
 02D2                   .dbline 133
 02D2           ;                 case 3:
 02D2           ;                  Set_White_off(7,2,8);
 02D2 88E0              ldi R24,8
 02D4 8883              std y+0,R24
 02D6 22E0              ldi R18,2
 02D8 07E0              ldi R16,7
 02DA 0E940000          xcall _Set_White_off
 02DE                   .dbline 134
 02DE           ;                  Set_White(7,1,8);
 02DE 88E0              ldi R24,8
 02E0 8883              std y+0,R24
 02E2 21E0              ldi R18,1
 02E4 07E0              ldi R16,7
 02E6 0E940000          xcall _Set_White
 02EA                   .dbline 135
 02EA           ;                  cur=1;
 02EA 41E0              ldi R20,1
 02EC 50E0              ldi R21,0
 02EE                   .dbline 136
 02EE           ;                  break;
 02EE A1C1              xjmp L54
 02F0           L59:
 02F0                   .dbline 138
 02F0           ;                 case 4:
 02F0           ;                  Set_White_off(2,3,5);
 02F0 85E0              ldi R24,5
 02F2 8883              std y+0,R24
 02F4 23E0              ldi R18,3
 02F6 02E0              ldi R16,2
 02F8 0E940000          xcall _Set_White_off
 02FC                   .dbline 139
 02FC           ;                  Set_White(2,2,3);
 02FC 83E0              ldi R24,3
 02FE 8883              std y+0,R24
 0300 22E0              ldi R18,2
 0302 02E0              ldi R16,2
 0304 0E940000          xcall _Set_White
 0308                   .dbline 140
 0308           ;                  cur=2;
 0308 42E0              ldi R20,2
 030A 50E0              ldi R21,0
 030C                   .dbline 141
 030C           ;                  break;
 030C 92C1              xjmp L54
 030E           L60:
 030E                   .dbline 143
 030E           ;                 case 5:
 030E           ;                  Set_White_off(6,3,7);
 030E 87E0              ldi R24,7
 0310 8883              std y+0,R24
 0312 23E0              ldi R18,3
 0314 06E0              ldi R16,6
 0316 0E940000          xcall _Set_White_off
 031A                   .dbline 144
 031A           ;                  Set_White(7,2,8);
 031A 88E0              ldi R24,8
 031C 8883              std y+0,R24
 031E 22E0              ldi R18,2
 0320 07E0              ldi R16,7
 0322 0E940000          xcall _Set_White
 0326                   .dbline 145
 0326           ;                  cur=3;
 0326 43E0              ldi R20,3
 0328 50E0              ldi R21,0
 032A                   .dbline 146
 032A           ;                  break;
 032A 83C1              xjmp L54
 032C           L61:
 032C                   .dbline 148
 032C           ;                 case 6:
 032C           ;                  Set_White_off(10,3,11);
 032C 8BE0              ldi R24,11
 032E 8883              std y+0,R24
 0330 23E0              ldi R18,3
 0332 0AE0              ldi R16,10
 0334 0E940000          xcall _Set_White_off
 0338                   .dbline 149
 0338           ;                  Set_White(7,2,8);
 0338 88E0              ldi R24,8
 033A 8883              std y+0,R24
 033C 22E0              ldi R18,2
 033E 07E0              ldi R16,7
 0340 0E940000          xcall _Set_White
 0344                   .dbline 150
 0344           ;                  cur=3;
 0344 43E0              ldi R20,3
 0346 50E0              ldi R21,0
 0348                   .dbline 151
 0348           ;                  break;
 0348                   .dbline 153
 0348           ;                 default:
 0348           ;                  break;
 0348                   .dbline 155
 0348           ;                }
 0348           ;       }else if(keyV=='l'){switch(cur){
 0348 74C1              xjmp L54
 034A           L53:
 034A                   .dbline 155
 034A 8A2D              mov R24,R10
 034C 8C36              cpi R24,108
 034E 09F0              breq X53
 0350 4DC0              xjmp L62
 0352           X53:
 0352           X24:
 0352                   .dbline 155
 0352                   .dbline 155
 0352 4130              cpi R20,1
 0354 E0E0              ldi R30,0
 0356 5E07              cpc R21,R30
 0358 69F0              breq L66
 035A           X25:
 035A 4330              cpi R20,3
 035C E0E0              ldi R30,0
 035E 5E07              cpc R21,R30
 0360 C1F0              breq L67
 0362           X26:
 0362 4530              cpi R20,5
 0364 E0E0              ldi R30,0
 0366 5E07              cpc R21,R30
 0368 19F1              breq L68
 036A           X27:
 036A 4630              cpi R20,6
 036C E0E0              ldi R30,0
 036E 5E07              cpc R21,R30
 0370 71F1              breq L69
 0372           X28:
 0372 5FC1              xjmp L63
 0374           L66:
 0374                   .dbline 157
 0374           ;                 case 1:
 0374           ;                  Set_White_off(7,1,8);
 0374 88E0              ldi R24,8
 0376 8883              std y+0,R24
 0378 21E0              ldi R18,1
 037A 07E0              ldi R16,7
 037C 0E940000          xcall _Set_White_off
 0380                   .dbline 158
 0380           ;                  Set_White(2,1,3);
 0380 83E0              ldi R24,3
 0382 8883              std y+0,R24
 0384 21E0              ldi R18,1
 0386 02E0              ldi R16,2
 0388 0E940000          xcall _Set_White
 038C                   .dbline 159
 038C           ;                  cur=0;
 038C 4427              clr R20
 038E 5527              clr R21
 0390                   .dbline 160
 0390           ;                  break;
 0390 50C1              xjmp L63
 0392           L67:
 0392                   .dbline 162
 0392           ;                 case 3:
 0392           ;                  Set_White_off(7,2,8);
 0392 88E0              ldi R24,8
 0394 8883              std y+0,R24
 0396 22E0              ldi R18,2
 0398 07E0              ldi R16,7
 039A 0E940000          xcall _Set_White_off
 039E                   .dbline 163
 039E           ;                  Set_White(2,2,3);
 039E 83E0              ldi R24,3
 03A0 8883              std y+0,R24
 03A2 22E0              ldi R18,2
 03A4 02E0              ldi R16,2
 03A6 0E940000          xcall _Set_White
 03AA                   .dbline 164
 03AA           ;                  cur=2;
 03AA 42E0              ldi R20,2
 03AC 50E0              ldi R21,0
 03AE                   .dbline 165
 03AE           ;                  break;
 03AE 41C1              xjmp L63
 03B0           L68:
 03B0                   .dbline 167
 03B0           ;                 case 5:
 03B0           ;                  Set_White_off(6,3,7);
 03B0 87E0              ldi R24,7
 03B2 8883              std y+0,R24
 03B4 23E0              ldi R18,3
 03B6 06E0              ldi R16,6
 03B8 0E940000          xcall _Set_White_off
 03BC                   .dbline 168
 03BC           ;                  Set_White(2,3,3);
 03BC 83E0              ldi R24,3
 03BE 8883              std y+0,R24
 03C0 23E0              ldi R18,3
 03C2 02E0              ldi R16,2
 03C4 0E940000          xcall _Set_White
 03C8                   .dbline 169
 03C8           ;                  cur=4;
 03C8 44E0              ldi R20,4
 03CA 50E0              ldi R21,0
 03CC                   .dbline 170
 03CC           ;                  break;
 03CC 32C1              xjmp L63
 03CE           L69:
 03CE                   .dbline 172
 03CE           ;                 case 6:
 03CE           ;                  Set_White_off(10,3,11);
 03CE 8BE0              ldi R24,11
 03D0 8883              std y+0,R24
 03D2 23E0              ldi R18,3
 03D4 0AE0              ldi R16,10
 03D6 0E940000          xcall _Set_White_off
 03DA                   .dbline 173
 03DA           ;                  Set_White(6,3,7);
 03DA 87E0              ldi R24,7
 03DC 8883              std y+0,R24
 03DE 23E0              ldi R18,3
 03E0 06E0              ldi R16,6
 03E2 0E940000          xcall _Set_White
 03E6                   .dbline 174
 03E6           ;                  cur=5;
 03E6 45E0              ldi R20,5
 03E8 50E0              ldi R21,0
 03EA                   .dbline 175
 03EA           ;                  break;
 03EA                   .dbline 177
 03EA           ;                 default:
 03EA           ;                  break;
 03EA                   .dbline 179
 03EA           ;                }
 03EA           ;       }else if(keyV=='r'){
 03EA 23C1              xjmp L63
 03EC           L62:
 03EC                   .dbline 179
 03EC 8A2D              mov R24,R10
 03EE 8237              cpi R24,114
 03F0 09F0              breq X54
 03F2 4CC0              xjmp L70
 03F4           X54:
 03F4           X29:
 03F4                   .dbline 179
 03F4                   .dbline 180
 03F4           ;       switch(cur){
 03F4 4030              cpi R20,0
 03F6 4507              cpc R20,R21
 03F8 69F0              breq L74
 03FA           X30:
 03FA 4230              cpi R20,2
 03FC E0E0              ldi R30,0
 03FE 5E07              cpc R21,R30
 0400 C1F0              breq L75
 0402           X31:
 0402 4430              cpi R20,4
 0404 E0E0              ldi R30,0
 0406 5E07              cpc R21,R30
 0408 19F1              breq L76
 040A           X32:
 040A 4530              cpi R20,5
 040C E0E0              ldi R30,0
 040E 5E07              cpc R21,R30
 0410 71F1              breq L77
 0412           X33:
 0412 0FC1              xjmp L71
 0414           L74:
 0414                   .dbline 182
 0414           ;                 case 0:
 0414           ;                  Set_White_off(2,1,3);
 0414 83E0              ldi R24,3
 0416 8883              std y+0,R24
 0418 21E0              ldi R18,1
 041A 02E0              ldi R16,2
 041C 0E940000          xcall _Set_White_off
 0420                   .dbline 183
 0420           ;                  Set_White(7,1,8);
 0420 88E0              ldi R24,8
 0422 8883              std y+0,R24
 0424 21E0              ldi R18,1
 0426 07E0              ldi R16,7
 0428 0E940000          xcall _Set_White
 042C                   .dbline 184
 042C           ;                  cur=1;
 042C 41E0              ldi R20,1
 042E 50E0              ldi R21,0
 0430                   .dbline 185
 0430           ;                  break;
 0430 00C1              xjmp L71
 0432           L75:
 0432                   .dbline 187
 0432           ;                 case 2:
 0432           ;                  Set_White_off(2,2,3);
 0432 83E0              ldi R24,3
 0434 8883              std y+0,R24
 0436 22E0              ldi R18,2
 0438 02E0              ldi R16,2
 043A 0E940000          xcall _Set_White_off
 043E                   .dbline 188
 043E           ;                  Set_White(7,2,8);
 043E 88E0              ldi R24,8
 0440 8883              std y+0,R24
 0442 22E0              ldi R18,2
 0444 07E0              ldi R16,7
 0446 0E940000          xcall _Set_White
 044A                   .dbline 189
 044A           ;                  cur=3;
 044A 43E0              ldi R20,3
 044C 50E0              ldi R21,0
 044E                   .dbline 190
 044E           ;                  break;
 044E F1C0              xjmp L71
 0450           L76:
 0450                   .dbline 192
 0450           ;                 case 4:
 0450           ;                  Set_White_off(2,3,3);
 0450 83E0              ldi R24,3
 0452 8883              std y+0,R24
 0454 23E0              ldi R18,3
 0456 02E0              ldi R16,2
 0458 0E940000          xcall _Set_White_off
 045C                   .dbline 193
 045C           ;                  Set_White(6,3,7);
 045C 87E0              ldi R24,7
 045E 8883              std y+0,R24
 0460 23E0              ldi R18,3
 0462 06E0              ldi R16,6
 0464 0E940000          xcall _Set_White
 0468                   .dbline 194
 0468           ;                  cur=5;
 0468 45E0              ldi R20,5
 046A 50E0              ldi R21,0
 046C                   .dbline 195
 046C           ;                  break;
 046C E2C0              xjmp L71
 046E           L77:
 046E                   .dbline 197
 046E           ;                 case 5:
 046E           ;                  Set_White_off(6,3,7);
 046E 87E0              ldi R24,7
 0470 8883              std y+0,R24
 0472 23E0              ldi R18,3
 0474 06E0              ldi R16,6
 0476 0E940000          xcall _Set_White_off
 047A                   .dbline 198
 047A           ;                  Set_White(10,3,11);
 047A 8BE0              ldi R24,11
 047C 8883              std y+0,R24
 047E 23E0              ldi R18,3
 0480 0AE0              ldi R16,10
 0482 0E940000          xcall _Set_White
 0486                   .dbline 199
 0486           ;                  cur=6;
 0486 46E0              ldi R20,6
 0488 50E0              ldi R21,0
 048A                   .dbline 200
 048A           ;                  break;
 048A                   .dbline 202
 048A           ;                 default:
 048A           ;                  break;
 048A                   .dbline 204
 048A           ;                }
 048A           ;       }else if(keyV=='s'){
 048A D3C0              xjmp L71
 048C           L70:
 048C                   .dbline 204
 048C 8A2D              mov R24,R10
 048E 8337              cpi R24,115
 0490 09F0              breq X55
 0492 3DC0              xjmp L78
 0494           X55:
 0494           X34:
 0494                   .dbline 204
 0494                   .dbline 205
 0494           ;          pageNum=5;
 0494 85E0              ldi R24,5
 0496 90E0              ldi R25,0
 0498 90930100          sts _pageNum+1,R25
 049C 80930000          sts _pageNum,R24
 04A0                   .dbline 206
 04A0           ;          switch(cur){
 04A0 4030              cpi R20,0
 04A2 4507              cpc R20,R21
 04A4 89F0              breq L82
 04A6           X35:
 04A6 4130              cpi R20,1
 04A8 E0E0              ldi R30,0
 04AA 5E07              cpc R21,R30
 04AC A1F0              breq L83
 04AE           X36:
 04AE 4230              cpi R20,2
 04B0 E0E0              ldi R30,0
 04B2 5E07              cpc R21,R30
 04B4 B9F0              breq L84
 04B6           X37:
 04B6 4330              cpi R20,3
 04B8 E0E0              ldi R30,0
 04BA 5E07              cpc R21,R30
 04BC D1F0              breq L85
 04BE           X38:
 04BE 4630              cpi R20,6
 04C0 E0E0              ldi R30,0
 04C2 5E07              cpc R21,R30
 04C4 E9F0              breq L86
 04C6           X39:
 04C6 B6C0              xjmp L3
 04C8           L82:
 04C8                   .dbline 208
 04C8           ;                case 0: 
 04C8           ;                   Set_White_off(2,1,3);
 04C8 83E0              ldi R24,3
 04CA 8883              std y+0,R24
 04CC 21E0              ldi R18,1
 04CE 02E0              ldi R16,2
 04D0 0E940000          xcall _Set_White_off
 04D4                   .dbline 209
 04D4           ;                   break;
 04D4 AFC0              xjmp L3
 04D6           L83:
 04D6                   .dbline 211
 04D6           ;                case 1:
 04D6           ;                  Set_White_off(7,1,8);
 04D6 88E0              ldi R24,8
 04D8 8883              std y+0,R24
 04DA 21E0              ldi R18,1
 04DC 07E0              ldi R16,7
 04DE 0E940000          xcall _Set_White_off
 04E2                   .dbline 212
 04E2           ;                  break;
 04E2 A8C0              xjmp L3
 04E4           L84:
 04E4                   .dbline 214
 04E4           ;                case 2:
 04E4           ;                 Set_White_off(2,2,3);
 04E4 83E0              ldi R24,3
 04E6 8883              std y+0,R24
 04E8 22E0              ldi R18,2
 04EA 02E0              ldi R16,2
 04EC 0E940000          xcall _Set_White_off
 04F0                   .dbline 215
 04F0           ;                 break;
 04F0 A1C0              xjmp L3
 04F2           L85:
 04F2                   .dbline 217
 04F2           ;                case 3:
 04F2           ;                  Set_White_off(7,2,8);
 04F2 88E0              ldi R24,8
 04F4 8883              std y+0,R24
 04F6 22E0              ldi R18,2
 04F8 07E0              ldi R16,7
 04FA 0E940000          xcall _Set_White_off
 04FE                   .dbline 218
 04FE           ;                   break;
 04FE 9AC0              xjmp L3
 0500           L86:
 0500                   .dbline 220
 0500           ;                case 6:
 0500           ;                  Set_White_off(10,3,11);
 0500 8BE0              ldi R24,11
 0502 8883              std y+0,R24
 0504 23E0              ldi R18,3
 0506 0AE0              ldi R16,10
 0508 0E940000          xcall _Set_White_off
 050C                   .dbline 221
 050C           ;                   break;
 050C                   .dbline 223
 050C           ;                 default:
 050C           ;                  break;
 050C                   .dbline 225
 050C           ;                }
 050C           ;          return ;
 050C 93C0              xjmp L3
 050E           L78:
 050E                   .dbline 226
 050E           ;       }else if(keyV=='t'){
 050E 8A2D              mov R24,R10
 0510 8437              cpi R24,116
 0512 09F0              breq X56
 0514 8EC0              xjmp L87
 0516           X56:
 0516           X40:
 0516                   .dbline 226
 0516                   .dbline 227
 0516           ;          switch(cur){
 0516 4030              cpi R20,0
 0518 4507              cpc R20,R21
 051A F1F0              breq L91
 051C           X41:
 051C 4130              cpi R20,1
 051E E0E0              ldi R30,0
 0520 5E07              cpc R21,R30
 0522 91F1              breq L92
 0524           X42:
 0524 4230              cpi R20,2
 0526 E0E0              ldi R30,0
 0528 5E07              cpc R21,R30
 052A 09F4              brne X57
 052C 43C0              xjmp L93
 052E           X57:
 052E           X43:
 052E 4330              cpi R20,3
 0530 E0E0              ldi R30,0
 0532 5E07              cpc R21,R30
 0534 09F4              brne X58
 0536 55C0              xjmp L94
 0538           X58:
 0538           X44:
 0538 4430              cpi R20,4
 053A E0E0              ldi R30,0
 053C 5E07              cpc R21,R30
 053E 09F4              brne X59
 0540 78C0              xjmp L90
 0542           X59:
 0542           X45:
 0542 4530              cpi R20,5
 0544 E0E0              ldi R30,0
 0546 5E07              cpc R21,R30
 0548 09F4              brne X60
 054A 73C0              xjmp L90
 054C           X60:
 054C           X46:
 054C 4630              cpi R20,6
 054E E0E0              ldi R30,0
 0550 5E07              cpc R21,R30
 0552 09F4              brne X61
 0554 5CC0              xjmp L97
 0556           X61:
 0556           X47:
 0556 6DC0              xjmp L90
 0558           L91:
 0558                   .dbline 229
 0558           ;                case 0: 
 0558           ;                   Set_White_off(2,1,3);
 0558 83E0              ldi R24,3
 055A 8883              std y+0,R24
 055C 21E0              ldi R18,1
 055E 02E0              ldi R16,2
 0560 0E940000          xcall _Set_White_off
 0564                   .dbline 230
 0564           ;                   prePageNum=1;
 0564 81E0              ldi R24,1
 0566 90E0              ldi R25,0
 0568 90930100          sts _prePageNum+1,R25
 056C 80930000          sts _prePageNum,R24
 0570                   .dbline 231
 0570           ;                   pageParam[0]=0;//传递使用第一个，对应不同的温度
 0570 2224              clr R2
 0572 3324              clr R3
 0574 30920100          sts _pageParam+1,R3
 0578 20920000          sts _pageParam,R2
 057C                   .dbline 232
 057C           ;                   pageNum=3;
 057C 83E0              ldi R24,3
 057E 90930100          sts _pageNum+1,R25
 0582 80930000          sts _pageNum,R24
 0586                   .dbline 233
 0586           ;                   return;
 0586 56C0              xjmp L3
 0588           L92:
 0588                   .dbline 235
 0588           ;                case 1:
 0588           ;                  Set_White_off(7,1,8);
 0588 88E0              ldi R24,8
 058A 8883              std y+0,R24
 058C 21E0              ldi R18,1
 058E 07E0              ldi R16,7
 0590 0E940000          xcall _Set_White_off
 0594                   .dbline 236
 0594           ;                   prePageNum=1;
 0594 81E0              ldi R24,1
 0596 90E0              ldi R25,0
 0598 90930100          sts _prePageNum+1,R25
 059C 80930000          sts _prePageNum,R24
 05A0                   .dbline 237
 05A0           ;                  pageParam[0]=1;//传递使用第一个，对应不同的温度
 05A0 90930100          sts _pageParam+1,R25
 05A4 80930000          sts _pageParam,R24
 05A8                   .dbline 238
 05A8           ;                   pageNum=3;
 05A8 83E0              ldi R24,3
 05AA 90930100          sts _pageNum+1,R25
 05AE 80930000          sts _pageNum,R24
 05B2                   .dbline 239
 05B2           ;                   return;
 05B2 40C0              xjmp L3
 05B4           L93:
 05B4                   .dbline 241
 05B4           ;                case 2:
 05B4           ;                 Set_White_off(2,2,3);
 05B4 83E0              ldi R24,3
 05B6 8883              std y+0,R24
 05B8 22E0              ldi R18,2
 05BA 02E0              ldi R16,2
 05BC 0E940000          xcall _Set_White_off
 05C0                   .dbline 242
 05C0           ;                   prePageNum=1;
 05C0 81E0              ldi R24,1
 05C2 90E0              ldi R25,0
 05C4 90930100          sts _prePageNum+1,R25
 05C8 80930000          sts _prePageNum,R24
 05CC                   .dbline 243
 05CC           ;                   pageParam[0]=2;//传递使用第一个，对应不同的温度
 05CC 82E0              ldi R24,2
 05CE 90930100          sts _pageParam+1,R25
 05D2 80930000          sts _pageParam,R24
 05D6                   .dbline 244
 05D6           ;                  pageNum=3;
 05D6 83E0              ldi R24,3
 05D8 90930100          sts _pageNum+1,R25
 05DC 80930000          sts _pageNum,R24
 05E0                   .dbline 245
 05E0           ;                  return;
 05E0 29C0              xjmp L3
 05E2           L94:
 05E2                   .dbline 247
 05E2           ;                case 3:
 05E2           ;                  Set_White_off(7,2,8);
 05E2 88E0              ldi R24,8
 05E4 8883              std y+0,R24
 05E6 22E0              ldi R18,2
 05E8 07E0              ldi R16,7
 05EA 0E940000          xcall _Set_White_off
 05EE                   .dbline 248
 05EE           ;                    prePageNum=1;
 05EE 81E0              ldi R24,1
 05F0 90E0              ldi R25,0
 05F2 90930100          sts _prePageNum+1,R25
 05F6 80930000          sts _prePageNum,R24
 05FA                   .dbline 249
 05FA           ;                   pageParam[0]=3;//传递使用第一个，对应不同的温度
 05FA 83E0              ldi R24,3
 05FC 90930100          sts _pageParam+1,R25
 0600 80930000          sts _pageParam,R24
 0604                   .dbline 250
 0604           ;                   pageNum=3;
 0604 90930100          sts _pageNum+1,R25
 0608 80930000          sts _pageNum,R24
 060C                   .dbline 251
 060C           ;                   return;
 060C 13C0              xjmp L3
 060E           L97:
 060E                   .dbline 259
 060E           ;                case 4:
 060E           ;                   //调用函数全部开始，参数正确的
 060E           ;                  break;
 060E           ;                case 5:
 060E           ;                   //全部停止
 060E           ;                  break;
 060E           ;                case 6:
 060E           ;                  Set_White_off(10,3,11);
 060E 8BE0              ldi R24,11
 0610 8883              std y+0,R24
 0612 23E0              ldi R18,3
 0614 0AE0              ldi R16,10
 0616 0E940000          xcall _Set_White_off
 061A                   .dbline 260
 061A           ;                   prePageNum=1;
 061A 81E0              ldi R24,1
 061C 90E0              ldi R25,0
 061E 90930100          sts _prePageNum+1,R25
 0622 80930000          sts _prePageNum,R24
 0626                   .dbline 261
 0626           ;                  pageNum=5;
 0626 85E0              ldi R24,5
 0628 90930100          sts _pageNum+1,R25
 062C 80930000          sts _pageNum,R24
 0630                   .dbline 262
 0630           ;                   return;
 0630 01C0              xjmp L3
 0632           L90:
 0632                   .dbline 267
 0632           ;                 default:
 0632           ;                  break;
 0632           ;                }
 0632           ;       
 0632           ;       }
 0632           L87:
 0632           L71:
 0632           L63:
 0632           L54:
 0632           L46:
 0632           L44:
 0632                   .dbline 268
 0632           ;   }
 0632           L12:
 0632                   .dbline 55
 0632 45CD              xjmp L11
 0634           X48:
 0634                   .dbline -2
 0634           L3:
 0634                   .dbline 0 ; func end
 0634 2296              adiw R28,2
 0636 0C940000          xjmp pop_xgsetF03C
 063A                   .dbsym r cur 20 i
 063A                   .dbsym r keyV 10 c
 063A                   .dbsym r y 22 i
 063A                   .dbsym r i 10 i
 063A                   .dbend
 063A                   .dbfunc e page3 _page3 fV
                        .even
 063A           _page3::
 063A 2297              sbiw R28,2
 063C                   .dbline -1
 063C                   .dbline 271
 063C           ;    return;
 063C           ; }
 063C           ;  void page3(void){
 063C                   .dbline 272
 063C           ;    lcd_write_str(1,1,"Page3");
 063C 80E0              ldi R24,<L99
 063E 90E0              ldi R25,>L99
 0640 9983              std y+1,R25
 0642 8883              std y+0,R24
 0644 21E0              ldi R18,1
 0646 01E0              ldi R16,1
 0648 0E940000          xcall _lcd_write_str
 064C                   .dbline -2
 064C           L98:
 064C                   .dbline 0 ; func end
 064C 2296              adiw R28,2
 064E 0895              ret
 0650                   .dbend
 0650                   .dbfunc e page5 _page5 fV
 0650           ;            cur -> R20,R21
 0650           ;           keyV -> R22
                        .even
 0650           _page5::
 0650 0E940000          xcall push_xgsetF000
 0654 2297              sbiw R28,2
 0656                   .dbline -1
 0656                   .dbline 274
 0656           ;  }
 0656           ;  void page5(void){
 0656                   .dbline 275
 0656           ;   uint cur=0;
 0656                   .dbline 277
 0656           ;    uchar keyV;
 0656           ;    lcd_write_str(4,0,"断电自动重置");
 0656 80E0              ldi R24,<L101
 0658 90E0              ldi R25,>L101
 065A 9983              std y+1,R25
 065C 8883              std y+0,R24
 065E 2227              clr R18
 0660 04E0              ldi R16,4
 0662 0E940000          xcall _lcd_write_str
 0666                   .dbline 278
 0666           ;    lcd_write_str(4,1,"设置时间");
 0666 80E0              ldi R24,<L102
 0668 90E0              ldi R25,>L102
 066A 9983              std y+1,R25
 066C 8883              std y+0,R24
 066E 21E0              ldi R18,1
 0670 04E0              ldi R16,4
 0672 0E940000          xcall _lcd_write_str
 0676                   .dbline 279
 0676           ;    lcd_write_str(4,2,"重置系统");
 0676 80E0              ldi R24,<L103
 0678 90E0              ldi R25,>L103
 067A 9983              std y+1,R25
 067C 8883              std y+0,R24
 067E 22E0              ldi R18,2
 0680 04E0              ldi R16,4
 0682 0E940000          xcall _lcd_write_str
 0686                   .dbline 280
 0686           ;    lcd_write_char(3,0,0xA1);
 0686 81EA              ldi R24,161
 0688 8883              std y+0,R24
 068A 2227              clr R18
 068C 03E0              ldi R16,3
 068E 0E940000          xcall _lcd_write_char
 0692                   .dbline 281
 0692           ;    lcd_write_char_con(0,0xC1);
 0692 21EC              ldi R18,193
 0694 0027              clr R16
 0696 0E940000          xcall _lcd_write_char_con
 069A                   .dbline 285
 069A           ;    
 069A           ;    /* lcd_write_char(1,0,0xA1);
 069A           ;    lcd_write_char_con(0,0xCC);*/
 069A           ;    cur=0;
 069A 4427              clr R20
 069C 5527              clr R21
 069E                   .dbline 286
 069E           ;    Set_White(5,0,10);
 069E 8AE0              ldi R24,10
 06A0 8883              std y+0,R24
 06A2 2227              clr R18
 06A4 05E0              ldi R16,5
 06A6 0E940000          xcall _Set_White
 06AA 97C0              xjmp L105
 06AC           L104:
 06AC                   .dbline 287
 06AC           ;    while(1){
 06AC                   .dbline 288
 06AC           ;       keyV=KeyScan_once();
 06AC 0E940000          xcall _KeyScan_once
 06B0 602F              mov R22,R16
 06B2                   .dbline 289
 06B2           ;         if(keyV=='u'){
 06B2 0537              cpi R16,117
 06B4 39F5              brne L107
 06B6           X62:
 06B6                   .dbline 289
 06B6                   .dbline 290
 06B6           ;           switch(cur){
 06B6 4130              cpi R20,1
 06B8 E0E0              ldi R30,0
 06BA 5E07              cpc R21,R30
 06BC 29F0              breq L111
 06BE           X63:
 06BE 4230              cpi R20,2
 06C0 E0E0              ldi R30,0
 06C2 5E07              cpc R21,R30
 06C4 81F0              breq L112
 06C6           X64:
 06C6 89C0              xjmp L108
 06C8           L111:
 06C8                   .dbline 292
 06C8           ;                 case 1:
 06C8           ;                  Set_White_off(5,1,8);
 06C8 88E0              ldi R24,8
 06CA 8883              std y+0,R24
 06CC 21E0              ldi R18,1
 06CE 05E0              ldi R16,5
 06D0 0E940000          xcall _Set_White_off
 06D4                   .dbline 293
 06D4           ;                  Set_White(5,0,10);
 06D4 8AE0              ldi R24,10
 06D6 8883              std y+0,R24
 06D8 2227              clr R18
 06DA 05E0              ldi R16,5
 06DC 0E940000          xcall _Set_White
 06E0                   .dbline 294
 06E0           ;                  cur=0;
 06E0 4427              clr R20
 06E2 5527              clr R21
 06E4                   .dbline 295
 06E4           ;                  break;
 06E4 7AC0              xjmp L108
 06E6           L112:
 06E6                   .dbline 297
 06E6           ;                 case 2: 
 06E6           ;                  Set_White_off(5,2,8);
 06E6 88E0              ldi R24,8
 06E8 8883              std y+0,R24
 06EA 22E0              ldi R18,2
 06EC 05E0              ldi R16,5
 06EE 0E940000          xcall _Set_White_off
 06F2                   .dbline 298
 06F2           ;                  Set_White(5,1,8);
 06F2 88E0              ldi R24,8
 06F4 8883              std y+0,R24
 06F6 21E0              ldi R18,1
 06F8 05E0              ldi R16,5
 06FA 0E940000          xcall _Set_White
 06FE                   .dbline 299
 06FE           ;                  cur=1;
 06FE 41E0              ldi R20,1
 0700 50E0              ldi R21,0
 0702                   .dbline 300
 0702           ;                  break;
 0702                   .dbline 302
 0702           ;               }
 0702           ;         }else if(keyV=='d'){
 0702 6BC0              xjmp L108
 0704           L107:
 0704                   .dbline 302
 0704 6436              cpi R22,100
 0706 31F5              brne L113
 0708           X65:
 0708                   .dbline 302
 0708                   .dbline 303
 0708           ;             switch(cur){
 0708 4030              cpi R20,0
 070A 4507              cpc R20,R21
 070C 29F0              breq L117
 070E           X66:
 070E 4130              cpi R20,1
 0710 E0E0              ldi R30,0
 0712 5E07              cpc R21,R30
 0714 81F0              breq L118
 0716           X67:
 0716 61C0              xjmp L114
 0718           L117:
 0718                   .dbline 305
 0718           ;                 case 0:
 0718           ;                  Set_White_off(5,0,10);
 0718 8AE0              ldi R24,10
 071A 8883              std y+0,R24
 071C 2227              clr R18
 071E 05E0              ldi R16,5
 0720 0E940000          xcall _Set_White_off
 0724                   .dbline 306
 0724           ;                  Set_White(5,1,8);
 0724 88E0              ldi R24,8
 0726 8883              std y+0,R24
 0728 21E0              ldi R18,1
 072A 05E0              ldi R16,5
 072C 0E940000          xcall _Set_White
 0730                   .dbline 307
 0730           ;                  cur=1;
 0730 41E0              ldi R20,1
 0732 50E0              ldi R21,0
 0734                   .dbline 308
 0734           ;                  break;
 0734 52C0              xjmp L114
 0736           L118:
 0736                   .dbline 310
 0736           ;                 case 1: 
 0736           ;                  Set_White_off(5,1,8);
 0736 88E0              ldi R24,8
 0738 8883              std y+0,R24
 073A 21E0              ldi R18,1
 073C 05E0              ldi R16,5
 073E 0E940000          xcall _Set_White_off
 0742                   .dbline 311
 0742           ;                  Set_White(5,2,8);
 0742 88E0              ldi R24,8
 0744 8883              std y+0,R24
 0746 22E0              ldi R18,2
 0748 05E0              ldi R16,5
 074A 0E940000          xcall _Set_White
 074E                   .dbline 312
 074E           ;                  cur=2;
 074E 42E0              ldi R20,2
 0750 50E0              ldi R21,0
 0752                   .dbline 313
 0752           ;                  break;
 0752                   .dbline 315
 0752           ;               }
 0752           ;         }else if(keyV=='e'){
 0752 43C0              xjmp L114
 0754           L113:
 0754                   .dbline 315
 0754 6536              cpi R22,101
 0756 39F5              brne L119
 0758           X68:
 0758                   .dbline 315
 0758                   .dbline 316
 0758           ;            switch(cur){
 0758 4030              cpi R20,0
 075A 4507              cpc R20,R21
 075C 49F0              breq L123
 075E           X69:
 075E 4130              cpi R20,1
 0760 E0E0              ldi R30,0
 0762 5E07              cpc R21,R30
 0764 61F0              breq L124
 0766           X70:
 0766 4230              cpi R20,2
 0768 E0E0              ldi R30,0
 076A 5E07              cpc R21,R30
 076C 79F0              breq L125
 076E           X71:
 076E 14C0              xjmp L122
 0770           L123:
 0770                   .dbline 318
 0770           ;                case 0: 
 0770           ;                  Set_White_off(5,0,10);
 0770 8AE0              ldi R24,10
 0772 8883              std y+0,R24
 0774 2227              clr R18
 0776 05E0              ldi R16,5
 0778 0E940000          xcall _Set_White_off
 077C                   .dbline 319
 077C           ;                   break;
 077C 0DC0              xjmp L122
 077E           L124:
 077E                   .dbline 321
 077E           ;                case 1:
 077E           ;                  Set_White_off(5,1,8);
 077E 88E0              ldi R24,8
 0780 8883              std y+0,R24
 0782 21E0              ldi R18,1
 0784 05E0              ldi R16,5
 0786 0E940000          xcall _Set_White_off
 078A                   .dbline 322
 078A           ;                  break;
 078A 06C0              xjmp L122
 078C           L125:
 078C                   .dbline 324
 078C           ;                case 2:
 078C           ;                 Set_White_off(5,2,8);
 078C 88E0              ldi R24,8
 078E 8883              std y+0,R24
 0790 22E0              ldi R18,2
 0792 05E0              ldi R16,5
 0794 0E940000          xcall _Set_White_off
 0798                   .dbline 325
 0798           ;                 break;
 0798                   .dbline 328
 0798           ;       
 0798           ;                 default:
 0798           ;                  break;
 0798           L122:
 0798                   .dbline 330
 0798           ;                }
 0798           ;           pageNum=1;
 0798 81E0              ldi R24,1
 079A 90E0              ldi R25,0
 079C 90930100          sts _pageNum+1,R25
 07A0 80930000          sts _pageNum,R24
 07A4                   .dbline 331
 07A4           ;               return;
 07A4 1BC0              xjmp L100
 07A6           L119:
 07A6                   .dbline 332
 07A6           ;         }else if(keyV=='t'){
 07A6 6437              cpi R22,116
 07A8 C1F4              brne L126
 07AA           X72:
 07AA                   .dbline 332
 07AA                   .dbline 333
 07AA           ;           switch(cur){
 07AA 4030              cpi R20,0
 07AC 4507              cpc R20,R21
 07AE A9F0              breq L129
 07B0           X73:
 07B0 4130              cpi R20,1
 07B2 E0E0              ldi R30,0
 07B4 5E07              cpc R21,R30
 07B6 29F0              breq L131
 07B8           X74:
 07B8 4230              cpi R20,2
 07BA E0E0              ldi R30,0
 07BC 5E07              cpc R21,R30
 07BE 69F0              breq L129
 07C0           X75:
 07C0 0CC0              xjmp L128
 07C2           L131:
 07C2                   .dbline 338
 07C2           ;                 case 0:
 07C2           ;                    //执行EEPROM操作
 07C2           ;                   break;
 07C2           ;                 case 1:
 07C2           ;                  pageNum=8;
 07C2 88E0              ldi R24,8
 07C4 90E0              ldi R25,0
 07C6 90930100          sts _pageNum+1,R25
 07CA 80930000          sts _pageNum,R24
 07CE                   .dbline 339
 07CE           ;                  Set_White_off(5,1,8);
 07CE 8883              std y+0,R24
 07D0 21E0              ldi R18,1
 07D2 05E0              ldi R16,5
 07D4 0E940000          xcall _Set_White_off
 07D8                   .dbline 340
 07D8           ;                  return;
 07D8 01C0              xjmp L100
 07DA           L128:
 07DA           L129:
 07DA                   .dbline 347
 07DA           ;                 
 07DA           ;                 case 2:
 07DA           ;                   //重置系统
 07DA           ;                   break;
 07DA           ;               }
 07DA           ;           
 07DA           ;         }
 07DA           L126:
 07DA           L114:
 07DA           L108:
 07DA                   .dbline 348
 07DA           ;    }
 07DA           L105:
 07DA                   .dbline 287
 07DA 68CF              xjmp L104
 07DC           X76:
 07DC                   .dbline -2
 07DC           L100:
 07DC                   .dbline 0 ; func end
 07DC 2296              adiw R28,2
 07DE 0C940000          xjmp pop_xgsetF000
 07E2                   .dbsym r cur 20 i
 07E2                   .dbsym r keyV 22 c
 07E2                   .dbend
 07E2                   .dbfunc e page8 _page8 fV
                        .even
 07E2           _page8::
 07E2 2297              sbiw R28,2
 07E4                   .dbline -1
 07E4                   .dbline 351
 07E4           ;    
 07E4           ;  }
 07E4           ;  void page8(void){
 07E4                   .dbline 352
 07E4           ;    lcd_write_str(1,1,"Page8");
 07E4 80E0              ldi R24,<L134
 07E6 90E0              ldi R25,>L134
 07E8 9983              std y+1,R25
 07EA 8883              std y+0,R24
 07EC 21E0              ldi R18,1
 07EE 01E0              ldi R16,1
 07F0 0E940000          xcall _lcd_write_str
 07F4           L135:
 07F4                   .dbline 353
 07F4           ;    while(1){
 07F4                   .dbline 355
 07F4           ;    
 07F4           ;    }
 07F4           L136:
 07F4                   .dbline 353
 07F4 FFCF              xjmp L135
 07F6           X77:
 07F6                   .dbline -2
 07F6           L133:
 07F6                   .dbline 0 ; func end
 07F6 2296              adiw R28,2
 07F8 0895              ret
 07FA                   .dbend
 07FA                   .dbfunc e dispatchPages _dispatchPages fV
                        .even
 07FA           _dispatchPages::
 07FA                   .dbline -1
 07FA                   .dbline 358
 07FA           ;  }
 07FA           ; //分发Pages
 07FA           ; void dispatchPages(void){
 07FA                   .dbline 359
 07FA           ;       lcd_clear();//清屏幕
 07FA 0E940000          xcall _lcd_clear
 07FE                   .dbline 360
 07FE           ;       if(pageNum==1){
 07FE 80910000          lds R24,_pageNum
 0802 90910100          lds R25,_pageNum+1
 0806 8130              cpi R24,1
 0808 E0E0              ldi R30,0
 080A 9E07              cpc R25,R30
 080C 11F4              brne L139
 080E           X78:
 080E                   .dbline 360
 080E                   .dbline 361
 080E           ;           page1();
 080E 05DC              xcall _page1
 0810                   .dbline 362
 0810           ;         }else if(pageNum==2){
 0810 41C0              xjmp L140
 0812           L139:
 0812                   .dbline 362
 0812 80910000          lds R24,_pageNum
 0816 90910100          lds R25,_pageNum+1
 081A 8230              cpi R24,2
 081C E0E0              ldi R30,0
 081E 9E07              cpc R25,R30
 0820 09F4              brne L141
 0822           X79:
 0822                   .dbline 362
 0822                   .dbline 364
 0822           ;          // page2();
 0822           ;         }else if(pageNum==3){
 0822 38C0              xjmp L142
 0824           L141:
 0824                   .dbline 364
 0824 80910000          lds R24,_pageNum
 0828 90910100          lds R25,_pageNum+1
 082C 8330              cpi R24,3
 082E E0E0              ldi R30,0
 0830 9E07              cpc R25,R30
 0832 11F4              brne L143
 0834           X80:
 0834                   .dbline 364
 0834                   .dbline 365
 0834           ;           page3();
 0834 02DF              xcall _page3
 0836                   .dbline 366
 0836           ;         }else if(pageNum==4){
 0836 2EC0              xjmp L144
 0838           L143:
 0838                   .dbline 366
 0838 80910000          lds R24,_pageNum
 083C 90910100          lds R25,_pageNum+1
 0840 8430              cpi R24,4
 0842 E0E0              ldi R30,0
 0844 9E07              cpc R25,R30
 0846 09F4              brne L145
 0848           X81:
 0848                   .dbline 366
 0848                   .dbline 368
 0848           ;          // page4();
 0848           ;         }else if(pageNum==5){
 0848 25C0              xjmp L146
 084A           L145:
 084A                   .dbline 368
 084A 80910000          lds R24,_pageNum
 084E 90910100          lds R25,_pageNum+1
 0852 8530              cpi R24,5
 0854 E0E0              ldi R30,0
 0856 9E07              cpc R25,R30
 0858 11F4              brne L147
 085A           X82:
 085A                   .dbline 368
 085A                   .dbline 369
 085A           ;           page5();
 085A FADE              xcall _page5
 085C                   .dbline 370
 085C           ;         }else if(pageNum==6){
 085C 1BC0              xjmp L148
 085E           L147:
 085E                   .dbline 370
 085E 80910000          lds R24,_pageNum
 0862 90910100          lds R25,_pageNum+1
 0866 8630              cpi R24,6
 0868 E0E0              ldi R30,0
 086A 9E07              cpc R25,R30
 086C 09F4              brne L149
 086E           X83:
 086E                   .dbline 370
 086E                   .dbline 372
 086E           ;          // page6();
 086E           ;         }else if(pageNum==7){
 086E 12C0              xjmp L150
 0870           L149:
 0870                   .dbline 372
 0870 80910000          lds R24,_pageNum
 0874 90910100          lds R25,_pageNum+1
 0878 8730              cpi R24,7
 087A E0E0              ldi R30,0
 087C 9E07              cpc R25,R30
 087E 09F4              brne L151
 0880           X84:
 0880                   .dbline 372
 0880                   .dbline 374
 0880           ;           //page7();
 0880           ;         }else if(pageNum==8){
 0880 09C0              xjmp L152
 0882           L151:
 0882                   .dbline 374
 0882 80910000          lds R24,_pageNum
 0886 90910100          lds R25,_pageNum+1
 088A 8830              cpi R24,8
 088C E0E0              ldi R30,0
 088E 9E07              cpc R25,R30
 0890 09F4              brne L153
 0892           X85:
 0892                   .dbline 374
 0892                   .dbline 375
 0892           ;           page8();
 0892 A7DF              xcall _page8
 0894                   .dbline 376
 0894           ;         }
 0894           L153:
 0894           L152:
 0894           L150:
 0894           L148:
 0894           L146:
 0894           L144:
 0894           L142:
 0894           L140:
 0894                   .dbline -2
 0894           L138:
 0894                   .dbline 0 ; func end
 0894 0895              ret
 0896                   .dbend
                        .area data(ram, con, rel)
 0000                   .dbfile E:\ICCDemo\Temp_Control\temp_control\pages.c
 0000           L134:
 0000                   .blkb 6
                        .area idata
 0000 506167653800      .byte 'P,'a,'g,'e,56,0
                        .area data(ram, con, rel)
 0006                   .dbfile E:\ICCDemo\Temp_Control\temp_control\pages.c
 0006           L103:
 0006                   .blkb 9
                        .area idata
 0006 D6D8D6C3CFB5CDB300        .byte 214,216,214,195,207,181,205,179,0
                        .area data(ram, con, rel)
 000F                   .dbfile E:\ICCDemo\Temp_Control\temp_control\pages.c
 000F           L102:
 000F                   .blkb 9
                        .area idata
 000F C9E8D6C3CAB1BCE400        .byte 201,232,214,195,202,177,188,228,0
                        .area data(ram, con, rel)
 0018                   .dbfile E:\ICCDemo\Temp_Control\temp_control\pages.c
 0018           L101:
 0018                   .blkb 13
                        .area idata
 0018 B6CFB5E7D7D4B6AFD6D8D6C300        .byte 182,207,181,231,215,212,182,175,214,216,214,195,0
                        .area data(ram, con, rel)
 0025                   .dbfile E:\ICCDemo\Temp_Control\temp_control\pages.c
 0025           L99:
 0025                   .blkb 6
                        .area idata
 0025 506167653300      .byte 'P,'a,'g,'e,51,0
                        .area data(ram, con, rel)
 002B                   .dbfile E:\ICCDemo\Temp_Control\temp_control\pages.c
 002B           L42:
 002B                   .blkb 5
                        .area idata
 002B BCD3D4D800        .byte 188,211,212,216,0
                        .area data(ram, con, rel)
 0030                   .dbfile E:\ICCDemo\Temp_Control\temp_control\pages.c
 0030           L40:
 0030                   .blkb 5
                        .area idata
 0030 B5C8B4FD00        .byte 181,200,180,253,0
                        .area data(ram, con, rel)
 0035                   .dbfile E:\ICCDemo\Temp_Control\temp_control\pages.c
 0035           L38:
 0035                   .blkb 5
                        .area idata
 0035 BDE1CAF800        .byte 189,225,202,248,0
                        .area data(ram, con, rel)
 003A                   .dbfile E:\ICCDemo\Temp_Control\temp_control\pages.c
 003A           L36:
 003A                   .blkb 5
                        .area idata
 003A D4DDCDA300        .byte 212,221,205,163,0
                        .area data(ram, con, rel)
 003F                   .dbfile E:\ICCDemo\Temp_Control\temp_control\pages.c
 003F           L34:
 003F                   .blkb 5
                        .area idata
 003F B9CAD5CF00        .byte 185,202,213,207,0
                        .area data(ram, con, rel)
 0044                   .dbfile E:\ICCDemo\Temp_Control\temp_control\pages.c
 0044           L32:
 0044                   .blkb 4
                        .area idata
 0044 31353000          .byte 49,53,48,0
                        .area data(ram, con, rel)
 0048                   .dbfile E:\ICCDemo\Temp_Control\temp_control\pages.c
 0048           L30:
 0048                   .blkb 5
                        .area idata
 0048 CDA3D6B900        .byte 205,163,214,185,0
                        .area data(ram, con, rel)
 004D                   .dbfile E:\ICCDemo\Temp_Control\temp_control\pages.c
 004D           L10:
 004D                   .blkb 5
                        .area idata
 004D C9E8D6C300        .byte 201,232,214,195,0
                        .area data(ram, con, rel)
 0052                   .dbfile E:\ICCDemo\Temp_Control\temp_control\pages.c
 0052           L9:
 0052                   .blkb 9
                        .area idata
 0052 CDA3D6B92020202000        .byte 205,163,214,185,32,32,32,32,0
                        .area data(ram, con, rel)
 005B                   .dbfile E:\ICCDemo\Temp_Control\temp_control\pages.c
 005B           L8:
 005B                   .blkb 9
                        .area idata
 005B BFAACABC2020202000        .byte 191,170,202,188,32,32,32,32,0
                        .area data(ram, con, rel)
 0064                   .dbfile E:\ICCDemo\Temp_Control\temp_control\pages.c
 0064           L7:
 0064                   .blkb 9
                        .area idata
 0064 2054343AB9CAD5CF00        .byte 32,'T,52,58,185,202,213,207,0
                        .area data(ram, con, rel)
 006D                   .dbfile E:\ICCDemo\Temp_Control\temp_control\pages.c
 006D           L6:
 006D                   .blkb 9
                        .area idata
 006D 2054333ACDA3D6B900        .byte 32,'T,51,58,205,163,214,185,0
                        .area data(ram, con, rel)
 0076                   .dbfile E:\ICCDemo\Temp_Control\temp_control\pages.c
 0076           L5:
 0076                   .blkb 8
                        .area idata
 0076 2054323A38303000  .byte 32,'T,50,58,56,48,48,0
                        .area data(ram, con, rel)
 007E                   .dbfile E:\ICCDemo\Temp_Control\temp_control\pages.c
 007E           L4:
 007E                   .blkb 8
                        .area idata
 007E 2054313A31303000  .byte 32,'T,49,58,49,48,48,0
                        .area data(ram, con, rel)
 0086                   .dbfile E:\ICCDemo\Temp_Control\temp_control\pages.c
 0086           L2:
 0086                   .blkb 6
                        .area idata
 0086 CAB1BCE43A00      .byte 202,177,188,228,58,0
                        .area data(ram, con, rel)
 008C                   .dbfile E:\ICCDemo\Temp_Control\temp_control\pages.c
 008C           ;                
 008C           ; }
