                        .module temp.c
                        .area text(rom, con, rel)
 0000                   .dbfile temp.c
                        .area vector(rom, abs)
                        .org 12
 000C 0C940000          jmp _int_int2
                        .area text(rom, con, rel)
 0000                   .dbfile temp.c
 0000                   .dbfile E:\ICCDemo\Temp_Control\temp_control\temp.c
 0000                   .dbfunc e int_int2 _int_int2 fV
 0000           ;          cache -> R20,R21
                        .even
 0000           _int_int2::
 0000 0A92              st -y,R0
 0002 1A92              st -y,R1
 0004 2A92              st -y,R2
 0006 3A92              st -y,R3
 0008 4A92              st -y,R4
 000A 5A92              st -y,R5
 000C 6A92              st -y,R6
 000E 7A92              st -y,R7
 0010 8A92              st -y,R8
 0012 9A92              st -y,R9
 0014 0A93              st -y,R16
 0016 1A93              st -y,R17
 0018 2A93              st -y,R18
 001A 3A93              st -y,R19
 001C 8A93              st -y,R24
 001E 9A93              st -y,R25
 0020 AA93              st -y,R26
 0022 BA93              st -y,R27
 0024 EA93              st -y,R30
 0026 FA93              st -y,R31
 0028 0FB6              IN R0,63
 002A 0A92              st -y,R0
 002C 0E940000          xcall push_xgset300C
 0030 2297              sbiw R28,2
 0032                   .dbline -1
 0032                   .dbline 17
 0032           ; #include<iom128v.h>
 0032           ; #include "temp.h"
 0032           ; #include "main.h"
 0032           ; #include "eeprom.h"
 0032           ; #include "lcd.h"
 0032           ; #include "max6675.h"
 0032           ; uint second;
 0032           ; void PID_realize(uint temp_n);
 0032           ; void set_start_real(uint t);
 0032           ; 
 0032           ; //中断1s进入，使用int2。可以使用，但是买的这个DS1307，硬件电路问题不可以使用
 0032           ; //  进行状态变换和参数调整,
 0032           ; /*升温：没1C变化温度更改参数，状态计算
 0032           ; /*恒温：只计算状态
 0032           ; /*****************************/
 0032           ; #pragma interrupt_handler int_int2:4
 0032           ; void int_int2(void){//做温度数据时间增加操作。不能做耗时的操作.中断优先级较高
 0032                   .dbline 18
 0032           ;   uint cache=0;//保存多次使用的数据，局部变量更快
 0032 4427              clr R20
 0034 5527              clr R21
 0036                   .dbline 19
 0036           ;   EIMSK &= 0xFB;//关中断2
 0036 89B7              in R24,0x39
 0038 8B7F              andi R24,251
 003A 89BF              out 0x39,R24
 003C                   .dbline 20
 003C           ;   TIMSK&=0xBF;//关定时器2溢出中断,8位的
 003C 87B7              in R24,0x37
 003E 8F7B              andi R24,191
 0040 87BF              out 0x37,R24
 0042                   .dbline 22
 0042           ;   //10分钟计时
 0042           ;   second++;
 0042 80910000          lds R24,_second
 0046 90910100          lds R25,_second+1
 004A 0196              adiw R24,1
 004C 90930100          sts _second+1,R25
 0050 80930000          sts _second,R24
 0054                   .dbline 23
 0054           ;   if(second>600){
 0054 88E5              ldi R24,600
 0056 92E0              ldi R25,2
 0058 20900000          lds R2,_second
 005C 30900100          lds R3,_second+1
 0060 8215              cp R24,R2
 0062 9305              cpc R25,R3
 0064 08F0              brlo X41
 0066 27C3              xjmp L2
 0068           X41:
 0068           X0:
 0068                   .dbline 23
 0068                   .dbline 25
 0068           ;      //保存状态。保存flag、status、nowtime就行，下面需加上判断
 0068           ;        second=0;
 0068 2224              clr R2
 006A 3324              clr R3
 006C 30920100          sts _second+1,R3
 0070 20920000          sts _second,R2
 0074                   .dbline 26
 0074           ;         EEPROM_write(1,133,temps[0].flag);
 0074 20900000          lds R2,_temps
 0078 30900100          lds R3,_temps+1
 007C 3982              std y+1,R3
 007E 2882              std y+0,R2
 0080 25E8              ldi R18,133
 0082 30E0              ldi R19,0
 0084 01E0              ldi R16,1
 0086 10E0              ldi R17,0
 0088 0E940000          xcall _EEPROM_write
 008C                   .dbline 27
 008C           ;         if(temps[0].flag==1 || temps[0].flag==3){
 008C 20900000          lds R2,_temps
 0090 30900100          lds R3,_temps+1
 0094 C101              movw R24,R2
 0096 8130              cpi R24,1
 0098 E0E0              ldi R30,0
 009A 9E07              cpc R25,R30
 009C 29F0              breq L6
 009E           X1:
 009E 8330              cpi R24,3
 00A0 E0E0              ldi R30,0
 00A2 9E07              cpc R25,R30
 00A4 09F0              breq X42
 00A6 AFC0              xjmp L4
 00A8           X42:
 00A8           X2:
 00A8           L6:
 00A8                   .dbline 27
 00A8                   .dbline 28
 00A8           ;           EEPROM_write(1,134,temps[0].status);
 00A8 20900A01          lds R2,_temps+266
 00AC 30900B01          lds R3,_temps+266+1
 00B0 3982              std y+1,R3
 00B2 2882              std y+0,R2
 00B4 26E8              ldi R18,134
 00B6 30E0              ldi R19,0
 00B8 01E0              ldi R16,1
 00BA 10E0              ldi R17,0
 00BC 0E940000          xcall _EEPROM_write
 00C0                   .dbline 29
 00C0           ;           EEPROM_write(1,135,temps[0].needtime>>8);
 00C0 20900C01          lds R2,_temps+268
 00C4 30900D01          lds R3,_temps+268+1
 00C8 232C              mov R2,R3
 00CA 3324              clr R3
 00CC 3982              std y+1,R3
 00CE 2882              std y+0,R2
 00D0 27E8              ldi R18,135
 00D2 30E0              ldi R19,0
 00D4 01E0              ldi R16,1
 00D6 10E0              ldi R17,0
 00D8 0E940000          xcall _EEPROM_write
 00DC                   .dbline 30
 00DC           ;               EEPROM_write(1,136,temps[0].needtime & 0xFF);
 00DC 80910C01          lds R24,_temps+268
 00E0 90910D01          lds R25,_temps+268+1
 00E4 9070              andi R25,0
 00E6 9983              std y+1,R25
 00E8 8883              std y+0,R24
 00EA 28E8              ldi R18,136
 00EC 30E0              ldi R19,0
 00EE 01E0              ldi R16,1
 00F0 10E0              ldi R17,0
 00F2 0E940000          xcall _EEPROM_write
 00F6                   .dbline 31
 00F6           ;               EEPROM_write(1,137,temps[0].nowtime>>8);
 00F6 20900E01          lds R2,_temps+270
 00FA 30900F01          lds R3,_temps+270+1
 00FE 232C              mov R2,R3
 0100 3324              clr R3
 0102 3982              std y+1,R3
 0104 2882              std y+0,R2
 0106 29E8              ldi R18,137
 0108 30E0              ldi R19,0
 010A 01E0              ldi R16,1
 010C 10E0              ldi R17,0
 010E 0E940000          xcall _EEPROM_write
 0112                   .dbline 32
 0112           ;               EEPROM_write(1,138,temps[0].nowtime & 0xFF);
 0112 80910E01          lds R24,_temps+270
 0116 90910F01          lds R25,_temps+270+1
 011A 9070              andi R25,0
 011C 9983              std y+1,R25
 011E 8883              std y+0,R24
 0120 2AE8              ldi R18,138
 0122 30E0              ldi R19,0
 0124 01E0              ldi R16,1
 0126 10E0              ldi R17,0
 0128 0E940000          xcall _EEPROM_write
 012C                   .dbline 33
 012C           ;           EEPROM_write(1,139,temps[0].pertime>>8);
 012C 20901001          lds R2,_temps+272
 0130 30901101          lds R3,_temps+272+1
 0134 232C              mov R2,R3
 0136 3324              clr R3
 0138 3982              std y+1,R3
 013A 2882              std y+0,R2
 013C 2BE8              ldi R18,139
 013E 30E0              ldi R19,0
 0140 01E0              ldi R16,1
 0142 10E0              ldi R17,0
 0144 0E940000          xcall _EEPROM_write
 0148                   .dbline 34
 0148           ;               EEPROM_write(1,140,temps[0].pertime & 0xff);
 0148 80911001          lds R24,_temps+272
 014C 90911101          lds R25,_temps+272+1
 0150 9070              andi R25,0
 0152 9983              std y+1,R25
 0154 8883              std y+0,R24
 0156 2CE8              ldi R18,140
 0158 30E0              ldi R19,0
 015A 01E0              ldi R16,1
 015C 10E0              ldi R17,0
 015E 0E940000          xcall _EEPROM_write
 0162                   .dbline 36
 0162           ;               
 0162           ;           EEPROM_write(1,141,temps[0].statusflag);
 0162 20901401          lds R2,_temps+276
 0166 30901501          lds R3,_temps+276+1
 016A 3982              std y+1,R3
 016C 2882              std y+0,R2
 016E 2DE8              ldi R18,141
 0170 30E0              ldi R19,0
 0172 01E0              ldi R16,1
 0174 10E0              ldi R17,0
 0176 0E940000          xcall _EEPROM_write
 017A                   .dbline 37
 017A           ;           EEPROM_write(1,142,temps[0].p_settemp>>8 );
 017A 20901601          lds R2,_temps+278
 017E 30901701          lds R3,_temps+278+1
 0182 232C              mov R2,R3
 0184 3324              clr R3
 0186 3982              std y+1,R3
 0188 2882              std y+0,R2
 018A 2EE8              ldi R18,142
 018C 30E0              ldi R19,0
 018E 01E0              ldi R16,1
 0190 10E0              ldi R17,0
 0192 0E940000          xcall _EEPROM_write
 0196                   .dbline 38
 0196           ;               EEPROM_write(1,143,temps[0].p_settemp&0xff);
 0196 80911601          lds R24,_temps+278
 019A 90911701          lds R25,_temps+278+1
 019E 9070              andi R25,0
 01A0 9983              std y+1,R25
 01A2 8883              std y+0,R24
 01A4 2FE8              ldi R18,143
 01A6 30E0              ldi R19,0
 01A8 01E0              ldi R16,1
 01AA 10E0              ldi R17,0
 01AC 0E940000          xcall _EEPROM_write
 01B0                   .dbline 39
 01B0           ;               EEPROM_write(1,144,((int)temps[0].settemp)>>8);
 01B0 20912201          lds R18,_temps+288+2
 01B4 30912301          lds R19,_temps+288+2+1
 01B8 00912001          lds R16,_temps+288
 01BC 10912101          lds R17,_temps+288+1
 01C0 0E940000          xcall fpint
 01C4 1801              movw R2,R16
 01C6 232C              mov R2,R3
 01C8 3324              clr R3
 01CA 27FC              sbrc R2,7
 01CC 3094              com R3
 01CE 3982              std y+1,R3
 01D0 2882              std y+0,R2
 01D2 20E9              ldi R18,144
 01D4 30E0              ldi R19,0
 01D6 01E0              ldi R16,1
 01D8 10E0              ldi R17,0
 01DA 0E940000          xcall _EEPROM_write
 01DE                   .dbline 40
 01DE           ;           EEPROM_write(1,145,((int)temps[0].settemp)&0xff);
 01DE 20912201          lds R18,_temps+288+2
 01E2 30912301          lds R19,_temps+288+2+1
 01E6 00912001          lds R16,_temps+288
 01EA 10912101          lds R17,_temps+288+1
 01EE 0E940000          xcall fpint
 01F2 C801              movw R24,R16
 01F4 9070              andi R25,0
 01F6 9983              std y+1,R25
 01F8 8883              std y+0,R24
 01FA 21E9              ldi R18,145
 01FC 30E0              ldi R19,0
 01FE 01E0              ldi R16,1
 0200 10E0              ldi R17,0
 0202 0E940000          xcall _EEPROM_write
 0206                   .dbline 41
 0206           ;        }
 0206           L4:
 0206                   .dbline 42
 0206           ;        EEPROM_write(2,133,temps[1].flag);
 0206 20904401          lds R2,_temps+324
 020A 30904501          lds R3,_temps+324+1
 020E 3982              std y+1,R3
 0210 2882              std y+0,R2
 0212 25E8              ldi R18,133
 0214 30E0              ldi R19,0
 0216 02E0              ldi R16,2
 0218 10E0              ldi R17,0
 021A 0E940000          xcall _EEPROM_write
 021E                   .dbline 43
 021E           ;         if(temps[1].flag==1 || temps[1].flag==3){
 021E 80914401          lds R24,_temps+324
 0222 90914501          lds R25,_temps+324+1
 0226 8130              cpi R24,1
 0228 E0E0              ldi R30,0
 022A 9E07              cpc R25,R30
 022C 29F0              breq L24
 022E           X3:
 022E 8330              cpi R24,3
 0230 E0E0              ldi R30,0
 0232 9E07              cpc R25,R30
 0234 09F0              breq X43
 0236 AFC0              xjmp L20
 0238           X43:
 0238           X4:
 0238           L24:
 0238                   .dbline 43
 0238                   .dbline 44
 0238           ;           EEPROM_write(2,134,temps[1].status);
 0238 20904E02          lds R2,_temps+324+266
 023C 30904F02          lds R3,_temps+324+266+1
 0240 3982              std y+1,R3
 0242 2882              std y+0,R2
 0244 26E8              ldi R18,134
 0246 30E0              ldi R19,0
 0248 02E0              ldi R16,2
 024A 10E0              ldi R17,0
 024C 0E940000          xcall _EEPROM_write
 0250                   .dbline 45
 0250           ;           EEPROM_write(2,135,temps[1].needtime>>8);
 0250 20905002          lds R2,_temps+324+268
 0254 30905102          lds R3,_temps+324+268+1
 0258 232C              mov R2,R3
 025A 3324              clr R3
 025C 3982              std y+1,R3
 025E 2882              std y+0,R2
 0260 27E8              ldi R18,135
 0262 30E0              ldi R19,0
 0264 02E0              ldi R16,2
 0266 10E0              ldi R17,0
 0268 0E940000          xcall _EEPROM_write
 026C                   .dbline 46
 026C           ;               EEPROM_write(2,136,temps[1].needtime & 0xFF);
 026C 80915002          lds R24,_temps+324+268
 0270 90915102          lds R25,_temps+324+268+1
 0274 9070              andi R25,0
 0276 9983              std y+1,R25
 0278 8883              std y+0,R24
 027A 28E8              ldi R18,136
 027C 30E0              ldi R19,0
 027E 02E0              ldi R16,2
 0280 10E0              ldi R17,0
 0282 0E940000          xcall _EEPROM_write
 0286                   .dbline 47
 0286           ;               EEPROM_write(2,137,temps[1].nowtime>>8);
 0286 20905202          lds R2,_temps+324+270
 028A 30905302          lds R3,_temps+324+270+1
 028E 232C              mov R2,R3
 0290 3324              clr R3
 0292 3982              std y+1,R3
 0294 2882              std y+0,R2
 0296 29E8              ldi R18,137
 0298 30E0              ldi R19,0
 029A 02E0              ldi R16,2
 029C 10E0              ldi R17,0
 029E 0E940000          xcall _EEPROM_write
 02A2                   .dbline 48
 02A2           ;               EEPROM_write(2,138,temps[1].nowtime & 0xFF);
 02A2 80915202          lds R24,_temps+324+270
 02A6 90915302          lds R25,_temps+324+270+1
 02AA 9070              andi R25,0
 02AC 9983              std y+1,R25
 02AE 8883              std y+0,R24
 02B0 2AE8              ldi R18,138
 02B2 30E0              ldi R19,0
 02B4 02E0              ldi R16,2
 02B6 10E0              ldi R17,0
 02B8 0E940000          xcall _EEPROM_write
 02BC                   .dbline 49
 02BC           ;           EEPROM_write(2,139,temps[1].pertime>>8);
 02BC 20905402          lds R2,_temps+324+272
 02C0 30905502          lds R3,_temps+324+272+1
 02C4 232C              mov R2,R3
 02C6 3324              clr R3
 02C8 3982              std y+1,R3
 02CA 2882              std y+0,R2
 02CC 2BE8              ldi R18,139
 02CE 30E0              ldi R19,0
 02D0 02E0              ldi R16,2
 02D2 10E0              ldi R17,0
 02D4 0E940000          xcall _EEPROM_write
 02D8                   .dbline 50
 02D8           ;               EEPROM_write(2,140,temps[1].pertime & 0xff);
 02D8 80915402          lds R24,_temps+324+272
 02DC 90915502          lds R25,_temps+324+272+1
 02E0 9070              andi R25,0
 02E2 9983              std y+1,R25
 02E4 8883              std y+0,R24
 02E6 2CE8              ldi R18,140
 02E8 30E0              ldi R19,0
 02EA 02E0              ldi R16,2
 02EC 10E0              ldi R17,0
 02EE 0E940000          xcall _EEPROM_write
 02F2                   .dbline 52
 02F2           ;               
 02F2           ;           EEPROM_write(2,141,temps[1].statusflag);
 02F2 20905802          lds R2,_temps+324+276
 02F6 30905902          lds R3,_temps+324+276+1
 02FA 3982              std y+1,R3
 02FC 2882              std y+0,R2
 02FE 2DE8              ldi R18,141
 0300 30E0              ldi R19,0
 0302 02E0              ldi R16,2
 0304 10E0              ldi R17,0
 0306 0E940000          xcall _EEPROM_write
 030A                   .dbline 53
 030A           ;          EEPROM_write(2,142,temps[1].p_settemp>>8 );
 030A 20905A02          lds R2,_temps+324+278
 030E 30905B02          lds R3,_temps+324+278+1
 0312 232C              mov R2,R3
 0314 3324              clr R3
 0316 3982              std y+1,R3
 0318 2882              std y+0,R2
 031A 2EE8              ldi R18,142
 031C 30E0              ldi R19,0
 031E 02E0              ldi R16,2
 0320 10E0              ldi R17,0
 0322 0E940000          xcall _EEPROM_write
 0326                   .dbline 54
 0326           ;               EEPROM_write(2,143,temps[1].p_settemp&0xff);
 0326 80915A02          lds R24,_temps+324+278
 032A 90915B02          lds R25,_temps+324+278+1
 032E 9070              andi R25,0
 0330 9983              std y+1,R25
 0332 8883              std y+0,R24
 0334 2FE8              ldi R18,143
 0336 30E0              ldi R19,0
 0338 02E0              ldi R16,2
 033A 10E0              ldi R17,0
 033C 0E940000          xcall _EEPROM_write
 0340                   .dbline 55
 0340           ;               EEPROM_write(2,144,((int)temps[1].settemp)>>8);
 0340 20916602          lds R18,_temps+324+288+2
 0344 30916702          lds R19,_temps+324+288+2+1
 0348 00916402          lds R16,_temps+324+288
 034C 10916502          lds R17,_temps+324+288+1
 0350 0E940000          xcall fpint
 0354 1801              movw R2,R16
 0356 232C              mov R2,R3
 0358 3324              clr R3
 035A 27FC              sbrc R2,7
 035C 3094              com R3
 035E 3982              std y+1,R3
 0360 2882              std y+0,R2
 0362 20E9              ldi R18,144
 0364 30E0              ldi R19,0
 0366 02E0              ldi R16,2
 0368 10E0              ldi R17,0
 036A 0E940000          xcall _EEPROM_write
 036E                   .dbline 56
 036E           ;           EEPROM_write(2,145,((int)temps[1].settemp)&0xff);
 036E 20916602          lds R18,_temps+324+288+2
 0372 30916702          lds R19,_temps+324+288+2+1
 0376 00916402          lds R16,_temps+324+288
 037A 10916502          lds R17,_temps+324+288+1
 037E 0E940000          xcall fpint
 0382 C801              movw R24,R16
 0384 9070              andi R25,0
 0386 9983              std y+1,R25
 0388 8883              std y+0,R24
 038A 21E9              ldi R18,145
 038C 30E0              ldi R19,0
 038E 02E0              ldi R16,2
 0390 10E0              ldi R17,0
 0392 0E940000          xcall _EEPROM_write
 0396                   .dbline 57
 0396           ;        }
 0396           L20:
 0396                   .dbline 58
 0396           ;        EEPROM_write(3,133,temps[2].flag);
 0396 20908802          lds R2,_temps+648
 039A 30908902          lds R3,_temps+648+1
 039E 3982              std y+1,R3
 03A0 2882              std y+0,R2
 03A2 25E8              ldi R18,133
 03A4 30E0              ldi R19,0
 03A6 03E0              ldi R16,3
 03A8 10E0              ldi R17,0
 03AA 0E940000          xcall _EEPROM_write
 03AE                   .dbline 59
 03AE           ;         if(temps[2].flag==1 || temps[2].flag==3){
 03AE 80918802          lds R24,_temps+648
 03B2 90918902          lds R25,_temps+648+1
 03B6 8130              cpi R24,1
 03B8 E0E0              ldi R30,0
 03BA 9E07              cpc R25,R30
 03BC 29F0              breq L54
 03BE           X5:
 03BE 8330              cpi R24,3
 03C0 E0E0              ldi R30,0
 03C2 9E07              cpc R25,R30
 03C4 09F0              breq X44
 03C6 AFC0              xjmp L50
 03C8           X44:
 03C8           X6:
 03C8           L54:
 03C8                   .dbline 59
 03C8                   .dbline 60
 03C8           ;           EEPROM_write(3,134,temps[2].status);
 03C8 20909203          lds R2,_temps+648+266
 03CC 30909303          lds R3,_temps+648+266+1
 03D0 3982              std y+1,R3
 03D2 2882              std y+0,R2
 03D4 26E8              ldi R18,134
 03D6 30E0              ldi R19,0
 03D8 03E0              ldi R16,3
 03DA 10E0              ldi R17,0
 03DC 0E940000          xcall _EEPROM_write
 03E0                   .dbline 61
 03E0           ;           EEPROM_write(3,135,temps[2].needtime>>8);
 03E0 20909403          lds R2,_temps+648+268
 03E4 30909503          lds R3,_temps+648+268+1
 03E8 232C              mov R2,R3
 03EA 3324              clr R3
 03EC 3982              std y+1,R3
 03EE 2882              std y+0,R2
 03F0 27E8              ldi R18,135
 03F2 30E0              ldi R19,0
 03F4 03E0              ldi R16,3
 03F6 10E0              ldi R17,0
 03F8 0E940000          xcall _EEPROM_write
 03FC                   .dbline 62
 03FC           ;               EEPROM_write(3,136,temps[2].needtime & 0xFF);
 03FC 80919403          lds R24,_temps+648+268
 0400 90919503          lds R25,_temps+648+268+1
 0404 9070              andi R25,0
 0406 9983              std y+1,R25
 0408 8883              std y+0,R24
 040A 28E8              ldi R18,136
 040C 30E0              ldi R19,0
 040E 03E0              ldi R16,3
 0410 10E0              ldi R17,0
 0412 0E940000          xcall _EEPROM_write
 0416                   .dbline 63
 0416           ;               EEPROM_write(3,137,temps[2].nowtime>>8);
 0416 20909603          lds R2,_temps+648+270
 041A 30909703          lds R3,_temps+648+270+1
 041E 232C              mov R2,R3
 0420 3324              clr R3
 0422 3982              std y+1,R3
 0424 2882              std y+0,R2
 0426 29E8              ldi R18,137
 0428 30E0              ldi R19,0
 042A 03E0              ldi R16,3
 042C 10E0              ldi R17,0
 042E 0E940000          xcall _EEPROM_write
 0432                   .dbline 64
 0432           ;               EEPROM_write(3,138,temps[2].nowtime & 0xFF);
 0432 80919603          lds R24,_temps+648+270
 0436 90919703          lds R25,_temps+648+270+1
 043A 9070              andi R25,0
 043C 9983              std y+1,R25
 043E 8883              std y+0,R24
 0440 2AE8              ldi R18,138
 0442 30E0              ldi R19,0
 0444 03E0              ldi R16,3
 0446 10E0              ldi R17,0
 0448 0E940000          xcall _EEPROM_write
 044C                   .dbline 65
 044C           ;           EEPROM_write(3,139,temps[2].pertime>>8);
 044C 20909803          lds R2,_temps+648+272
 0450 30909903          lds R3,_temps+648+272+1
 0454 232C              mov R2,R3
 0456 3324              clr R3
 0458 3982              std y+1,R3
 045A 2882              std y+0,R2
 045C 2BE8              ldi R18,139
 045E 30E0              ldi R19,0
 0460 03E0              ldi R16,3
 0462 10E0              ldi R17,0
 0464 0E940000          xcall _EEPROM_write
 0468                   .dbline 66
 0468           ;               EEPROM_write(3,140,temps[2].pertime & 0xff);
 0468 80919803          lds R24,_temps+648+272
 046C 90919903          lds R25,_temps+648+272+1
 0470 9070              andi R25,0
 0472 9983              std y+1,R25
 0474 8883              std y+0,R24
 0476 2CE8              ldi R18,140
 0478 30E0              ldi R19,0
 047A 03E0              ldi R16,3
 047C 10E0              ldi R17,0
 047E 0E940000          xcall _EEPROM_write
 0482                   .dbline 67
 0482           ;           EEPROM_write(3,141,temps[2].statusflag);
 0482 20909C03          lds R2,_temps+648+276
 0486 30909D03          lds R3,_temps+648+276+1
 048A 3982              std y+1,R3
 048C 2882              std y+0,R2
 048E 2DE8              ldi R18,141
 0490 30E0              ldi R19,0
 0492 03E0              ldi R16,3
 0494 10E0              ldi R17,0
 0496 0E940000          xcall _EEPROM_write
 049A                   .dbline 68
 049A           ;           EEPROM_write(3,142,temps[2].p_settemp>>8 );
 049A 20909E03          lds R2,_temps+648+278
 049E 30909F03          lds R3,_temps+648+278+1
 04A2 232C              mov R2,R3
 04A4 3324              clr R3
 04A6 3982              std y+1,R3
 04A8 2882              std y+0,R2
 04AA 2EE8              ldi R18,142
 04AC 30E0              ldi R19,0
 04AE 03E0              ldi R16,3
 04B0 10E0              ldi R17,0
 04B2 0E940000          xcall _EEPROM_write
 04B6                   .dbline 69
 04B6           ;               EEPROM_write(3,143,temps[2].p_settemp&0xff);
 04B6 80919E03          lds R24,_temps+648+278
 04BA 90919F03          lds R25,_temps+648+278+1
 04BE 9070              andi R25,0
 04C0 9983              std y+1,R25
 04C2 8883              std y+0,R24
 04C4 2FE8              ldi R18,143
 04C6 30E0              ldi R19,0
 04C8 03E0              ldi R16,3
 04CA 10E0              ldi R17,0
 04CC 0E940000          xcall _EEPROM_write
 04D0                   .dbline 70
 04D0           ;               EEPROM_write(3,144,((int)temps[2].settemp)>>8);
 04D0 2091AA03          lds R18,_temps+648+288+2
 04D4 3091AB03          lds R19,_temps+648+288+2+1
 04D8 0091A803          lds R16,_temps+648+288
 04DC 1091A903          lds R17,_temps+648+288+1
 04E0 0E940000          xcall fpint
 04E4 1801              movw R2,R16
 04E6 232C              mov R2,R3
 04E8 3324              clr R3
 04EA 27FC              sbrc R2,7
 04EC 3094              com R3
 04EE 3982              std y+1,R3
 04F0 2882              std y+0,R2
 04F2 20E9              ldi R18,144
 04F4 30E0              ldi R19,0
 04F6 03E0              ldi R16,3
 04F8 10E0              ldi R17,0
 04FA 0E940000          xcall _EEPROM_write
 04FE                   .dbline 71
 04FE           ;           EEPROM_write(3,145,((int)temps[2].settemp)&0xff);
 04FE 2091AA03          lds R18,_temps+648+288+2
 0502 3091AB03          lds R19,_temps+648+288+2+1
 0506 0091A803          lds R16,_temps+648+288
 050A 1091A903          lds R17,_temps+648+288+1
 050E 0E940000          xcall fpint
 0512 C801              movw R24,R16
 0514 9070              andi R25,0
 0516 9983              std y+1,R25
 0518 8883              std y+0,R24
 051A 21E9              ldi R18,145
 051C 30E0              ldi R19,0
 051E 03E0              ldi R16,3
 0520 10E0              ldi R17,0
 0522 0E940000          xcall _EEPROM_write
 0526                   .dbline 72
 0526           ;        }
 0526           L50:
 0526                   .dbline 73
 0526           ;        EEPROM_write(4,133,temps[3].flag);
 0526 2090CC03          lds R2,_temps+972
 052A 3090CD03          lds R3,_temps+972+1
 052E 3982              std y+1,R3
 0530 2882              std y+0,R2
 0532 25E8              ldi R18,133
 0534 30E0              ldi R19,0
 0536 04E0              ldi R16,4
 0538 10E0              ldi R17,0
 053A 0E940000          xcall _EEPROM_write
 053E                   .dbline 74
 053E           ;         if(temps[3].flag==1 || temps[3].flag==3){
 053E 8091CC03          lds R24,_temps+972
 0542 9091CD03          lds R25,_temps+972+1
 0546 8130              cpi R24,1
 0548 E0E0              ldi R30,0
 054A 9E07              cpc R25,R30
 054C 29F0              breq L84
 054E           X7:
 054E 8330              cpi R24,3
 0550 E0E0              ldi R30,0
 0552 9E07              cpc R25,R30
 0554 09F0              breq X45
 0556 AFC0              xjmp L80
 0558           X45:
 0558           X8:
 0558           L84:
 0558                   .dbline 74
 0558                   .dbline 75
 0558           ;           EEPROM_write(4,134,temps[3].status);
 0558 2090D604          lds R2,_temps+972+266
 055C 3090D704          lds R3,_temps+972+266+1
 0560 3982              std y+1,R3
 0562 2882              std y+0,R2
 0564 26E8              ldi R18,134
 0566 30E0              ldi R19,0
 0568 04E0              ldi R16,4
 056A 10E0              ldi R17,0
 056C 0E940000          xcall _EEPROM_write
 0570                   .dbline 76
 0570           ;           EEPROM_write(4,135,temps[3].needtime>>8);
 0570 2090D804          lds R2,_temps+972+268
 0574 3090D904          lds R3,_temps+972+268+1
 0578 232C              mov R2,R3
 057A 3324              clr R3
 057C 3982              std y+1,R3
 057E 2882              std y+0,R2
 0580 27E8              ldi R18,135
 0582 30E0              ldi R19,0
 0584 04E0              ldi R16,4
 0586 10E0              ldi R17,0
 0588 0E940000          xcall _EEPROM_write
 058C                   .dbline 77
 058C           ;               EEPROM_write(4,136,temps[3].needtime & 0xFF);
 058C 8091D804          lds R24,_temps+972+268
 0590 9091D904          lds R25,_temps+972+268+1
 0594 9070              andi R25,0
 0596 9983              std y+1,R25
 0598 8883              std y+0,R24
 059A 28E8              ldi R18,136
 059C 30E0              ldi R19,0
 059E 04E0              ldi R16,4
 05A0 10E0              ldi R17,0
 05A2 0E940000          xcall _EEPROM_write
 05A6                   .dbline 78
 05A6           ;               EEPROM_write(4,137,temps[3].nowtime>>8);
 05A6 2090DA04          lds R2,_temps+972+270
 05AA 3090DB04          lds R3,_temps+972+270+1
 05AE 232C              mov R2,R3
 05B0 3324              clr R3
 05B2 3982              std y+1,R3
 05B4 2882              std y+0,R2
 05B6 29E8              ldi R18,137
 05B8 30E0              ldi R19,0
 05BA 04E0              ldi R16,4
 05BC 10E0              ldi R17,0
 05BE 0E940000          xcall _EEPROM_write
 05C2                   .dbline 79
 05C2           ;               EEPROM_write(4,138,temps[3].nowtime & 0xFF);
 05C2 8091DA04          lds R24,_temps+972+270
 05C6 9091DB04          lds R25,_temps+972+270+1
 05CA 9070              andi R25,0
 05CC 9983              std y+1,R25
 05CE 8883              std y+0,R24
 05D0 2AE8              ldi R18,138
 05D2 30E0              ldi R19,0
 05D4 04E0              ldi R16,4
 05D6 10E0              ldi R17,0
 05D8 0E940000          xcall _EEPROM_write
 05DC                   .dbline 80
 05DC           ;           EEPROM_write(4,139,temps[3].pertime>>8);
 05DC 2090DC04          lds R2,_temps+972+272
 05E0 3090DD04          lds R3,_temps+972+272+1
 05E4 232C              mov R2,R3
 05E6 3324              clr R3
 05E8 3982              std y+1,R3
 05EA 2882              std y+0,R2
 05EC 2BE8              ldi R18,139
 05EE 30E0              ldi R19,0
 05F0 04E0              ldi R16,4
 05F2 10E0              ldi R17,0
 05F4 0E940000          xcall _EEPROM_write
 05F8                   .dbline 81
 05F8           ;               EEPROM_write(4,140,temps[3].pertime & 0xff);
 05F8 8091DC04          lds R24,_temps+972+272
 05FC 9091DD04          lds R25,_temps+972+272+1
 0600 9070              andi R25,0
 0602 9983              std y+1,R25
 0604 8883              std y+0,R24
 0606 2CE8              ldi R18,140
 0608 30E0              ldi R19,0
 060A 04E0              ldi R16,4
 060C 10E0              ldi R17,0
 060E 0E940000          xcall _EEPROM_write
 0612                   .dbline 82
 0612           ;           EEPROM_write(4,141,temps[3].statusflag);
 0612 2090E004          lds R2,_temps+972+276
 0616 3090E104          lds R3,_temps+972+276+1
 061A 3982              std y+1,R3
 061C 2882              std y+0,R2
 061E 2DE8              ldi R18,141
 0620 30E0              ldi R19,0
 0622 04E0              ldi R16,4
 0624 10E0              ldi R17,0
 0626 0E940000          xcall _EEPROM_write
 062A                   .dbline 83
 062A           ;           EEPROM_write(4,142,temps[3].p_settemp>>8 );
 062A 2090E204          lds R2,_temps+972+278
 062E 3090E304          lds R3,_temps+972+278+1
 0632 232C              mov R2,R3
 0634 3324              clr R3
 0636 3982              std y+1,R3
 0638 2882              std y+0,R2
 063A 2EE8              ldi R18,142
 063C 30E0              ldi R19,0
 063E 04E0              ldi R16,4
 0640 10E0              ldi R17,0
 0642 0E940000          xcall _EEPROM_write
 0646                   .dbline 84
 0646           ;               EEPROM_write(4,143,temps[3].p_settemp&0xff);
 0646 8091E204          lds R24,_temps+972+278
 064A 9091E304          lds R25,_temps+972+278+1
 064E 9070              andi R25,0
 0650 9983              std y+1,R25
 0652 8883              std y+0,R24
 0654 2FE8              ldi R18,143
 0656 30E0              ldi R19,0
 0658 04E0              ldi R16,4
 065A 10E0              ldi R17,0
 065C 0E940000          xcall _EEPROM_write
 0660                   .dbline 85
 0660           ;               EEPROM_write(4,144,((int)temps[3].settemp)>>8);
 0660 2091EE04          lds R18,_temps+972+288+2
 0664 3091EF04          lds R19,_temps+972+288+2+1
 0668 0091EC04          lds R16,_temps+972+288
 066C 1091ED04          lds R17,_temps+972+288+1
 0670 0E940000          xcall fpint
 0674 1801              movw R2,R16
 0676 232C              mov R2,R3
 0678 3324              clr R3
 067A 27FC              sbrc R2,7
 067C 3094              com R3
 067E 3982              std y+1,R3
 0680 2882              std y+0,R2
 0682 20E9              ldi R18,144
 0684 30E0              ldi R19,0
 0686 04E0              ldi R16,4
 0688 10E0              ldi R17,0
 068A 0E940000          xcall _EEPROM_write
 068E                   .dbline 86
 068E           ;           EEPROM_write(4,145,((int)temps[3].settemp)&0xff);
 068E 2091EE04          lds R18,_temps+972+288+2
 0692 3091EF04          lds R19,_temps+972+288+2+1
 0696 0091EC04          lds R16,_temps+972+288
 069A 1091ED04          lds R17,_temps+972+288+1
 069E 0E940000          xcall fpint
 06A2 C801              movw R24,R16
 06A4 9070              andi R25,0
 06A6 9983              std y+1,R25
 06A8 8883              std y+0,R24
 06AA 21E9              ldi R18,145
 06AC 30E0              ldi R19,0
 06AE 04E0              ldi R16,4
 06B0 10E0              ldi R17,0
 06B2 0E940000          xcall _EEPROM_write
 06B6                   .dbline 87
 06B6           ;        }
 06B6           L80:
 06B6                   .dbline 89
 06B6           ;        
 06B6           ;   }
 06B6           L2:
 06B6                   .dbline 91
 06B6           ;   //第一个
 06B6           ;   if(temps[0].flag==1){//运行中
 06B6 80910000          lds R24,_temps
 06BA 90910100          lds R25,_temps+1
 06BE 8130              cpi R24,1
 06C0 E0E0              ldi R30,0
 06C2 9E07              cpc R25,R30
 06C4 09F0              breq X46
 06C6 73C1              xjmp L109
 06C8           X46:
 06C8           X9:
 06C8                   .dbline 91
 06C8                   .dbline 92
 06C8           ;      cache=temps[0].status;//暂存当前状态
 06C8 40910A01          lds R20,_temps+266
 06CC 50910B01          lds R21,_temps+266+1
 06D0                   .dbline 93
 06D0           ;      if(temps[0].statusflag==0){//不是第一次进入当前状态
 06D0 20901401          lds R2,_temps+276
 06D4 30901501          lds R3,_temps+276+1
 06D8 2220              tst R2
 06DA 09F0              breq X47
 06DC 44C0              xjmp L112
 06DE           X47:
 06DE 3320              tst R3
 06E0 09F0              breq X48
 06E2 41C0              xjmp L112
 06E4           X48:
 06E4           X10:
 06E4                   .dbline 93
 06E4                   .dbline 94
 06E4           ;            temps[0].nowtime++;//当前阶段运行时间
 06E4 80910E01          lds R24,_temps+270
 06E8 90910F01          lds R25,_temps+270+1
 06EC 0196              adiw R24,1
 06EE 90930F01          sts _temps+270+1,R25
 06F2 80930E01          sts _temps+270,R24
 06F6                   .dbline 95
 06F6           ;               if(temps[0].nowtime>=temps[0].needtime){//当前阶段运行结束进入下一阶段
 06F6 20900C01          lds R2,_temps+268
 06FA 30900D01          lds R3,_temps+268+1
 06FE 8215              cp R24,R2
 0700 9305              cpc R25,R3
 0702 68F0              brlo L116
 0704           X11:
 0704                   .dbline 95
 0704                   .dbline 96
 0704           ;                   temps[0].status++;
 0704 CA01              movw R24,R20
 0706 0196              adiw R24,1
 0708 90930B01          sts _temps+266+1,R25
 070C 80930A01          sts _temps+266,R24
 0710                   .dbline 97
 0710           ;                   temps[0].statusflag=1;
 0710 81E0              ldi R24,1
 0712 90E0              ldi R25,0
 0714 90931501          sts _temps+276+1,R25
 0718 80931401          sts _temps+276,R24
 071C                   .dbline 99
 071C           ;                       //PORTE=0xFF;
 071C           ;               }else{//还在当前阶段
 071C 48C1              xjmp L113
 071E           L116:
 071E                   .dbline 99
 071E                   .dbline 100
 071E           ;                    if(cache & 0x01){//恒温阶段,
 071E 40FF              sbrs R20,0
 0720 01C0              rjmp L122
 0722           X12:
 0722                   .dbline 100
 0722                   .dbline 102
 0722           ;                        //执行pid算法控制温度就行,上面判断状态是否就行
 0722           ;                     }else{ //升温阶段
 0722 45C1              xjmp L113
 0724           L122:
 0724                   .dbline 102
 0724                   .dbline 103
 0724           ;                           temps[0].pertimecnt++;
 0724 80911201          lds R24,_temps+274
 0728 90911301          lds R25,_temps+274+1
 072C 0196              adiw R24,1
 072E 90931301          sts _temps+274+1,R25
 0732 80931201          sts _temps+274,R24
 0736                   .dbline 104
 0736           ;                           if(temps[0].pertimecnt>temps[0].pertime){
 0736 20901001          lds R2,_temps+272
 073A 30901101          lds R3,_temps+272+1
 073E 2816              cp R2,R24
 0740 3906              cpc R3,R25
 0742 08F0              brlo X49
 0744 34C1              xjmp L113
 0746           X49:
 0746           X13:
 0746                   .dbline 104
 0746                   .dbline 105
 0746           ;                                   temps[0].p_settemp++;//1C需要时间到达，增加温度。
 0746 80911601          lds R24,_temps+278
 074A 90911701          lds R25,_temps+278+1
 074E 0196              adiw R24,1
 0750 90931701          sts _temps+278+1,R25
 0754 80931601          sts _temps+278,R24
 0758                   .dbline 106
 0758           ;                                       temps[0].pertimecnt=0;
 0758 2224              clr R2
 075A 3324              clr R3
 075C 30921301          sts _temps+274+1,R3
 0760 20921201          sts _temps+274,R2
 0764                   .dbline 107
 0764           ;                             } 
 0764                   .dbline 108
 0764           ;                         }
 0764                   .dbline 109
 0764           ;                }
 0764                   .dbline 110
 0764           ;         }else{//第一次进入该状态。初始化当前状态.因为不是一直初始化，所以不必太担心耗时
 0764 24C1              xjmp L113
 0766           L112:
 0766                   .dbline 110
 0766                   .dbline 111
 0766           ;               temps[0].statusflag=0;
 0766 2224              clr R2
 0768 3324              clr R3
 076A 30921501          sts _temps+276+1,R3
 076E 20921401          sts _temps+276,R2
 0772                   .dbline 112
 0772           ;                   temps[0].nowtime=0;
 0772 30920F01          sts _temps+270+1,R3
 0776 20920E01          sts _temps+270,R2
 077A                   .dbline 113
 077A           ;              if(cache & 0x01){//升温阶段
 077A 40FF              sbrs R20,0
 077C BDC0              rjmp L133
 077E           X14:
 077E                   .dbline 113
 077E                   .dbline 114
 077E           ;                     cache=((cache-1)>>1)*11;
 077E 9A01              movw R18,R20
 0780 2150              subi R18,1
 0782 3040              sbci R19,0
 0784 3695              lsr R19
 0786 2795              ror R18
 0788 0BE0              ldi R16,11
 078A 10E0              ldi R17,0
 078C 0E940000          xcall empy16s
 0790 A801              movw R20,R16
 0792                   .dbline 115
 0792           ;                     temps[0].needtime=(temps[0].temp_data[cache]*10+temps[0].temp_data[cache+1])*3600+(temps[0].temp_data[cache+2]*10+temps[0].temp_data[cache+3])*60;
 0792 80E0              ldi R24,<_temps+2
 0794 90E0              ldi R25,>_temps+2
 0796 FA01              movw R30,R20
 0798 3296              adiw R30,2
 079A EE0F              lsl R30
 079C FF1F              rol R31
 079E E80F              add R30,R24
 07A0 F91F              adc R31,R25
 07A2 2081              ldd R18,z+0
 07A4 3181              ldd R19,z+1
 07A6 0AE0              ldi R16,10
 07A8 10E0              ldi R17,0
 07AA 0E940000          xcall empy16s
 07AE 9801              movw R18,R16
 07B0 80E0              ldi R24,<_temps+2
 07B2 90E0              ldi R25,>_temps+2
 07B4 FA01              movw R30,R20
 07B6 3396              adiw R30,3
 07B8 EE0F              lsl R30
 07BA FF1F              rol R31
 07BC E80F              add R30,R24
 07BE F91F              adc R31,R25
 07C0 2080              ldd R2,z+0
 07C2 3180              ldd R3,z+1
 07C4 220D              add R18,R2
 07C6 331D              adc R19,R3
 07C8 0CE3              ldi R16,60
 07CA 10E0              ldi R17,0
 07CC 0E940000          xcall empy16s
 07D0 1801              movw R2,R16
 07D2 80E0              ldi R24,<_temps+2
 07D4 90E0              ldi R25,>_temps+2
 07D6 FA01              movw R30,R20
 07D8 EE0F              lsl R30
 07DA FF1F              rol R31
 07DC E80F              add R30,R24
 07DE F91F              adc R31,R25
 07E0 2081              ldd R18,z+0
 07E2 3181              ldd R19,z+1
 07E4 0AE0              ldi R16,10
 07E6 10E0              ldi R17,0
 07E8 0E940000          xcall empy16s
 07EC 9801              movw R18,R16
 07EE 80E0              ldi R24,<_temps+2
 07F0 90E0              ldi R25,>_temps+2
 07F2 FA01              movw R30,R20
 07F4 3196              adiw R30,1
 07F6 EE0F              lsl R30
 07F8 FF1F              rol R31
 07FA E80F              add R30,R24
 07FC F91F              adc R31,R25
 07FE 4080              ldd R4,z+0
 0800 5180              ldd R5,z+1
 0802 240D              add R18,R4
 0804 351D              adc R19,R5
 0806 00E1              ldi R16,3600
 0808 1EE0              ldi R17,14
 080A 0E940000          xcall empy16s
 080E 2801              movw R4,R16
 0810 420C              add R4,R2
 0812 531C              adc R5,R3
 0814 50920D01          sts _temps+268+1,R5
 0818 40920C01          sts _temps+268,R4
 081C                   .dbline 117
 081C           ;                         //temps[0].needtime=3;
 081C           ;                         if(temps[0].needtime==0){
 081C 4420              tst R4
 081E 49F4              brne L140
 0820 5520              tst R5
 0822 39F4              brne L140
 0824           X15:
 0824                   .dbline 117
 0824                   .dbline 119
 0824           ;                            //当前阶段时间为0，表示已经结束更改标记
 0824           ;                                 temps[0].flag=4;
 0824 84E0              ldi R24,4
 0826 90E0              ldi R25,0
 0828 90930100          sts _temps+1,R25
 082C 80930000          sts _temps,R24
 0830                   .dbline 120
 0830           ;                         }else{
 0830 BEC0              xjmp L134
 0832           L140:
 0832                   .dbline 120
 0832                   .dbline 121
 0832           ;                            temps[0].p_settemp=temps[0].temp_data[cache+8]*100+temps[0].temp_data[cache+9]*10+temps[0].temp_data[cache+10];
 0832 80E0              ldi R24,<_temps+2
 0834 90E0              ldi R25,>_temps+2
 0836 FA01              movw R30,R20
 0838 3996              adiw R30,9
 083A EE0F              lsl R30
 083C FF1F              rol R31
 083E E80F              add R30,R24
 0840 F91F              adc R31,R25
 0842 2081              ldd R18,z+0
 0844 3181              ldd R19,z+1
 0846 0AE0              ldi R16,10
 0848 10E0              ldi R17,0
 084A 0E940000          xcall empy16s
 084E 1801              movw R2,R16
 0850 80E0              ldi R24,<_temps+2
 0852 90E0              ldi R25,>_temps+2
 0854 FA01              movw R30,R20
 0856 3896              adiw R30,8
 0858 EE0F              lsl R30
 085A FF1F              rol R31
 085C E80F              add R30,R24
 085E F91F              adc R31,R25
 0860 2081              ldd R18,z+0
 0862 3181              ldd R19,z+1
 0864 04E6              ldi R16,100
 0866 10E0              ldi R17,0
 0868 0E940000          xcall empy16s
 086C 2801              movw R4,R16
 086E 420C              add R4,R2
 0870 531C              adc R5,R3
 0872 80E0              ldi R24,<_temps+2
 0874 90E0              ldi R25,>_temps+2
 0876 FA01              movw R30,R20
 0878 3A96              adiw R30,10
 087A EE0F              lsl R30
 087C FF1F              rol R31
 087E E80F              add R30,R24
 0880 F91F              adc R31,R25
 0882 2080              ldd R2,z+0
 0884 3180              ldd R3,z+1
 0886 420C              add R4,R2
 0888 531C              adc R5,R3
 088A 50921701          sts _temps+278+1,R5
 088E 40921601          sts _temps+278,R4
 0892                   .dbline 122
 0892           ;                            temps[0].pertime=temps[0].needtime/(temps[0].p_settemp-temps[0].actualtemp);
 0892 00910C01          lds R16,_temps+268
 0896 10910D01          lds R17,_temps+268+1
 089A 0E940000          xcall uint2fp
 089E 1801              movw R2,R16
 08A0 2901              movw R4,R18
 08A2 00911601          lds R16,_temps+278
 08A6 10911701          lds R17,_temps+278+1
 08AA 0E940000          xcall uint2fp
 08AE 80E0              ldi R24,<_temps+292
 08B0 90E0              ldi R25,>_temps+292
 08B2 9A93              st -y,R25
 08B4 8A93              st -y,R24
 08B6 0E940000          xcall fpsub1x
 08BA 8101              movw R16,R2
 08BC 9201              movw R18,R4
 08BE 0E940000          xcall fpdiv2
 08C2 0E940000          xcall fpint
 08C6 10931101          sts _temps+272+1,R17
 08CA 00931001          sts _temps+272,R16
 08CE                   .dbline 123
 08CE           ;                            temps[0].pertimecnt=0;
 08CE 2224              clr R2
 08D0 3324              clr R3
 08D2 30921301          sts _temps+274+1,R3
 08D6 20921201          sts _temps+274,R2
 08DA                   .dbline 124
 08DA           ;                                temps[0].settemp=temps[0].p_settemp;//当接近恒温温度时候使用pid需要此温度
 08DA 00911601          lds R16,_temps+278
 08DE 10911701          lds R17,_temps+278+1
 08E2 0E940000          xcall uint2fp
 08E6 10932101          sts _temps+288+1,R17
 08EA 00932001          sts _temps+288,R16
 08EE 30932301          sts _temps+288+2+1,R19
 08F2 20932201          sts _temps+288+2,R18
 08F6                   .dbline 125
 08F6           ;                         }
 08F6                   .dbline 127
 08F6           ;                    
 08F6           ;                   }else{//恒温阶段
 08F6 5BC0              xjmp L134
 08F8           L133:
 08F8                   .dbline 127
 08F8                   .dbline 128
 08F8           ;                          cache=((cache-1)>>1)*11+4;
 08F8 9A01              movw R18,R20
 08FA 2150              subi R18,1
 08FC 3040              sbci R19,0
 08FE 3695              lsr R19
 0900 2795              ror R18
 0902 0BE0              ldi R16,11
 0904 10E0              ldi R17,0
 0906 0E940000          xcall empy16s
 090A A801              movw R20,R16
 090C 4C5F              subi R20,252  ; offset = 4
 090E 5F4F              sbci R21,255
 0910                   .dbline 129
 0910           ;                     temps[0].needtime=(temps[0].temp_data[cache]*10+temps[0].temp_data[cache+1])*3600+(temps[0].temp_data[cache+2]*10+temps[0].temp_data[cache+3])*60;
 0910 80E0              ldi R24,<_temps+2
 0912 90E0              ldi R25,>_temps+2
 0914 FA01              movw R30,R20
 0916 3296              adiw R30,2
 0918 EE0F              lsl R30
 091A FF1F              rol R31
 091C E80F              add R30,R24
 091E F91F              adc R31,R25
 0920 2081              ldd R18,z+0
 0922 3181              ldd R19,z+1
 0924 0AE0              ldi R16,10
 0926 10E0              ldi R17,0
 0928 0E940000          xcall empy16s
 092C 9801              movw R18,R16
 092E 80E0              ldi R24,<_temps+2
 0930 90E0              ldi R25,>_temps+2
 0932 FA01              movw R30,R20
 0934 3396              adiw R30,3
 0936 EE0F              lsl R30
 0938 FF1F              rol R31
 093A E80F              add R30,R24
 093C F91F              adc R31,R25
 093E 2080              ldd R2,z+0
 0940 3180              ldd R3,z+1
 0942 220D              add R18,R2
 0944 331D              adc R19,R3
 0946 0CE3              ldi R16,60
 0948 10E0              ldi R17,0
 094A 0E940000          xcall empy16s
 094E 1801              movw R2,R16
 0950 80E0              ldi R24,<_temps+2
 0952 90E0              ldi R25,>_temps+2
 0954 FA01              movw R30,R20
 0956 EE0F              lsl R30
 0958 FF1F              rol R31
 095A E80F              add R30,R24
 095C F91F              adc R31,R25
 095E 2081              ldd R18,z+0
 0960 3181              ldd R19,z+1
 0962 0AE0              ldi R16,10
 0964 10E0              ldi R17,0
 0966 0E940000          xcall empy16s
 096A 9801              movw R18,R16
 096C 80E0              ldi R24,<_temps+2
 096E 90E0              ldi R25,>_temps+2
 0970 FA01              movw R30,R20
 0972 3196              adiw R30,1
 0974 EE0F              lsl R30
 0976 FF1F              rol R31
 0978 E80F              add R30,R24
 097A F91F              adc R31,R25
 097C 4080              ldd R4,z+0
 097E 5180              ldd R5,z+1
 0980 240D              add R18,R4
 0982 351D              adc R19,R5
 0984 00E1              ldi R16,3600
 0986 1EE0              ldi R17,14
 0988 0E940000          xcall empy16s
 098C 2801              movw R4,R16
 098E 420C              add R4,R2
 0990 531C              adc R5,R3
 0992 50920D01          sts _temps+268+1,R5
 0996 40920C01          sts _temps+268,R4
 099A                   .dbline 131
 099A           ;                         //temps[0].needtime=3;
 099A           ;                         if(temps[0].needtime==0){
 099A 4420              tst R4
 099C 41F4              brne L159
 099E 5520              tst R5
 09A0 31F4              brne L159
 09A2           X16:
 09A2                   .dbline 131
 09A2                   .dbline 133
 09A2           ;                            //当前阶段时间为0，表示已经结束更改标记
 09A2           ;                                 temps[0].flag=4;
 09A2 84E0              ldi R24,4
 09A4 90E0              ldi R25,0
 09A6 90930100          sts _temps+1,R25
 09AA 80930000          sts _temps,R24
 09AE                   .dbline 134
 09AE           ;                         }
 09AE           L159:
 09AE                   .dbline 136
 09AE           ;                        // temps[0].settemp，在上一场升温时候赋值过
 09AE           ;                       }
 09AE           L134:
 09AE                   .dbline 137
 09AE           ;         }
 09AE           L113:
 09AE                   .dbline 138
 09AE           ;   }
 09AE           L109:
 09AE                   .dbline 140
 09AE           ;   //第二个
 09AE           ;   if(temps[1].flag==1){//运行中
 09AE 80914401          lds R24,_temps+324
 09B2 90914501          lds R25,_temps+324+1
 09B6 8130              cpi R24,1
 09B8 E0E0              ldi R30,0
 09BA 9E07              cpc R25,R30
 09BC 09F0              breq X50
 09BE 73C1              xjmp L162
 09C0           X50:
 09C0           X17:
 09C0                   .dbline 140
 09C0                   .dbline 141
 09C0           ;      cache=temps[1].status;//暂存当前状态
 09C0 40914E02          lds R20,_temps+324+266
 09C4 50914F02          lds R21,_temps+324+266+1
 09C8                   .dbline 142
 09C8           ;      if(temps[1].statusflag==0){//不是第一次进入当前状态
 09C8 20905802          lds R2,_temps+324+276
 09CC 30905902          lds R3,_temps+324+276+1
 09D0 2220              tst R2
 09D2 09F0              breq X51
 09D4 44C0              xjmp L167
 09D6           X51:
 09D6 3320              tst R3
 09D8 09F0              breq X52
 09DA 41C0              xjmp L167
 09DC           X52:
 09DC           X18:
 09DC                   .dbline 142
 09DC                   .dbline 143
 09DC           ;            temps[1].nowtime++;//当前阶段运行时间
 09DC 80915202          lds R24,_temps+324+270
 09E0 90915302          lds R25,_temps+324+270+1
 09E4 0196              adiw R24,1
 09E6 90935302          sts _temps+324+270+1,R25
 09EA 80935202          sts _temps+324+270,R24
 09EE                   .dbline 144
 09EE           ;               if(temps[1].nowtime>=temps[1].needtime){//当前阶段运行结束进入下一阶段
 09EE 20905002          lds R2,_temps+324+268
 09F2 30905102          lds R3,_temps+324+268+1
 09F6 8215              cp R24,R2
 09F8 9305              cpc R25,R3
 09FA 68F0              brlo L173
 09FC           X19:
 09FC                   .dbline 144
 09FC                   .dbline 145
 09FC           ;                   temps[1].status++;
 09FC CA01              movw R24,R20
 09FE 0196              adiw R24,1
 0A00 90934F02          sts _temps+324+266+1,R25
 0A04 80934E02          sts _temps+324+266,R24
 0A08                   .dbline 146
 0A08           ;                   temps[1].statusflag=1;
 0A08 81E0              ldi R24,1
 0A0A 90E0              ldi R25,0
 0A0C 90935902          sts _temps+324+276+1,R25
 0A10 80935802          sts _temps+324+276,R24
 0A14                   .dbline 148
 0A14           ;                       //PORTE=0xFF;
 0A14           ;               }else{//还在当前阶段
 0A14 48C1              xjmp L168
 0A16           L173:
 0A16                   .dbline 148
 0A16                   .dbline 149
 0A16           ;                    if(cache & 0x01){//恒温阶段,
 0A16 40FF              sbrs R20,0
 0A18 01C0              rjmp L183
 0A1A           X20:
 0A1A                   .dbline 149
 0A1A                   .dbline 151
 0A1A           ;                        //执行pid算法控制温度就行,上面判断状态是否就行
 0A1A           ;                     }else{ //升温阶段
 0A1A 45C1              xjmp L168
 0A1C           L183:
 0A1C                   .dbline 151
 0A1C                   .dbline 152
 0A1C           ;                           temps[1].pertimecnt++;
 0A1C 80915602          lds R24,_temps+324+274
 0A20 90915702          lds R25,_temps+324+274+1
 0A24 0196              adiw R24,1
 0A26 90935702          sts _temps+324+274+1,R25
 0A2A 80935602          sts _temps+324+274,R24
 0A2E                   .dbline 153
 0A2E           ;                           if(temps[1].pertimecnt>temps[1].pertime){
 0A2E 20905402          lds R2,_temps+324+272
 0A32 30905502          lds R3,_temps+324+272+1
 0A36 2816              cp R2,R24
 0A38 3906              cpc R3,R25
 0A3A 08F0              brlo X53
 0A3C 34C1              xjmp L168
 0A3E           X53:
 0A3E           X21:
 0A3E                   .dbline 153
 0A3E                   .dbline 154
 0A3E           ;                                   temps[1].p_settemp++;//1C需要时间到达，增加温度。
 0A3E 80915A02          lds R24,_temps+324+278
 0A42 90915B02          lds R25,_temps+324+278+1
 0A46 0196              adiw R24,1
 0A48 90935B02          sts _temps+324+278+1,R25
 0A4C 80935A02          sts _temps+324+278,R24
 0A50                   .dbline 155
 0A50           ;                                       temps[1].pertimecnt=0;
 0A50 2224              clr R2
 0A52 3324              clr R3
 0A54 30925702          sts _temps+324+274+1,R3
 0A58 20925602          sts _temps+324+274,R2
 0A5C                   .dbline 156
 0A5C           ;                             } 
 0A5C                   .dbline 157
 0A5C           ;                         }
 0A5C                   .dbline 158
 0A5C           ;                }
 0A5C                   .dbline 159
 0A5C           ;         }else{//第一次进入该状态。初始化当前状态.因为不是一直初始化，所以不必太担心耗时
 0A5C 24C1              xjmp L168
 0A5E           L167:
 0A5E                   .dbline 159
 0A5E                   .dbline 160
 0A5E           ;               temps[1].statusflag=0;
 0A5E 2224              clr R2
 0A60 3324              clr R3
 0A62 30925902          sts _temps+324+276+1,R3
 0A66 20925802          sts _temps+324+276,R2
 0A6A                   .dbline 161
 0A6A           ;                   temps[1].nowtime=0;
 0A6A 30925302          sts _temps+324+270+1,R3
 0A6E 20925202          sts _temps+324+270,R2
 0A72                   .dbline 162
 0A72           ;              if(cache & 0x01){//升温阶段
 0A72 40FF              sbrs R20,0
 0A74 BDC0              rjmp L201
 0A76           X22:
 0A76                   .dbline 162
 0A76                   .dbline 163
 0A76           ;                     cache=((cache-1)>>1)*11;
 0A76 9A01              movw R18,R20
 0A78 2150              subi R18,1
 0A7A 3040              sbci R19,0
 0A7C 3695              lsr R19
 0A7E 2795              ror R18
 0A80 0BE0              ldi R16,11
 0A82 10E0              ldi R17,0
 0A84 0E940000          xcall empy16s
 0A88 A801              movw R20,R16
 0A8A                   .dbline 164
 0A8A           ;                     temps[1].needtime=(temps[1].temp_data[cache]*10+temps[1].temp_data[cache+1])*3600+(temps[1].temp_data[cache+2]*10+temps[1].temp_data[cache+3])*60;
 0A8A 80E0              ldi R24,<_temps+324+2
 0A8C 90E0              ldi R25,>_temps+324+2
 0A8E FA01              movw R30,R20
 0A90 3296              adiw R30,2
 0A92 EE0F              lsl R30
 0A94 FF1F              rol R31
 0A96 E80F              add R30,R24
 0A98 F91F              adc R31,R25
 0A9A 2081              ldd R18,z+0
 0A9C 3181              ldd R19,z+1
 0A9E 0AE0              ldi R16,10
 0AA0 10E0              ldi R17,0
 0AA2 0E940000          xcall empy16s
 0AA6 9801              movw R18,R16
 0AA8 80E0              ldi R24,<_temps+324+2
 0AAA 90E0              ldi R25,>_temps+324+2
 0AAC FA01              movw R30,R20
 0AAE 3396              adiw R30,3
 0AB0 EE0F              lsl R30
 0AB2 FF1F              rol R31
 0AB4 E80F              add R30,R24
 0AB6 F91F              adc R31,R25
 0AB8 2080              ldd R2,z+0
 0ABA 3180              ldd R3,z+1
 0ABC 220D              add R18,R2
 0ABE 331D              adc R19,R3
 0AC0 0CE3              ldi R16,60
 0AC2 10E0              ldi R17,0
 0AC4 0E940000          xcall empy16s
 0AC8 1801              movw R2,R16
 0ACA 80E0              ldi R24,<_temps+324+2
 0ACC 90E0              ldi R25,>_temps+324+2
 0ACE FA01              movw R30,R20
 0AD0 EE0F              lsl R30
 0AD2 FF1F              rol R31
 0AD4 E80F              add R30,R24
 0AD6 F91F              adc R31,R25
 0AD8 2081              ldd R18,z+0
 0ADA 3181              ldd R19,z+1
 0ADC 0AE0              ldi R16,10
 0ADE 10E0              ldi R17,0
 0AE0 0E940000          xcall empy16s
 0AE4 9801              movw R18,R16
 0AE6 80E0              ldi R24,<_temps+324+2
 0AE8 90E0              ldi R25,>_temps+324+2
 0AEA FA01              movw R30,R20
 0AEC 3196              adiw R30,1
 0AEE EE0F              lsl R30
 0AF0 FF1F              rol R31
 0AF2 E80F              add R30,R24
 0AF4 F91F              adc R31,R25
 0AF6 4080              ldd R4,z+0
 0AF8 5180              ldd R5,z+1
 0AFA 240D              add R18,R4
 0AFC 351D              adc R19,R5
 0AFE 00E1              ldi R16,3600
 0B00 1EE0              ldi R17,14
 0B02 0E940000          xcall empy16s
 0B06 2801              movw R4,R16
 0B08 420C              add R4,R2
 0B0A 531C              adc R5,R3
 0B0C 50925102          sts _temps+324+268+1,R5
 0B10 40925002          sts _temps+324+268,R4
 0B14                   .dbline 166
 0B14           ;                         //temps[0].needtime=3;
 0B14           ;                         if(temps[1].needtime==0){
 0B14 4420              tst R4
 0B16 49F4              brne L213
 0B18 5520              tst R5
 0B1A 39F4              brne L213
 0B1C           X23:
 0B1C                   .dbline 166
 0B1C                   .dbline 168
 0B1C           ;                            //当前阶段时间为0，表示已经结束更改标记
 0B1C           ;                                 temps[1].flag=4;
 0B1C 84E0              ldi R24,4
 0B1E 90E0              ldi R25,0
 0B20 90934501          sts _temps+324+1,R25
 0B24 80934401          sts _temps+324,R24
 0B28                   .dbline 169
 0B28           ;                         }else{
 0B28 BEC0              xjmp L202
 0B2A           L213:
 0B2A                   .dbline 169
 0B2A                   .dbline 170
 0B2A           ;                            temps[1].p_settemp=temps[1].temp_data[cache+8]*100+temps[1].temp_data[cache+9]*10+temps[1].temp_data[cache+10];
 0B2A 80E0              ldi R24,<_temps+324+2
 0B2C 90E0              ldi R25,>_temps+324+2
 0B2E FA01              movw R30,R20
 0B30 3996              adiw R30,9
 0B32 EE0F              lsl R30
 0B34 FF1F              rol R31
 0B36 E80F              add R30,R24
 0B38 F91F              adc R31,R25
 0B3A 2081              ldd R18,z+0
 0B3C 3181              ldd R19,z+1
 0B3E 0AE0              ldi R16,10
 0B40 10E0              ldi R17,0
 0B42 0E940000          xcall empy16s
 0B46 1801              movw R2,R16
 0B48 80E0              ldi R24,<_temps+324+2
 0B4A 90E0              ldi R25,>_temps+324+2
 0B4C FA01              movw R30,R20
 0B4E 3896              adiw R30,8
 0B50 EE0F              lsl R30
 0B52 FF1F              rol R31
 0B54 E80F              add R30,R24
 0B56 F91F              adc R31,R25
 0B58 2081              ldd R18,z+0
 0B5A 3181              ldd R19,z+1
 0B5C 04E6              ldi R16,100
 0B5E 10E0              ldi R17,0
 0B60 0E940000          xcall empy16s
 0B64 2801              movw R4,R16
 0B66 420C              add R4,R2
 0B68 531C              adc R5,R3
 0B6A 80E0              ldi R24,<_temps+324+2
 0B6C 90E0              ldi R25,>_temps+324+2
 0B6E FA01              movw R30,R20
 0B70 3A96              adiw R30,10
 0B72 EE0F              lsl R30
 0B74 FF1F              rol R31
 0B76 E80F              add R30,R24
 0B78 F91F              adc R31,R25
 0B7A 2080              ldd R2,z+0
 0B7C 3180              ldd R3,z+1
 0B7E 420C              add R4,R2
 0B80 531C              adc R5,R3
 0B82 50925B02          sts _temps+324+278+1,R5
 0B86 40925A02          sts _temps+324+278,R4
 0B8A                   .dbline 171
 0B8A           ;                            temps[1].pertime=temps[1].needtime/(temps[1].p_settemp-temps[1].actualtemp);
 0B8A 00915002          lds R16,_temps+324+268
 0B8E 10915102          lds R17,_temps+324+268+1
 0B92 0E940000          xcall uint2fp
 0B96 1801              movw R2,R16
 0B98 2901              movw R4,R18
 0B9A 00915A02          lds R16,_temps+324+278
 0B9E 10915B02          lds R17,_temps+324+278+1
 0BA2 0E940000          xcall uint2fp
 0BA6 80E0              ldi R24,<_temps+324+292
 0BA8 90E0              ldi R25,>_temps+324+292
 0BAA 9A93              st -y,R25
 0BAC 8A93              st -y,R24
 0BAE 0E940000          xcall fpsub1x
 0BB2 8101              movw R16,R2
 0BB4 9201              movw R18,R4
 0BB6 0E940000          xcall fpdiv2
 0BBA 0E940000          xcall fpint
 0BBE 10935502          sts _temps+324+272+1,R17
 0BC2 00935402          sts _temps+324+272,R16
 0BC6                   .dbline 172
 0BC6           ;                            temps[1].pertimecnt=0;
 0BC6 2224              clr R2
 0BC8 3324              clr R3
 0BCA 30925702          sts _temps+324+274+1,R3
 0BCE 20925602          sts _temps+324+274,R2
 0BD2                   .dbline 173
 0BD2           ;                                temps[1].settemp=temps[1].p_settemp;//当接近恒温温度时候使用pid需要此温度
 0BD2 00915A02          lds R16,_temps+324+278
 0BD6 10915B02          lds R17,_temps+324+278+1
 0BDA 0E940000          xcall uint2fp
 0BDE 10936502          sts _temps+324+288+1,R17
 0BE2 00936402          sts _temps+324+288,R16
 0BE6 30936702          sts _temps+324+288+2+1,R19
 0BEA 20936602          sts _temps+324+288+2,R18
 0BEE                   .dbline 174
 0BEE           ;                         }
 0BEE                   .dbline 176
 0BEE           ;                    
 0BEE           ;                   }else{//恒温阶段
 0BEE 5BC0              xjmp L202
 0BF0           L201:
 0BF0                   .dbline 176
 0BF0                   .dbline 177
 0BF0           ;                          cache=((cache-1)>>1)*11+4;
 0BF0 9A01              movw R18,R20
 0BF2 2150              subi R18,1
 0BF4 3040              sbci R19,0
 0BF6 3695              lsr R19
 0BF8 2795              ror R18
 0BFA 0BE0              ldi R16,11
 0BFC 10E0              ldi R17,0
 0BFE 0E940000          xcall empy16s
 0C02 A801              movw R20,R16
 0C04 4C5F              subi R20,252  ; offset = 4
 0C06 5F4F              sbci R21,255
 0C08                   .dbline 178
 0C08           ;                     temps[1].needtime=(temps[1].temp_data[cache]*10+temps[1].temp_data[cache+1])*3600+(temps[1].temp_data[cache+2]*10+temps[1].temp_data[cache+3])*60;
 0C08 80E0              ldi R24,<_temps+324+2
 0C0A 90E0              ldi R25,>_temps+324+2
 0C0C FA01              movw R30,R20
 0C0E 3296              adiw R30,2
 0C10 EE0F              lsl R30
 0C12 FF1F              rol R31
 0C14 E80F              add R30,R24
 0C16 F91F              adc R31,R25
 0C18 2081              ldd R18,z+0
 0C1A 3181              ldd R19,z+1
 0C1C 0AE0              ldi R16,10
 0C1E 10E0              ldi R17,0
 0C20 0E940000          xcall empy16s
 0C24 9801              movw R18,R16
 0C26 80E0              ldi R24,<_temps+324+2
 0C28 90E0              ldi R25,>_temps+324+2
 0C2A FA01              movw R30,R20
 0C2C 3396              adiw R30,3
 0C2E EE0F              lsl R30
 0C30 FF1F              rol R31
 0C32 E80F              add R30,R24
 0C34 F91F              adc R31,R25
 0C36 2080              ldd R2,z+0
 0C38 3180              ldd R3,z+1
 0C3A 220D              add R18,R2
 0C3C 331D              adc R19,R3
 0C3E 0CE3              ldi R16,60
 0C40 10E0              ldi R17,0
 0C42 0E940000          xcall empy16s
 0C46 1801              movw R2,R16
 0C48 80E0              ldi R24,<_temps+324+2
 0C4A 90E0              ldi R25,>_temps+324+2
 0C4C FA01              movw R30,R20
 0C4E EE0F              lsl R30
 0C50 FF1F              rol R31
 0C52 E80F              add R30,R24
 0C54 F91F              adc R31,R25
 0C56 2081              ldd R18,z+0
 0C58 3181              ldd R19,z+1
 0C5A 0AE0              ldi R16,10
 0C5C 10E0              ldi R17,0
 0C5E 0E940000          xcall empy16s
 0C62 9801              movw R18,R16
 0C64 80E0              ldi R24,<_temps+324+2
 0C66 90E0              ldi R25,>_temps+324+2
 0C68 FA01              movw R30,R20
 0C6A 3196              adiw R30,1
 0C6C EE0F              lsl R30
 0C6E FF1F              rol R31
 0C70 E80F              add R30,R24
 0C72 F91F              adc R31,R25
 0C74 4080              ldd R4,z+0
 0C76 5180              ldd R5,z+1
 0C78 240D              add R18,R4
 0C7A 351D              adc R19,R5
 0C7C 00E1              ldi R16,3600
 0C7E 1EE0              ldi R17,14
 0C80 0E940000          xcall empy16s
 0C84 2801              movw R4,R16
 0C86 420C              add R4,R2
 0C88 531C              adc R5,R3
 0C8A 50925102          sts _temps+324+268+1,R5
 0C8E 40925002          sts _temps+324+268,R4
 0C92                   .dbline 180
 0C92           ;                         //temps[1].needtime=3;
 0C92           ;                         if(temps[1].needtime==0){
 0C92 4420              tst R4
 0C94 41F4              brne L250
 0C96 5520              tst R5
 0C98 31F4              brne L250
 0C9A           X24:
 0C9A                   .dbline 180
 0C9A                   .dbline 182
 0C9A           ;                            //当前阶段时间为0，表示已经结束更改标记
 0C9A           ;                                 temps[1].flag=4;
 0C9A 84E0              ldi R24,4
 0C9C 90E0              ldi R25,0
 0C9E 90934501          sts _temps+324+1,R25
 0CA2 80934401          sts _temps+324,R24
 0CA6                   .dbline 183
 0CA6           ;                         }
 0CA6           L250:
 0CA6                   .dbline 185
 0CA6           ;                        // temps[1].settemp，在上一场升温时候赋值过
 0CA6           ;                       }
 0CA6           L202:
 0CA6                   .dbline 186
 0CA6           ;         }
 0CA6           L168:
 0CA6                   .dbline 187
 0CA6           ;   }
 0CA6           L162:
 0CA6                   .dbline 189
 0CA6           ;   //第三个
 0CA6           ;   if(temps[2].flag==1){//运行中
 0CA6 80918802          lds R24,_temps+648
 0CAA 90918902          lds R25,_temps+648+1
 0CAE 8130              cpi R24,1
 0CB0 E0E0              ldi R30,0
 0CB2 9E07              cpc R25,R30
 0CB4 09F0              breq X54
 0CB6 73C1              xjmp L255
 0CB8           X54:
 0CB8           X25:
 0CB8                   .dbline 189
 0CB8                   .dbline 190
 0CB8           ;      cache=temps[2].status;//暂存当前状态
 0CB8 40919203          lds R20,_temps+648+266
 0CBC 50919303          lds R21,_temps+648+266+1
 0CC0                   .dbline 191
 0CC0           ;      if(temps[2].statusflag==0){//不是第一次进入当前状态
 0CC0 20909C03          lds R2,_temps+648+276
 0CC4 30909D03          lds R3,_temps+648+276+1
 0CC8 2220              tst R2
 0CCA 09F0              breq X55
 0CCC 44C0              xjmp L260
 0CCE           X55:
 0CCE 3320              tst R3
 0CD0 09F0              breq X56
 0CD2 41C0              xjmp L260
 0CD4           X56:
 0CD4           X26:
 0CD4                   .dbline 191
 0CD4                   .dbline 192
 0CD4           ;            temps[2].nowtime++;//当前阶段运行时间
 0CD4 80919603          lds R24,_temps+648+270
 0CD8 90919703          lds R25,_temps+648+270+1
 0CDC 0196              adiw R24,1
 0CDE 90939703          sts _temps+648+270+1,R25
 0CE2 80939603          sts _temps+648+270,R24
 0CE6                   .dbline 193
 0CE6           ;               if(temps[2].nowtime>=temps[2].needtime){//当前阶段运行结束进入下一阶段
 0CE6 20909403          lds R2,_temps+648+268
 0CEA 30909503          lds R3,_temps+648+268+1
 0CEE 8215              cp R24,R2
 0CF0 9305              cpc R25,R3
 0CF2 68F0              brlo L266
 0CF4           X27:
 0CF4                   .dbline 193
 0CF4                   .dbline 194
 0CF4           ;                   temps[2].status++;
 0CF4 CA01              movw R24,R20
 0CF6 0196              adiw R24,1
 0CF8 90939303          sts _temps+648+266+1,R25
 0CFC 80939203          sts _temps+648+266,R24
 0D00                   .dbline 195
 0D00           ;                   temps[2].statusflag=1;
 0D00 81E0              ldi R24,1
 0D02 90E0              ldi R25,0
 0D04 90939D03          sts _temps+648+276+1,R25
 0D08 80939C03          sts _temps+648+276,R24
 0D0C                   .dbline 197
 0D0C           ;                       //PORTE=0xFF;
 0D0C           ;               }else{//还在当前阶段
 0D0C 48C1              xjmp L261
 0D0E           L266:
 0D0E                   .dbline 197
 0D0E                   .dbline 198
 0D0E           ;                    if(cache & 0x01){//恒温阶段,
 0D0E 40FF              sbrs R20,0
 0D10 01C0              rjmp L276
 0D12           X28:
 0D12                   .dbline 198
 0D12                   .dbline 200
 0D12           ;                        //执行pid算法控制温度就行,上面判断状态是否就行
 0D12           ;                     }else{ //升温阶段
 0D12 45C1              xjmp L261
 0D14           L276:
 0D14                   .dbline 200
 0D14                   .dbline 201
 0D14           ;                           temps[2].pertimecnt++;
 0D14 80919A03          lds R24,_temps+648+274
 0D18 90919B03          lds R25,_temps+648+274+1
 0D1C 0196              adiw R24,1
 0D1E 90939B03          sts _temps+648+274+1,R25
 0D22 80939A03          sts _temps+648+274,R24
 0D26                   .dbline 202
 0D26           ;                           if(temps[2].pertimecnt>temps[2].pertime){
 0D26 20909803          lds R2,_temps+648+272
 0D2A 30909903          lds R3,_temps+648+272+1
 0D2E 2816              cp R2,R24
 0D30 3906              cpc R3,R25
 0D32 08F0              brlo X57
 0D34 34C1              xjmp L261
 0D36           X57:
 0D36           X29:
 0D36                   .dbline 202
 0D36                   .dbline 203
 0D36           ;                                   temps[2].p_settemp++;//1C需要时间到达，增加温度。
 0D36 80919E03          lds R24,_temps+648+278
 0D3A 90919F03          lds R25,_temps+648+278+1
 0D3E 0196              adiw R24,1
 0D40 90939F03          sts _temps+648+278+1,R25
 0D44 80939E03          sts _temps+648+278,R24
 0D48                   .dbline 204
 0D48           ;                                       temps[2].pertimecnt=0;
 0D48 2224              clr R2
 0D4A 3324              clr R3
 0D4C 30929B03          sts _temps+648+274+1,R3
 0D50 20929A03          sts _temps+648+274,R2
 0D54                   .dbline 205
 0D54           ;                             } 
 0D54                   .dbline 206
 0D54           ;                         }
 0D54                   .dbline 207
 0D54           ;                }
 0D54                   .dbline 208
 0D54           ;         }else{//第一次进入该状态。初始化当前状态.因为不是一直初始化，所以不必太担心耗时
 0D54 24C1              xjmp L261
 0D56           L260:
 0D56                   .dbline 208
 0D56                   .dbline 209
 0D56           ;               temps[2].statusflag=0;
 0D56 2224              clr R2
 0D58 3324              clr R3
 0D5A 30929D03          sts _temps+648+276+1,R3
 0D5E 20929C03          sts _temps+648+276,R2
 0D62                   .dbline 210
 0D62           ;                   temps[2].nowtime=0;
 0D62 30929703          sts _temps+648+270+1,R3
 0D66 20929603          sts _temps+648+270,R2
 0D6A                   .dbline 211
 0D6A           ;              if(cache & 0x01){//升温阶段
 0D6A 40FF              sbrs R20,0
 0D6C BDC0              rjmp L294
 0D6E           X30:
 0D6E                   .dbline 211
 0D6E                   .dbline 212
 0D6E           ;                     cache=((cache-1)>>1)*11;
 0D6E 9A01              movw R18,R20
 0D70 2150              subi R18,1
 0D72 3040              sbci R19,0
 0D74 3695              lsr R19
 0D76 2795              ror R18
 0D78 0BE0              ldi R16,11
 0D7A 10E0              ldi R17,0
 0D7C 0E940000          xcall empy16s
 0D80 A801              movw R20,R16
 0D82                   .dbline 213
 0D82           ;                     temps[2].needtime=(temps[2].temp_data[cache]*10+temps[2].temp_data[cache+1])*3600+(temps[2].temp_data[cache+2]*10+temps[2].temp_data[cache+3])*60;
 0D82 80E0              ldi R24,<_temps+648+2
 0D84 90E0              ldi R25,>_temps+648+2
 0D86 FA01              movw R30,R20
 0D88 3296              adiw R30,2
 0D8A EE0F              lsl R30
 0D8C FF1F              rol R31
 0D8E E80F              add R30,R24
 0D90 F91F              adc R31,R25
 0D92 2081              ldd R18,z+0
 0D94 3181              ldd R19,z+1
 0D96 0AE0              ldi R16,10
 0D98 10E0              ldi R17,0
 0D9A 0E940000          xcall empy16s
 0D9E 9801              movw R18,R16
 0DA0 80E0              ldi R24,<_temps+648+2
 0DA2 90E0              ldi R25,>_temps+648+2
 0DA4 FA01              movw R30,R20
 0DA6 3396              adiw R30,3
 0DA8 EE0F              lsl R30
 0DAA FF1F              rol R31
 0DAC E80F              add R30,R24
 0DAE F91F              adc R31,R25
 0DB0 2080              ldd R2,z+0
 0DB2 3180              ldd R3,z+1
 0DB4 220D              add R18,R2
 0DB6 331D              adc R19,R3
 0DB8 0CE3              ldi R16,60
 0DBA 10E0              ldi R17,0
 0DBC 0E940000          xcall empy16s
 0DC0 1801              movw R2,R16
 0DC2 80E0              ldi R24,<_temps+648+2
 0DC4 90E0              ldi R25,>_temps+648+2
 0DC6 FA01              movw R30,R20
 0DC8 EE0F              lsl R30
 0DCA FF1F              rol R31
 0DCC E80F              add R30,R24
 0DCE F91F              adc R31,R25
 0DD0 2081              ldd R18,z+0
 0DD2 3181              ldd R19,z+1
 0DD4 0AE0              ldi R16,10
 0DD6 10E0              ldi R17,0
 0DD8 0E940000          xcall empy16s
 0DDC 9801              movw R18,R16
 0DDE 80E0              ldi R24,<_temps+648+2
 0DE0 90E0              ldi R25,>_temps+648+2
 0DE2 FA01              movw R30,R20
 0DE4 3196              adiw R30,1
 0DE6 EE0F              lsl R30
 0DE8 FF1F              rol R31
 0DEA E80F              add R30,R24
 0DEC F91F              adc R31,R25
 0DEE 4080              ldd R4,z+0
 0DF0 5180              ldd R5,z+1
 0DF2 240D              add R18,R4
 0DF4 351D              adc R19,R5
 0DF6 00E1              ldi R16,3600
 0DF8 1EE0              ldi R17,14
 0DFA 0E940000          xcall empy16s
 0DFE 2801              movw R4,R16
 0E00 420C              add R4,R2
 0E02 531C              adc R5,R3
 0E04 50929503          sts _temps+648+268+1,R5
 0E08 40929403          sts _temps+648+268,R4
 0E0C                   .dbline 215
 0E0C           ;                         //temps[0].needtime=3;
 0E0C           ;                         if(temps[2].needtime==0){
 0E0C 4420              tst R4
 0E0E 49F4              brne L306
 0E10 5520              tst R5
 0E12 39F4              brne L306
 0E14           X31:
 0E14                   .dbline 215
 0E14                   .dbline 217
 0E14           ;                            //当前阶段时间为0，表示已经结束更改标记
 0E14           ;                                 temps[2].flag=4;
 0E14 84E0              ldi R24,4
 0E16 90E0              ldi R25,0
 0E18 90938902          sts _temps+648+1,R25
 0E1C 80938802          sts _temps+648,R24
 0E20                   .dbline 218
 0E20           ;                         }else{
 0E20 BEC0              xjmp L295
 0E22           L306:
 0E22                   .dbline 218
 0E22                   .dbline 219
 0E22           ;                            temps[2].p_settemp=temps[2].temp_data[cache+8]*100+temps[2].temp_data[cache+9]*10+temps[2].temp_data[cache+10];
 0E22 80E0              ldi R24,<_temps+648+2
 0E24 90E0              ldi R25,>_temps+648+2
 0E26 FA01              movw R30,R20
 0E28 3996              adiw R30,9
 0E2A EE0F              lsl R30
 0E2C FF1F              rol R31
 0E2E E80F              add R30,R24
 0E30 F91F              adc R31,R25
 0E32 2081              ldd R18,z+0
 0E34 3181              ldd R19,z+1
 0E36 0AE0              ldi R16,10
 0E38 10E0              ldi R17,0
 0E3A 0E940000          xcall empy16s
 0E3E 1801              movw R2,R16
 0E40 80E0              ldi R24,<_temps+648+2
 0E42 90E0              ldi R25,>_temps+648+2
 0E44 FA01              movw R30,R20
 0E46 3896              adiw R30,8
 0E48 EE0F              lsl R30
 0E4A FF1F              rol R31
 0E4C E80F              add R30,R24
 0E4E F91F              adc R31,R25
 0E50 2081              ldd R18,z+0
 0E52 3181              ldd R19,z+1
 0E54 04E6              ldi R16,100
 0E56 10E0              ldi R17,0
 0E58 0E940000          xcall empy16s
 0E5C 2801              movw R4,R16
 0E5E 420C              add R4,R2
 0E60 531C              adc R5,R3
 0E62 80E0              ldi R24,<_temps+648+2
 0E64 90E0              ldi R25,>_temps+648+2
 0E66 FA01              movw R30,R20
 0E68 3A96              adiw R30,10
 0E6A EE0F              lsl R30
 0E6C FF1F              rol R31
 0E6E E80F              add R30,R24
 0E70 F91F              adc R31,R25
 0E72 2080              ldd R2,z+0
 0E74 3180              ldd R3,z+1
 0E76 420C              add R4,R2
 0E78 531C              adc R5,R3
 0E7A 50929F03          sts _temps+648+278+1,R5
 0E7E 40929E03          sts _temps+648+278,R4
 0E82                   .dbline 220
 0E82           ;                            temps[2].pertime=temps[2].needtime/(temps[2].p_settemp-temps[2].actualtemp);
 0E82 00919403          lds R16,_temps+648+268
 0E86 10919503          lds R17,_temps+648+268+1
 0E8A 0E940000          xcall uint2fp
 0E8E 1801              movw R2,R16
 0E90 2901              movw R4,R18
 0E92 00919E03          lds R16,_temps+648+278
 0E96 10919F03          lds R17,_temps+648+278+1
 0E9A 0E940000          xcall uint2fp
 0E9E 80E0              ldi R24,<_temps+648+292
 0EA0 90E0              ldi R25,>_temps+648+292
 0EA2 9A93              st -y,R25
 0EA4 8A93              st -y,R24
 0EA6 0E940000          xcall fpsub1x
 0EAA 8101              movw R16,R2
 0EAC 9201              movw R18,R4
 0EAE 0E940000          xcall fpdiv2
 0EB2 0E940000          xcall fpint
 0EB6 10939903          sts _temps+648+272+1,R17
 0EBA 00939803          sts _temps+648+272,R16
 0EBE                   .dbline 221
 0EBE           ;                            temps[2].pertimecnt=0;
 0EBE 2224              clr R2
 0EC0 3324              clr R3
 0EC2 30929B03          sts _temps+648+274+1,R3
 0EC6 20929A03          sts _temps+648+274,R2
 0ECA                   .dbline 222
 0ECA           ;                                temps[2].settemp=temps[2].p_settemp;//当接近恒温温度时候使用pid需要此温度
 0ECA 00919E03          lds R16,_temps+648+278
 0ECE 10919F03          lds R17,_temps+648+278+1
 0ED2 0E940000          xcall uint2fp
 0ED6 1093A903          sts _temps+648+288+1,R17
 0EDA 0093A803          sts _temps+648+288,R16
 0EDE 3093AB03          sts _temps+648+288+2+1,R19
 0EE2 2093AA03          sts _temps+648+288+2,R18
 0EE6                   .dbline 223
 0EE6           ;                         }
 0EE6                   .dbline 225
 0EE6           ;                    
 0EE6           ;                   }else{//恒温阶段
 0EE6 5BC0              xjmp L295
 0EE8           L294:
 0EE8                   .dbline 225
 0EE8                   .dbline 226
 0EE8           ;                          cache=((cache-1)>>1)*11+4;
 0EE8 9A01              movw R18,R20
 0EEA 2150              subi R18,1
 0EEC 3040              sbci R19,0
 0EEE 3695              lsr R19
 0EF0 2795              ror R18
 0EF2 0BE0              ldi R16,11
 0EF4 10E0              ldi R17,0
 0EF6 0E940000          xcall empy16s
 0EFA A801              movw R20,R16
 0EFC 4C5F              subi R20,252  ; offset = 4
 0EFE 5F4F              sbci R21,255
 0F00                   .dbline 227
 0F00           ;                     temps[2].needtime=(temps[2].temp_data[cache]*10+temps[2].temp_data[cache+1])*3600+(temps[2].temp_data[cache+2]*10+temps[2].temp_data[cache+3])*60;
 0F00 80E0              ldi R24,<_temps+648+2
 0F02 90E0              ldi R25,>_temps+648+2
 0F04 FA01              movw R30,R20
 0F06 3296              adiw R30,2
 0F08 EE0F              lsl R30
 0F0A FF1F              rol R31
 0F0C E80F              add R30,R24
 0F0E F91F              adc R31,R25
 0F10 2081              ldd R18,z+0
 0F12 3181              ldd R19,z+1
 0F14 0AE0              ldi R16,10
 0F16 10E0              ldi R17,0
 0F18 0E940000          xcall empy16s
 0F1C 9801              movw R18,R16
 0F1E 80E0              ldi R24,<_temps+648+2
 0F20 90E0              ldi R25,>_temps+648+2
 0F22 FA01              movw R30,R20
 0F24 3396              adiw R30,3
 0F26 EE0F              lsl R30
 0F28 FF1F              rol R31
 0F2A E80F              add R30,R24
 0F2C F91F              adc R31,R25
 0F2E 2080              ldd R2,z+0
 0F30 3180              ldd R3,z+1
 0F32 220D              add R18,R2
 0F34 331D              adc R19,R3
 0F36 0CE3              ldi R16,60
 0F38 10E0              ldi R17,0
 0F3A 0E940000          xcall empy16s
 0F3E 1801              movw R2,R16
 0F40 80E0              ldi R24,<_temps+648+2
 0F42 90E0              ldi R25,>_temps+648+2
 0F44 FA01              movw R30,R20
 0F46 EE0F              lsl R30
 0F48 FF1F              rol R31
 0F4A E80F              add R30,R24
 0F4C F91F              adc R31,R25
 0F4E 2081              ldd R18,z+0
 0F50 3181              ldd R19,z+1
 0F52 0AE0              ldi R16,10
 0F54 10E0              ldi R17,0
 0F56 0E940000          xcall empy16s
 0F5A 9801              movw R18,R16
 0F5C 80E0              ldi R24,<_temps+648+2
 0F5E 90E0              ldi R25,>_temps+648+2
 0F60 FA01              movw R30,R20
 0F62 3196              adiw R30,1
 0F64 EE0F              lsl R30
 0F66 FF1F              rol R31
 0F68 E80F              add R30,R24
 0F6A F91F              adc R31,R25
 0F6C 4080              ldd R4,z+0
 0F6E 5180              ldd R5,z+1
 0F70 240D              add R18,R4
 0F72 351D              adc R19,R5
 0F74 00E1              ldi R16,3600
 0F76 1EE0              ldi R17,14
 0F78 0E940000          xcall empy16s
 0F7C 2801              movw R4,R16
 0F7E 420C              add R4,R2
 0F80 531C              adc R5,R3
 0F82 50929503          sts _temps+648+268+1,R5
 0F86 40929403          sts _temps+648+268,R4
 0F8A                   .dbline 229
 0F8A           ;                         //temps[0].needtime=3;
 0F8A           ;                         if(temps[2].needtime==0){
 0F8A 4420              tst R4
 0F8C 41F4              brne L343
 0F8E 5520              tst R5
 0F90 31F4              brne L343
 0F92           X32:
 0F92                   .dbline 229
 0F92                   .dbline 231
 0F92           ;                            //当前阶段时间为0，表示已经结束更改标记
 0F92           ;                                 temps[2].flag=4;
 0F92 84E0              ldi R24,4
 0F94 90E0              ldi R25,0
 0F96 90938902          sts _temps+648+1,R25
 0F9A 80938802          sts _temps+648,R24
 0F9E                   .dbline 232
 0F9E           ;                         }
 0F9E           L343:
 0F9E                   .dbline 234
 0F9E           ;                        // temps[0].settemp，在上一场升温时候赋值过
 0F9E           ;                       }
 0F9E           L295:
 0F9E                   .dbline 235
 0F9E           ;         }
 0F9E           L261:
 0F9E                   .dbline 236
 0F9E           ;   }
 0F9E           L255:
 0F9E                   .dbline 238
 0F9E           ;   //第一个
 0F9E           ;   if(temps[3].flag==1){//运行中
 0F9E 8091CC03          lds R24,_temps+972
 0FA2 9091CD03          lds R25,_temps+972+1
 0FA6 8130              cpi R24,1
 0FA8 E0E0              ldi R30,0
 0FAA 9E07              cpc R25,R30
 0FAC 09F0              breq X58
 0FAE 73C1              xjmp L348
 0FB0           X58:
 0FB0           X33:
 0FB0                   .dbline 238
 0FB0                   .dbline 239
 0FB0           ;      cache=temps[3].status;//暂存当前状态
 0FB0 4091D604          lds R20,_temps+972+266
 0FB4 5091D704          lds R21,_temps+972+266+1
 0FB8                   .dbline 240
 0FB8           ;      if(temps[3].statusflag==0){//不是第一次进入当前状态
 0FB8 2090E004          lds R2,_temps+972+276
 0FBC 3090E104          lds R3,_temps+972+276+1
 0FC0 2220              tst R2
 0FC2 09F0              breq X59
 0FC4 44C0              xjmp L353
 0FC6           X59:
 0FC6 3320              tst R3
 0FC8 09F0              breq X60
 0FCA 41C0              xjmp L353
 0FCC           X60:
 0FCC           X34:
 0FCC                   .dbline 240
 0FCC                   .dbline 241
 0FCC           ;            temps[3].nowtime++;//当前阶段运行时间
 0FCC 8091DA04          lds R24,_temps+972+270
 0FD0 9091DB04          lds R25,_temps+972+270+1
 0FD4 0196              adiw R24,1
 0FD6 9093DB04          sts _temps+972+270+1,R25
 0FDA 8093DA04          sts _temps+972+270,R24
 0FDE                   .dbline 242
 0FDE           ;               if(temps[3].nowtime>=temps[3].needtime){//当前阶段运行结束进入下一阶段
 0FDE 2090D804          lds R2,_temps+972+268
 0FE2 3090D904          lds R3,_temps+972+268+1
 0FE6 8215              cp R24,R2
 0FE8 9305              cpc R25,R3
 0FEA 68F0              brlo L359
 0FEC           X35:
 0FEC                   .dbline 242
 0FEC                   .dbline 243
 0FEC           ;                   temps[3].status++;
 0FEC CA01              movw R24,R20
 0FEE 0196              adiw R24,1
 0FF0 9093D704          sts _temps+972+266+1,R25
 0FF4 8093D604          sts _temps+972+266,R24
 0FF8                   .dbline 244
 0FF8           ;                   temps[3].statusflag=1;
 0FF8 81E0              ldi R24,1
 0FFA 90E0              ldi R25,0
 0FFC 9093E104          sts _temps+972+276+1,R25
 1000 8093E004          sts _temps+972+276,R24
 1004                   .dbline 246
 1004           ;                       //PORTE=0xFF;
 1004           ;               }else{//还在当前阶段
 1004 48C1              xjmp L354
 1006           L359:
 1006                   .dbline 246
 1006                   .dbline 247
 1006           ;                    if(cache & 0x01){//恒温阶段,
 1006 40FF              sbrs R20,0
 1008 01C0              rjmp L369
 100A           X36:
 100A                   .dbline 247
 100A                   .dbline 249
 100A           ;                        //执行pid算法控制温度就行,上面判断状态是否就行
 100A           ;                     }else{ //升温阶段
 100A 45C1              xjmp L354
 100C           L369:
 100C                   .dbline 249
 100C                   .dbline 250
 100C           ;                           temps[3].pertimecnt++;
 100C 8091DE04          lds R24,_temps+972+274
 1010 9091DF04          lds R25,_temps+972+274+1
 1014 0196              adiw R24,1
 1016 9093DF04          sts _temps+972+274+1,R25
 101A 8093DE04          sts _temps+972+274,R24
 101E                   .dbline 251
 101E           ;                           if(temps[3].pertimecnt>temps[3].pertime){
 101E 2090DC04          lds R2,_temps+972+272
 1022 3090DD04          lds R3,_temps+972+272+1
 1026 2816              cp R2,R24
 1028 3906              cpc R3,R25
 102A 08F0              brlo X61
 102C 34C1              xjmp L354
 102E           X61:
 102E           X37:
 102E                   .dbline 251
 102E                   .dbline 252
 102E           ;                                   temps[3].p_settemp++;//1C需要时间到达，增加温度。
 102E 8091E204          lds R24,_temps+972+278
 1032 9091E304          lds R25,_temps+972+278+1
 1036 0196              adiw R24,1
 1038 9093E304          sts _temps+972+278+1,R25
 103C 8093E204          sts _temps+972+278,R24
 1040                   .dbline 253
 1040           ;                                       temps[3].pertimecnt=0;
 1040 2224              clr R2
 1042 3324              clr R3
 1044 3092DF04          sts _temps+972+274+1,R3
 1048 2092DE04          sts _temps+972+274,R2
 104C                   .dbline 254
 104C           ;                             } 
 104C                   .dbline 255
 104C           ;                         }
 104C                   .dbline 256
 104C           ;                }
 104C                   .dbline 257
 104C           ;         }else{//第一次进入该状态。初始化当前状态.因为不是一直初始化，所以不必太担心耗时
 104C 24C1              xjmp L354
 104E           L353:
 104E                   .dbline 257
 104E                   .dbline 258
 104E           ;               temps[3].statusflag=0;
 104E 2224              clr R2
 1050 3324              clr R3
 1052 3092E104          sts _temps+972+276+1,R3
 1056 2092E004          sts _temps+972+276,R2
 105A                   .dbline 259
 105A           ;                   temps[3].nowtime=0;
 105A 3092DB04          sts _temps+972+270+1,R3
 105E 2092DA04          sts _temps+972+270,R2
 1062                   .dbline 260
 1062           ;              if(cache & 0x01){//升温阶段
 1062 40FF              sbrs R20,0
 1064 BDC0              rjmp L387
 1066           X38:
 1066                   .dbline 260
 1066                   .dbline 261
 1066           ;                     cache=((cache-1)>>1)*11;
 1066 9A01              movw R18,R20
 1068 2150              subi R18,1
 106A 3040              sbci R19,0
 106C 3695              lsr R19
 106E 2795              ror R18
 1070 0BE0              ldi R16,11
 1072 10E0              ldi R17,0
 1074 0E940000          xcall empy16s
 1078 A801              movw R20,R16
 107A                   .dbline 262
 107A           ;                     temps[3].needtime=(temps[3].temp_data[cache]*10+temps[3].temp_data[cache+1])*3600+(temps[3].temp_data[cache+2]*10+temps[3].temp_data[cache+3])*60;
 107A 80E0              ldi R24,<_temps+972+2
 107C 90E0              ldi R25,>_temps+972+2
 107E FA01              movw R30,R20
 1080 3296              adiw R30,2
 1082 EE0F              lsl R30
 1084 FF1F              rol R31
 1086 E80F              add R30,R24
 1088 F91F              adc R31,R25
 108A 2081              ldd R18,z+0
 108C 3181              ldd R19,z+1
 108E 0AE0              ldi R16,10
 1090 10E0              ldi R17,0
 1092 0E940000          xcall empy16s
 1096 9801              movw R18,R16
 1098 80E0              ldi R24,<_temps+972+2
 109A 90E0              ldi R25,>_temps+972+2
 109C FA01              movw R30,R20
 109E 3396              adiw R30,3
 10A0 EE0F              lsl R30
 10A2 FF1F              rol R31
 10A4 E80F              add R30,R24
 10A6 F91F              adc R31,R25
 10A8 2080              ldd R2,z+0
 10AA 3180              ldd R3,z+1
 10AC 220D              add R18,R2
 10AE 331D              adc R19,R3
 10B0 0CE3              ldi R16,60
 10B2 10E0              ldi R17,0
 10B4 0E940000          xcall empy16s
 10B8 1801              movw R2,R16
 10BA 80E0              ldi R24,<_temps+972+2
 10BC 90E0              ldi R25,>_temps+972+2
 10BE FA01              movw R30,R20
 10C0 EE0F              lsl R30
 10C2 FF1F              rol R31
 10C4 E80F              add R30,R24
 10C6 F91F              adc R31,R25
 10C8 2081              ldd R18,z+0
 10CA 3181              ldd R19,z+1
 10CC 0AE0              ldi R16,10
 10CE 10E0              ldi R17,0
 10D0 0E940000          xcall empy16s
 10D4 9801              movw R18,R16
 10D6 80E0              ldi R24,<_temps+972+2
 10D8 90E0              ldi R25,>_temps+972+2
 10DA FA01              movw R30,R20
 10DC 3196              adiw R30,1
 10DE EE0F              lsl R30
 10E0 FF1F              rol R31
 10E2 E80F              add R30,R24
 10E4 F91F              adc R31,R25
 10E6 4080              ldd R4,z+0
 10E8 5180              ldd R5,z+1
 10EA 240D              add R18,R4
 10EC 351D              adc R19,R5
 10EE 00E1              ldi R16,3600
 10F0 1EE0              ldi R17,14
 10F2 0E940000          xcall empy16s
 10F6 2801              movw R4,R16
 10F8 420C              add R4,R2
 10FA 531C              adc R5,R3
 10FC 5092D904          sts _temps+972+268+1,R5
 1100 4092D804          sts _temps+972+268,R4
 1104                   .dbline 264
 1104           ;                         //temps[0].needtime=3;
 1104           ;                         if(temps[3].needtime==0){
 1104 4420              tst R4
 1106 49F4              brne L399
 1108 5520              tst R5
 110A 39F4              brne L399
 110C           X39:
 110C                   .dbline 264
 110C                   .dbline 266
 110C           ;                            //当前阶段时间为0，表示已经结束更改标记
 110C           ;                                 temps[3].flag=4;
 110C 84E0              ldi R24,4
 110E 90E0              ldi R25,0
 1110 9093CD03          sts _temps+972+1,R25
 1114 8093CC03          sts _temps+972,R24
 1118                   .dbline 267
 1118           ;                         }else{
 1118 BEC0              xjmp L388
 111A           L399:
 111A                   .dbline 267
 111A                   .dbline 268
 111A           ;                            temps[3].p_settemp=temps[3].temp_data[cache+8]*100+temps[3].temp_data[cache+9]*10+temps[3].temp_data[cache+10];
 111A 80E0              ldi R24,<_temps+972+2
 111C 90E0              ldi R25,>_temps+972+2
 111E FA01              movw R30,R20
 1120 3996              adiw R30,9
 1122 EE0F              lsl R30
 1124 FF1F              rol R31
 1126 E80F              add R30,R24
 1128 F91F              adc R31,R25
 112A 2081              ldd R18,z+0
 112C 3181              ldd R19,z+1
 112E 0AE0              ldi R16,10
 1130 10E0              ldi R17,0
 1132 0E940000          xcall empy16s
 1136 1801              movw R2,R16
 1138 80E0              ldi R24,<_temps+972+2
 113A 90E0              ldi R25,>_temps+972+2
 113C FA01              movw R30,R20
 113E 3896              adiw R30,8
 1140 EE0F              lsl R30
 1142 FF1F              rol R31
 1144 E80F              add R30,R24
 1146 F91F              adc R31,R25
 1148 2081              ldd R18,z+0
 114A 3181              ldd R19,z+1
 114C 04E6              ldi R16,100
 114E 10E0              ldi R17,0
 1150 0E940000          xcall empy16s
 1154 2801              movw R4,R16
 1156 420C              add R4,R2
 1158 531C              adc R5,R3
 115A 80E0              ldi R24,<_temps+972+2
 115C 90E0              ldi R25,>_temps+972+2
 115E FA01              movw R30,R20
 1160 3A96              adiw R30,10
 1162 EE0F              lsl R30
 1164 FF1F              rol R31
 1166 E80F              add R30,R24
 1168 F91F              adc R31,R25
 116A 2080              ldd R2,z+0
 116C 3180              ldd R3,z+1
 116E 420C              add R4,R2
 1170 531C              adc R5,R3
 1172 5092E304          sts _temps+972+278+1,R5
 1176 4092E204          sts _temps+972+278,R4
 117A                   .dbline 269
 117A           ;                            temps[3].pertime=temps[3].needtime/(temps[3].p_settemp-temps[3].actualtemp);
 117A 0091D804          lds R16,_temps+972+268
 117E 1091D904          lds R17,_temps+972+268+1
 1182 0E940000          xcall uint2fp
 1186 1801              movw R2,R16
 1188 2901              movw R4,R18
 118A 0091E204          lds R16,_temps+972+278
 118E 1091E304          lds R17,_temps+972+278+1
 1192 0E940000          xcall uint2fp
 1196 80E0              ldi R24,<_temps+972+292
 1198 90E0              ldi R25,>_temps+972+292
 119A 9A93              st -y,R25
 119C 8A93              st -y,R24
 119E 0E940000          xcall fpsub1x
 11A2 8101              movw R16,R2
 11A4 9201              movw R18,R4
 11A6 0E940000          xcall fpdiv2
 11AA 0E940000          xcall fpint
 11AE 1093DD04          sts _temps+972+272+1,R17
 11B2 0093DC04          sts _temps+972+272,R16
 11B6                   .dbline 270
 11B6           ;                            temps[3].pertimecnt=0;
 11B6 2224              clr R2
 11B8 3324              clr R3
 11BA 3092DF04          sts _temps+972+274+1,R3
 11BE 2092DE04          sts _temps+972+274,R2
 11C2                   .dbline 271
 11C2           ;                                temps[3].settemp=temps[3].p_settemp;//当接近恒温温度时候使用pid需要此温度
 11C2 0091E204          lds R16,_temps+972+278
 11C6 1091E304          lds R17,_temps+972+278+1
 11CA 0E940000          xcall uint2fp
 11CE 1093ED04          sts _temps+972+288+1,R17
 11D2 0093EC04          sts _temps+972+288,R16
 11D6 3093EF04          sts _temps+972+288+2+1,R19
 11DA 2093EE04          sts _temps+972+288+2,R18
 11DE                   .dbline 272
 11DE           ;                         }
 11DE                   .dbline 274
 11DE           ;                    
 11DE           ;                   }else{//恒温阶段
 11DE 5BC0              xjmp L388
 11E0           L387:
 11E0                   .dbline 274
 11E0                   .dbline 275
 11E0           ;                          cache=((cache-1)>>1)*11+4;
 11E0 9A01              movw R18,R20
 11E2 2150              subi R18,1
 11E4 3040              sbci R19,0
 11E6 3695              lsr R19
 11E8 2795              ror R18
 11EA 0BE0              ldi R16,11
 11EC 10E0              ldi R17,0
 11EE 0E940000          xcall empy16s
 11F2 A801              movw R20,R16
 11F4 4C5F              subi R20,252  ; offset = 4
 11F6 5F4F              sbci R21,255
 11F8                   .dbline 276
 11F8           ;                     temps[3].needtime=(temps[3].temp_data[cache]*10+temps[3].temp_data[cache+1])*3600+(temps[3].temp_data[cache+2]*10+temps[3].temp_data[cache+3])*60;
 11F8 80E0              ldi R24,<_temps+972+2
 11FA 90E0              ldi R25,>_temps+972+2
 11FC FA01              movw R30,R20
 11FE 3296              adiw R30,2
 1200 EE0F              lsl R30
 1202 FF1F              rol R31
 1204 E80F              add R30,R24
 1206 F91F              adc R31,R25
 1208 2081              ldd R18,z+0
 120A 3181              ldd R19,z+1
 120C 0AE0              ldi R16,10
 120E 10E0              ldi R17,0
 1210 0E940000          xcall empy16s
 1214 9801              movw R18,R16
 1216 80E0              ldi R24,<_temps+972+2
 1218 90E0              ldi R25,>_temps+972+2
 121A FA01              movw R30,R20
 121C 3396              adiw R30,3
 121E EE0F              lsl R30
 1220 FF1F              rol R31
 1222 E80F              add R30,R24
 1224 F91F              adc R31,R25
 1226 2080              ldd R2,z+0
 1228 3180              ldd R3,z+1
 122A 220D              add R18,R2
 122C 331D              adc R19,R3
 122E 0CE3              ldi R16,60
 1230 10E0              ldi R17,0
 1232 0E940000          xcall empy16s
 1236 1801              movw R2,R16
 1238 80E0              ldi R24,<_temps+972+2
 123A 90E0              ldi R25,>_temps+972+2
 123C FA01              movw R30,R20
 123E EE0F              lsl R30
 1240 FF1F              rol R31
 1242 E80F              add R30,R24
 1244 F91F              adc R31,R25
 1246 2081              ldd R18,z+0
 1248 3181              ldd R19,z+1
 124A 0AE0              ldi R16,10
 124C 10E0              ldi R17,0
 124E 0E940000          xcall empy16s
 1252 9801              movw R18,R16
 1254 80E0              ldi R24,<_temps+972+2
 1256 90E0              ldi R25,>_temps+972+2
 1258 FA01              movw R30,R20
 125A 3196              adiw R30,1
 125C EE0F              lsl R30
 125E FF1F              rol R31
 1260 E80F              add R30,R24
 1262 F91F              adc R31,R25
 1264 4080              ldd R4,z+0
 1266 5180              ldd R5,z+1
 1268 240D              add R18,R4
 126A 351D              adc R19,R5
 126C 00E1              ldi R16,3600
 126E 1EE0              ldi R17,14
 1270 0E940000          xcall empy16s
 1274 2801              movw R4,R16
 1276 420C              add R4,R2
 1278 531C              adc R5,R3
 127A 5092D904          sts _temps+972+268+1,R5
 127E 4092D804          sts _temps+972+268,R4
 1282                   .dbline 278
 1282           ;                         //temps[0].needtime=3;
 1282           ;                         if(temps[3].needtime==0){
 1282 4420              tst R4
 1284 41F4              brne L436
 1286 5520              tst R5
 1288 31F4              brne L436
 128A           X40:
 128A                   .dbline 278
 128A                   .dbline 280
 128A           ;                            //当前阶段时间为0，表示已经结束更改标记
 128A           ;                                 temps[3].flag=4;
 128A 84E0              ldi R24,4
 128C 90E0              ldi R25,0
 128E 9093CD03          sts _temps+972+1,R25
 1292 8093CC03          sts _temps+972,R24
 1296                   .dbline 281
 1296           ;                         }
 1296           L436:
 1296                   .dbline 283
 1296           ;                        // temps[0].settemp，在上一场升温时候赋值过
 1296           ;                       }
 1296           L388:
 1296                   .dbline 284
 1296           ;         }
 1296           L354:
 1296                   .dbline 285
 1296           ;   }
 1296           L348:
 1296                   .dbline 286
 1296           ;   TIMSK|=0x40;//开定时器2溢出中断,8位的
 1296 87B7              in R24,0x37
 1298 8064              ori R24,64
 129A 87BF              out 0x37,R24
 129C                   .dbline 287
 129C           ;   EIMSK |= 0x04;//开中断2  
 129C 89B7              in R24,0x39
 129E 8460              ori R24,4
 12A0 89BF              out 0x39,R24
 12A2                   .dbline -2
 12A2           L1:
 12A2                   .dbline 0 ; func end
 12A2 2296              adiw R28,2
 12A4 0E940000          xcall pop_xgset300C
 12A8 0990              ld R0,y+
 12AA 0FBE              OUT 63,R0
 12AC F991              ld R31,y+
 12AE E991              ld R30,y+
 12B0 B991              ld R27,y+
 12B2 A991              ld R26,y+
 12B4 9991              ld R25,y+
 12B6 8991              ld R24,y+
 12B8 3991              ld R19,y+
 12BA 2991              ld R18,y+
 12BC 1991              ld R17,y+
 12BE 0991              ld R16,y+
 12C0 9990              ld R9,y+
 12C2 8990              ld R8,y+
 12C4 7990              ld R7,y+
 12C6 6990              ld R6,y+
 12C8 5990              ld R5,y+
 12CA 4990              ld R4,y+
 12CC 3990              ld R3,y+
 12CE 2990              ld R2,y+
 12D0 1990              ld R1,y+
 12D2 0990              ld R0,y+
 12D4 1895              reti
 12D6                   .dbsym r cache 20 i
 12D6                   .dbend
 12D6                   .dbfunc e tempcontrol _tempcontrol fV
 12D6           ;              j -> R22,R23
 12D6           ;              i -> R20,R21
                        .even
 12D6           _tempcontrol::
 12D6 0E940000          xcall push_xgsetF00C
 12DA 2297              sbiw R28,2
 12DC                   .dbline -1
 12DC                   .dbline 291
 12DC           ; }
 12DC           ;  //执行温度控制数据更新操作，读取温度更新输出参数.会对温度数据故障更新
 12DC           ;  //定时器控制，0.5s进入一次
 12DC           ; void tempcontrol(void){
 12DC                   .dbline 293
 12DC           ;    uint i,j;
 12DC           ;       temp_l=0x00;
 12DC 2224              clr R2
 12DE 3324              clr R3
 12E0 30920100          sts _temp_l+1,R3
 12E4 20920000          sts _temp_l,R2
 12E8                   .dbline 294
 12E8           ;       temp_h=0x12;
 12E8 82E1              ldi R24,18
 12EA 90E0              ldi R25,0
 12EC 90930100          sts _temp_h+1,R25
 12F0 80930000          sts _temp_h,R24
 12F4                   .dbline 295
 12F4           ;    for(i=0;i<4;i++){
 12F4 4427              clr R20
 12F6 5527              clr R21
 12F8 5AC1              xjmp L445
 12FA           L442:
 12FA                   .dbline 295
 12FA                   .dbline 297
 12FA           ;          //readTemp(i);//读取温度，一次验证有效性
 12FA           ;        if(temp_l&0x04){//当前故障，下面就不用再运行啦
 12FA 20900000          lds R2,_temp_l
 12FE 30900100          lds R3,_temp_l+1
 1302 22FE              sbrs R2,2
 1304 0FC0              rjmp L446
 1306           X62:
 1306                   .dbline 297
 1306                   .dbline 298
 1306           ;                    temps[i].flag=2;
 1306 04E4              ldi R16,324
 1308 11E0              ldi R17,1
 130A 9A01              movw R18,R20
 130C 0E940000          xcall empy16s
 1310 80E0              ldi R24,<_temps
 1312 90E0              ldi R25,>_temps
 1314 F801              movw R30,R16
 1316 E80F              add R30,R24
 1318 F91F              adc R31,R25
 131A 82E0              ldi R24,2
 131C 90E0              ldi R25,0
 131E 9183              std z+1,R25
 1320 8083              std z+0,R24
 1322                   .dbline 299
 1322           ;        }else{
 1322 43C1              xjmp L447
 1324           L446:
 1324                   .dbline 299
 1324                   .dbline 301
 1324           ;             //temps[i].actualtemp=0x55<<2;
 1324           ;                 temps[i].actualtemp=(temp_h&0x3F)<<4|(temp_l&0xF0)>>4;
 1324 04E4              ldi R16,324
 1326 11E0              ldi R17,1
 1328 9A01              movw R18,R20
 132A 0E940000          xcall empy16s
 132E 80E0              ldi R24,<_temps+292
 1330 90E0              ldi R25,>_temps+292
 1332 F801              movw R30,R16
 1334 E80F              add R30,R24
 1336 F91F              adc R31,R25
 1338 80910000          lds R24,_temp_l
 133C 90910100          lds R25,_temp_l+1
 1340 807F              andi R24,240
 1342 9070              andi R25,0
 1344 9695              lsr R25
 1346 8795              ror R24
 1348 9695              lsr R25
 134A 8795              ror R24
 134C 9695              lsr R25
 134E 8795              ror R24
 1350 9695              lsr R25
 1352 8795              ror R24
 1354 00910000          lds R16,_temp_h
 1358 10910100          lds R17,_temp_h+1
 135C 0F73              andi R16,63
 135E 1070              andi R17,0
 1360 000F              lsl R16
 1362 111F              rol R17
 1364 000F              lsl R16
 1366 111F              rol R17
 1368 000F              lsl R16
 136A 111F              rol R17
 136C 000F              lsl R16
 136E 111F              rol R17
 1370 082B              or R16,R24
 1372 192B              or R17,R25
 1374 0E940000          xcall uint2fp
 1378 0083              std z+0,R16
 137A 1183              std z+1,R17
 137C 2283              std z+2,R18
 137E 3383              std z+3,R19
 1380                   .dbline 302
 1380           ;          if(temps[i].flag==1)//运行中的
 1380 04E4              ldi R16,324
 1382 11E0              ldi R17,1
 1384 9A01              movw R18,R20
 1386 0E940000          xcall empy16s
 138A 80E0              ldi R24,<_temps
 138C 90E0              ldi R25,>_temps
 138E F801              movw R30,R16
 1390 E80F              add R30,R24
 1392 F91F              adc R31,R25
 1394 8081              ldd R24,z+0
 1396 9181              ldd R25,z+1
 1398 8130              cpi R24,1
 139A E0E0              ldi R30,0
 139C 9E07              cpc R25,R30
 139E 09F0              breq X70
 13A0 A0C0              xjmp L449
 13A2           X70:
 13A2           X63:
 13A2                   .dbline 303
 13A2           ;             {   
 13A2                   .dbline 304
 13A2           ;                     for(j=0;j<9;j++){
 13A2 6627              clr R22
 13A4 7727              clr R23
 13A6 3FC0              xjmp L454
 13A8           L451:
 13A8                   .dbline 304
 13A8                   .dbline 306
 13A8           ;                           //readTemp(i);//读取温度，需要读取10次左右
 13A8           ;                           temps[i].actualtemp+=(temp_h&0x3F)<<4|(temp_l&0xF0)>>4;
 13A8 04E4              ldi R16,324
 13AA 11E0              ldi R17,1
 13AC 9A01              movw R18,R20
 13AE 0E940000          xcall empy16s
 13B2 1801              movw R2,R16
 13B4 80E0              ldi R24,<_temps+292
 13B6 90E0              ldi R25,>_temps+292
 13B8 280E              add R2,R24
 13BA 391E              adc R3,R25
 13BC 3101              movw R6,R2
 13BE F101              movw R30,R2
 13C0 2080              ldd R2,z+0
 13C2 3180              ldd R3,z+1
 13C4 4280              ldd R4,z+2
 13C6 5380              ldd R5,z+3
 13C8 80910000          lds R24,_temp_l
 13CC 90910100          lds R25,_temp_l+1
 13D0 807F              andi R24,240
 13D2 9070              andi R25,0
 13D4 9695              lsr R25
 13D6 8795              ror R24
 13D8 9695              lsr R25
 13DA 8795              ror R24
 13DC 9695              lsr R25
 13DE 8795              ror R24
 13E0 9695              lsr R25
 13E2 8795              ror R24
 13E4 00910000          lds R16,_temp_h
 13E8 10910100          lds R17,_temp_h+1
 13EC 0F73              andi R16,63
 13EE 1070              andi R17,0
 13F0 000F              lsl R16
 13F2 111F              rol R17
 13F4 000F              lsl R16
 13F6 111F              rol R17
 13F8 000F              lsl R16
 13FA 111F              rol R17
 13FC 000F              lsl R16
 13FE 111F              rol R17
 1400 082B              or R16,R24
 1402 192B              or R17,R25
 1404 0E940000          xcall uint2fp
 1408 3A93              st -y,R19
 140A 2A93              st -y,R18
 140C 1A93              st -y,R17
 140E 0A93              st -y,R16
 1410 8101              movw R16,R2
 1412 9201              movw R18,R4
 1414 0E940000          xcall fpadd2
 1418 F301              movw R30,R6
 141A 0083              std z+0,R16
 141C 1183              std z+1,R17
 141E 2283              std z+2,R18
 1420 3383              std z+3,R19
 1422                   .dbline 307
 1422           ;                         }
 1422           L452:
 1422                   .dbline 304
 1422 6F5F              subi R22,255  ; offset = 1
 1424 7F4F              sbci R23,255
 1426           L454:
 1426                   .dbline 304
 1426 6930              cpi R22,9
 1428 E0E0              ldi R30,0
 142A 7E07              cpc R23,R30
 142C 08F4              brsh X71
 142E BCCF              xjmp L451
 1430           X71:
 1430           X64:
 1430                   .dbline 308
 1430           ;                           temps[i].actualtemp/=10;
 1430 04E4              ldi R16,324
 1432 11E0              ldi R17,1
 1434 9A01              movw R18,R20
 1436 0E940000          xcall empy16s
 143A 1801              movw R2,R16
 143C 80E0              ldi R24,<_temps+292
 143E 90E0              ldi R25,>_temps+292
 1440 280E              add R2,R24
 1442 391E              adc R3,R25
 1444 3101              movw R6,R2
 1446 F101              movw R30,R2
 1448 2080              ldd R2,z+0
 144A 3180              ldd R3,z+1
 144C 4280              ldd R4,z+2
 144E 5380              ldd R5,z+3
 1450 00E0              ldi R16,<L457
 1452 10E0              ldi R17,>L457
 1454 0E940000          xcall elpm32
 1458 3A93              st -y,R19
 145A 2A93              st -y,R18
 145C 1A93              st -y,R17
 145E 0A93              st -y,R16
 1460 8101              movw R16,R2
 1462 9201              movw R18,R4
 1464 0E940000          xcall fpdiv2
 1468 F301              movw R30,R6
 146A 0083              std z+0,R16
 146C 1183              std z+1,R17
 146E 2283              std z+2,R18
 1470 3383              std z+3,R19
 1472                   .dbline 309
 1472           ;                       if(temps[i].status & 0x01){//恒温阶段，使用pid算法。temps[i].status & 0x01如果是1代表是奇数，0代表是偶数
 1472 04E4              ldi R16,324
 1474 11E0              ldi R17,1
 1476 9A01              movw R18,R20
 1478 0E940000          xcall empy16s
 147C 80E0              ldi R24,<_temps+266
 147E 90E0              ldi R25,>_temps+266
 1480 F801              movw R30,R16
 1482 E80F              add R30,R24
 1484 F91F              adc R31,R25
 1486 2080              ldd R2,z+0
 1488 3180              ldd R3,z+1
 148A 20FE              sbrs R2,0
 148C 01C0              rjmp L458
 148E           X65:
 148E                   .dbline 309
 148E                   .dbline 311
 148E           ;                                  //PID_realize(i);//启用pid算法
 148E           ;                 }else if(temps[i].settemp-temps[i].actualtemp<10){
 148E 8DC0              xjmp L450
 1490           L458:
 1490                   .dbline 311
 1490 04E4              ldi R16,324
 1492 11E0              ldi R17,1
 1494 9A01              movw R18,R20
 1496 0E940000          xcall empy16s
 149A 5801              movw R10,R16
 149C 80E0              ldi R24,<_temps+288
 149E 90E0              ldi R25,>_temps+288
 14A0 F501              movw R30,R10
 14A2 E80F              add R30,R24
 14A4 F91F              adc R31,R25
 14A6 0081              ldd R16,z+0
 14A8 1181              ldd R17,z+1
 14AA 2281              ldd R18,z+2
 14AC 3381              ldd R19,z+3
 14AE 80E0              ldi R24,<_temps+292
 14B0 90E0              ldi R25,>_temps+292
 14B2 1501              movw R2,R10
 14B4 280E              add R2,R24
 14B6 391E              adc R3,R25
 14B8 3A92              st -y,R3
 14BA 2A92              st -y,R2
 14BC 0E940000          xcall fpsub1
 14C0 1801              movw R2,R16
 14C2 2901              movw R4,R18
 14C4 00E0              ldi R16,<L457
 14C6 10E0              ldi R17,>L457
 14C8 0E940000          xcall elpm32
 14CC 3A93              st -y,R19
 14CE 2A93              st -y,R18
 14D0 1A93              st -y,R17
 14D2 0A93              st -y,R16
 14D4 8101              movw R16,R2
 14D6 9201              movw R18,R4
 14D8 0E940000          xcall fpcmp2
 14DC 0CF0              brlt X72
 14DE 65C0              xjmp L450
 14E0           X72:
 14E0           X66:
 14E0                   .dbline 311
 14E0                   .dbline 314
 14E0           ;                          //升温或阶段，如果温度接近某个温度则开始使用PID算法。这个值要重新考虑
 14E0           ;                                  //PID_realize(i);//启用pid算法
 14E0           ;                        }else {//升温使用pi算法
 14E0                   .dbline 314
 14E0                   .dbline 316
 14E0           ;                           //PI_realize(i);//启用pi算法
 14E0           ;                        }
 14E0                   .dbline 317
 14E0           ;             }else if(temps[i].flag==5){//初始化参数
 14E0 64C0              xjmp L450
 14E2           L449:
 14E2                   .dbline 317
 14E2 04E4              ldi R16,324
 14E4 11E0              ldi R17,1
 14E6 9A01              movw R18,R20
 14E8 0E940000          xcall empy16s
 14EC 80E0              ldi R24,<_temps
 14EE 90E0              ldi R25,>_temps
 14F0 F801              movw R30,R16
 14F2 E80F              add R30,R24
 14F4 F91F              adc R31,R25
 14F6 8081              ldd R24,z+0
 14F8 9181              ldd R25,z+1
 14FA 8530              cpi R24,5
 14FC E0E0              ldi R30,0
 14FE 9E07              cpc R25,R30
 1500 09F0              breq X73
 1502 35C0              xjmp L465
 1504           X73:
 1504           X67:
 1504                   .dbline 317
 1504                   .dbline 318
 1504           ;                    temps[i].flag=1;
 1504 04E4              ldi R16,324
 1506 11E0              ldi R17,1
 1508 9A01              movw R18,R20
 150A 0E940000          xcall empy16s
 150E 80E0              ldi R24,<_temps
 1510 90E0              ldi R25,>_temps
 1512 F801              movw R30,R16
 1514 E80F              add R30,R24
 1516 F91F              adc R31,R25
 1518 81E0              ldi R24,1
 151A 90E0              ldi R25,0
 151C 9183              std z+1,R25
 151E 8083              std z+0,R24
 1520                   .dbline 319
 1520           ;                                temps[i].status=1;
 1520 04E4              ldi R16,324
 1522 11E0              ldi R17,1
 1524 9A01              movw R18,R20
 1526 0E940000          xcall empy16s
 152A 80E0              ldi R24,<_temps+266
 152C 90E0              ldi R25,>_temps+266
 152E F801              movw R30,R16
 1530 E80F              add R30,R24
 1532 F91F              adc R31,R25
 1534 81E0              ldi R24,1
 1536 90E0              ldi R25,0
 1538 9183              std z+1,R25
 153A 8083              std z+0,R24
 153C                   .dbline 320
 153C           ;                                temps[i].statusflag=1;
 153C 04E4              ldi R16,324
 153E 11E0              ldi R17,1
 1540 9A01              movw R18,R20
 1542 0E940000          xcall empy16s
 1546 80E0              ldi R24,<_temps+276
 1548 90E0              ldi R25,>_temps+276
 154A F801              movw R30,R16
 154C E80F              add R30,R24
 154E F91F              adc R31,R25
 1550 81E0              ldi R24,1
 1552 90E0              ldi R25,0
 1554 9183              std z+1,R25
 1556 8083              std z+0,R24
 1558                   .dbline 321
 1558           ;                                 EEPROM_write(i+1,133,5);//先写状态为5，预防在刚开始还未记录状态时候发生断电。
 1558 85E0              ldi R24,5
 155A 9983              std y+1,R25
 155C 8883              std y+0,R24
 155E 25E8              ldi R18,133
 1560 30E0              ldi R19,0
 1562 8A01              movw R16,R20
 1564 0F5F              subi R16,255  ; offset = 1
 1566 1F4F              sbci R17,255
 1568 0E940000          xcall _EEPROM_write
 156C                   .dbline 322
 156C           ;             }else if(temps[i].flag==2){//故障的,设置标志位位未初始化，但是状态和温度数据可能存在、所以可以直接恢复
 156C 1EC0              xjmp L466
 156E           L465:
 156E                   .dbline 322
 156E 04E4              ldi R16,324
 1570 11E0              ldi R17,1
 1572 9A01              movw R18,R20
 1574 0E940000          xcall empy16s
 1578 80E0              ldi R24,<_temps
 157A 90E0              ldi R25,>_temps
 157C F801              movw R30,R16
 157E E80F              add R30,R24
 1580 F91F              adc R31,R25
 1582 8081              ldd R24,z+0
 1584 9181              ldd R25,z+1
 1586 8230              cpi R24,2
 1588 E0E0              ldi R30,0
 158A 9E07              cpc R25,R30
 158C 71F4              brne L469
 158E           X68:
 158E                   .dbline 322
 158E                   .dbline 323
 158E           ;                      temps[i].flag=0;
 158E 04E4              ldi R16,324
 1590 11E0              ldi R17,1
 1592 9A01              movw R18,R20
 1594 0E940000          xcall empy16s
 1598 80E0              ldi R24,<_temps
 159A 90E0              ldi R25,>_temps
 159C F801              movw R30,R16
 159E E80F              add R30,R24
 15A0 F91F              adc R31,R25
 15A2 2224              clr R2
 15A4 3324              clr R3
 15A6 3182              std z+1,R3
 15A8 2082              std z+0,R2
 15AA                   .dbline 324
 15AA           ;             }
 15AA           L469:
 15AA           L466:
 15AA           L450:
 15AA                   .dbline 325
 15AA           ;         }
 15AA           L447:
 15AA                   .dbline 326
 15AA           ;    }
 15AA           L443:
 15AA                   .dbline 295
 15AA 4F5F              subi R20,255  ; offset = 1
 15AC 5F4F              sbci R21,255
 15AE           L445:
 15AE                   .dbline 295
 15AE 4430              cpi R20,4
 15B0 E0E0              ldi R30,0
 15B2 5E07              cpc R21,R30
 15B4 08F4              brsh X74
 15B6 A1CE              xjmp L442
 15B8           X74:
 15B8           X69:
 15B8                   .dbline -2
 15B8           L441:
 15B8                   .dbline 0 ; func end
 15B8 2296              adiw R28,2
 15BA 0C940000          xjmp pop_xgsetF00C
 15BE                   .dbsym r j 22 i
 15BE                   .dbsym r i 20 i
 15BE                   .dbend
 15BE                   .dbfunc e tempdata_init _tempdata_init fV
 15BE           ;              j -> R22,R23
 15BE           ;              i -> R20,R21
                        .even
 15BE           _tempdata_init::
 15BE 0E940000          xcall push_xgsetF000
 15C2                   .dbline -1
 15C2                   .dbline 330
 15C2           ; }
 15C2           ; 
 15C2           ; //开机初始化空间。全部置0,不初始化数据，等用户或EEPROM数据回填
 15C2           ; void tempdata_init(void){
 15C2                   .dbline 332
 15C2           ;  uint i,j;
 15C2           ;  for(i=0;i<4;i++){
 15C2 4427              clr R20
 15C4 5527              clr R21
 15C6 68C1              xjmp L475
 15C8           L472:
 15C8                   .dbline 332
 15C8                   .dbline 333
 15C8           ;     temps[i].flag=0;
 15C8 04E4              ldi R16,324
 15CA 11E0              ldi R17,1
 15CC 9A01              movw R18,R20
 15CE 0E940000          xcall empy16s
 15D2 80E0              ldi R24,<_temps
 15D4 90E0              ldi R25,>_temps
 15D6 F801              movw R30,R16
 15D8 E80F              add R30,R24
 15DA F91F              adc R31,R25
 15DC 2224              clr R2
 15DE 3324              clr R3
 15E0 3182              std z+1,R3
 15E2 2082              std z+0,R2
 15E4                   .dbline 334
 15E4           ;       for(j=0;j<132;j++){
 15E4 6627              clr R22
 15E6 7727              clr R23
 15E8 15C0              xjmp L479
 15EA           L476:
 15EA                   .dbline 334
 15EA                   .dbline 335
 15EA           ;        temps[i].temp_data[j]=0;
 15EA 04E4              ldi R16,324
 15EC 11E0              ldi R17,1
 15EE 9A01              movw R18,R20
 15F0 0E940000          xcall empy16s
 15F4 1801              movw R2,R16
 15F6 80E0              ldi R24,<_temps+2
 15F8 90E0              ldi R25,>_temps+2
 15FA 280E              add R2,R24
 15FC 391E              adc R3,R25
 15FE FB01              movw R30,R22
 1600 EE0F              lsl R30
 1602 FF1F              rol R31
 1604 E20D              add R30,R2
 1606 F31D              adc R31,R3
 1608 2224              clr R2
 160A 3324              clr R3
 160C 3182              std z+1,R3
 160E 2082              std z+0,R2
 1610                   .dbline 336
 1610           ;       }
 1610           L477:
 1610                   .dbline 334
 1610 6F5F              subi R22,255  ; offset = 1
 1612 7F4F              sbci R23,255
 1614           L479:
 1614                   .dbline 334
 1614 6438              cpi R22,132
 1616 E0E0              ldi R30,0
 1618 7E07              cpc R23,R30
 161A 38F3              brlo L476
 161C           X75:
 161C                   .dbline 337
 161C           ;       temps[i].status=0;
 161C 04E4              ldi R16,324
 161E 11E0              ldi R17,1
 1620 9A01              movw R18,R20
 1622 0E940000          xcall empy16s
 1626 80E0              ldi R24,<_temps+266
 1628 90E0              ldi R25,>_temps+266
 162A F801              movw R30,R16
 162C E80F              add R30,R24
 162E F91F              adc R31,R25
 1630 2224              clr R2
 1632 3324              clr R3
 1634 3182              std z+1,R3
 1636 2082              std z+0,R2
 1638                   .dbline 338
 1638           ;       temps[i].needtime=0;
 1638 04E4              ldi R16,324
 163A 11E0              ldi R17,1
 163C 9A01              movw R18,R20
 163E 0E940000          xcall empy16s
 1642 80E0              ldi R24,<_temps+268
 1644 90E0              ldi R25,>_temps+268
 1646 F801              movw R30,R16
 1648 E80F              add R30,R24
 164A F91F              adc R31,R25
 164C 2224              clr R2
 164E 3324              clr R3
 1650 3182              std z+1,R3
 1652 2082              std z+0,R2
 1654                   .dbline 339
 1654           ;       temps[i].nowtime=0;
 1654 04E4              ldi R16,324
 1656 11E0              ldi R17,1
 1658 9A01              movw R18,R20
 165A 0E940000          xcall empy16s
 165E 80E0              ldi R24,<_temps+270
 1660 90E0              ldi R25,>_temps+270
 1662 F801              movw R30,R16
 1664 E80F              add R30,R24
 1666 F91F              adc R31,R25
 1668 2224              clr R2
 166A 3324              clr R3
 166C 3182              std z+1,R3
 166E 2082              std z+0,R2
 1670                   .dbline 340
 1670           ;       temps[i].pertime=0;//每1C需要时间，计时
 1670 04E4              ldi R16,324
 1672 11E0              ldi R17,1
 1674 9A01              movw R18,R20
 1676 0E940000          xcall empy16s
 167A 80E0              ldi R24,<_temps+272
 167C 90E0              ldi R25,>_temps+272
 167E F801              movw R30,R16
 1680 E80F              add R30,R24
 1682 F91F              adc R31,R25
 1684 2224              clr R2
 1686 3324              clr R3
 1688 3182              std z+1,R3
 168A 2082              std z+0,R2
 168C                   .dbline 341
 168C           ;       temps[i].pertimecnt=0;//每1C需要时间，计时器
 168C 04E4              ldi R16,324
 168E 11E0              ldi R17,1
 1690 9A01              movw R18,R20
 1692 0E940000          xcall empy16s
 1696 80E0              ldi R24,<_temps+274
 1698 90E0              ldi R25,>_temps+274
 169A F801              movw R30,R16
 169C E80F              add R30,R24
 169E F91F              adc R31,R25
 16A0 2224              clr R2
 16A2 3324              clr R3
 16A4 3182              std z+1,R3
 16A6 2082              std z+0,R2
 16A8                   .dbline 342
 16A8           ;       temps[i].statusflag=1;//是否第一次进入当前状态,1、第一次；0、不是第一次
 16A8 04E4              ldi R16,324
 16AA 11E0              ldi R17,1
 16AC 9A01              movw R18,R20
 16AE 0E940000          xcall empy16s
 16B2 80E0              ldi R24,<_temps+276
 16B4 90E0              ldi R25,>_temps+276
 16B6 F801              movw R30,R16
 16B8 E80F              add R30,R24
 16BA F91F              adc R31,R25
 16BC 81E0              ldi R24,1
 16BE 90E0              ldi R25,0
 16C0 9183              std z+1,R25
 16C2 8083              std z+0,R24
 16C4                   .dbline 344
 16C4           ;               //控制相关
 16C4           ;       temps[i].p_settemp=0;//升温时候的小阶段需要温度
 16C4 04E4              ldi R16,324
 16C6 11E0              ldi R17,1
 16C8 9A01              movw R18,R20
 16CA 0E940000          xcall empy16s
 16CE 80E0              ldi R24,<_temps+278
 16D0 90E0              ldi R25,>_temps+278
 16D2 F801              movw R30,R16
 16D4 E80F              add R30,R24
 16D6 F91F              adc R31,R25
 16D8 2224              clr R2
 16DA 3324              clr R3
 16DC 3182              std z+1,R3
 16DE 2082              std z+0,R2
 16E0                   .dbline 345
 16E0           ;       temps[i].p_err_next=0;//升温阶段控制使用
 16E0 04E4              ldi R16,324
 16E2 11E0              ldi R17,1
 16E4 9A01              movw R18,R20
 16E6 0E940000          xcall empy16s
 16EA 80E0              ldi R24,<_temps+280
 16EC 90E0              ldi R25,>_temps+280
 16EE F801              movw R30,R16
 16F0 E80F              add R30,R24
 16F2 F91F              adc R31,R25
 16F4 2224              clr R2
 16F6 3324              clr R3
 16F8 3182              std z+1,R3
 16FA 2082              std z+0,R2
 16FC                   .dbline 346
 16FC           ;       temps[i].p_Kp=0;//升温阶段控制使用
 16FC 04E4              ldi R16,324
 16FE 11E0              ldi R17,1
 1700 9A01              movw R18,R20
 1702 0E940000          xcall empy16s
 1706 80E0              ldi R24,<_temps+282
 1708 90E0              ldi R25,>_temps+282
 170A F801              movw R30,R16
 170C E80F              add R30,R24
 170E F91F              adc R31,R25
 1710 2224              clr R2
 1712 3324              clr R3
 1714 3182              std z+1,R3
 1716 2082              std z+0,R2
 1718                   .dbline 347
 1718           ;       temps[i].p_Ki=0;//升温阶段控制使用
 1718 04E4              ldi R16,324
 171A 11E0              ldi R17,1
 171C 9A01              movw R18,R20
 171E 0E940000          xcall empy16s
 1722 80E0              ldi R24,<_temps+284
 1724 90E0              ldi R25,>_temps+284
 1726 F801              movw R30,R16
 1728 E80F              add R30,R24
 172A F91F              adc R31,R25
 172C 2224              clr R2
 172E 3324              clr R3
 1730 3182              std z+1,R3
 1732 2082              std z+0,R2
 1734                   .dbline 348
 1734           ;     temps[i].p_err_last=0;
 1734 04E4              ldi R16,324
 1736 11E0              ldi R17,1
 1738 9A01              movw R18,R20
 173A 0E940000          xcall empy16s
 173E 80E0              ldi R24,<_temps+286
 1740 90E0              ldi R25,>_temps+286
 1742 F801              movw R30,R16
 1744 E80F              add R30,R24
 1746 F91F              adc R31,R25
 1748 2224              clr R2
 174A 3324              clr R3
 174C 3182              std z+1,R3
 174E 2082              std z+0,R2
 1750                   .dbline 349
 1750           ;       temps[i].settemp=0;
 1750 04E4              ldi R16,324
 1752 11E0              ldi R17,1
 1754 9A01              movw R18,R20
 1756 0E940000          xcall empy16s
 175A 80E0              ldi R24,<_temps+288
 175C 90E0              ldi R25,>_temps+288
 175E F801              movw R30,R16
 1760 E80F              add R30,R24
 1762 F91F              adc R31,R25
 1764 00E0              ldi R16,<L493
 1766 10E0              ldi R17,>L493
 1768 0E940000          xcall elpm32
 176C 0083              std z+0,R16
 176E 1183              std z+1,R17
 1770 2283              std z+2,R18
 1772 3383              std z+3,R19
 1774                   .dbline 350
 1774           ;       temps[i].actualtemp=0;
 1774 04E4              ldi R16,324
 1776 11E0              ldi R17,1
 1778 9A01              movw R18,R20
 177A 0E940000          xcall empy16s
 177E 80E0              ldi R24,<_temps+292
 1780 90E0              ldi R25,>_temps+292
 1782 F801              movw R30,R16
 1784 E80F              add R30,R24
 1786 F91F              adc R31,R25
 1788 00E0              ldi R16,<L493
 178A 10E0              ldi R17,>L493
 178C 0E940000          xcall elpm32
 1790 0083              std z+0,R16
 1792 1183              std z+1,R17
 1794 2283              std z+2,R18
 1796 3383              std z+3,R19
 1798                   .dbline 351
 1798           ;       temps[i].err=0;
 1798 04E4              ldi R16,324
 179A 11E0              ldi R17,1
 179C 9A01              movw R18,R20
 179E 0E940000          xcall empy16s
 17A2 80E0              ldi R24,<_temps+296
 17A4 90E0              ldi R25,>_temps+296
 17A6 F801              movw R30,R16
 17A8 E80F              add R30,R24
 17AA F91F              adc R31,R25
 17AC 00E0              ldi R16,<L493
 17AE 10E0              ldi R17,>L493
 17B0 0E940000          xcall elpm32
 17B4 0083              std z+0,R16
 17B6 1183              std z+1,R17
 17B8 2283              std z+2,R18
 17BA 3383              std z+3,R19
 17BC                   .dbline 352
 17BC           ;        temps[i].err_last=0;
 17BC 04E4              ldi R16,324
 17BE 11E0              ldi R17,1
 17C0 9A01              movw R18,R20
 17C2 0E940000          xcall empy16s
 17C6 80E0              ldi R24,<_temps+300
 17C8 90E0              ldi R25,>_temps+300
 17CA F801              movw R30,R16
 17CC E80F              add R30,R24
 17CE F91F              adc R31,R25
 17D0 00E0              ldi R16,<L493
 17D2 10E0              ldi R17,>L493
 17D4 0E940000          xcall elpm32
 17D8 0083              std z+0,R16
 17DA 1183              std z+1,R17
 17DC 2283              std z+2,R18
 17DE 3383              std z+3,R19
 17E0                   .dbline 353
 17E0           ;        temps[i].err_next=0;
 17E0 04E4              ldi R16,324
 17E2 11E0              ldi R17,1
 17E4 9A01              movw R18,R20
 17E6 0E940000          xcall empy16s
 17EA 80E0              ldi R24,<_temps+304
 17EC 90E0              ldi R25,>_temps+304
 17EE F801              movw R30,R16
 17F0 E80F              add R30,R24
 17F2 F91F              adc R31,R25
 17F4 00E0              ldi R16,<L493
 17F6 10E0              ldi R17,>L493
 17F8 0E940000          xcall elpm32
 17FC 0083              std z+0,R16
 17FE 1183              std z+1,R17
 1800 2283              std z+2,R18
 1802 3383              std z+3,R19
 1804                   .dbline 354
 1804           ;        temps[i].Kp=0.0;
 1804 04E4              ldi R16,324
 1806 11E0              ldi R17,1
 1808 9A01              movw R18,R20
 180A 0E940000          xcall empy16s
 180E 80E0              ldi R24,<_temps+308
 1810 90E0              ldi R25,>_temps+308
 1812 F801              movw R30,R16
 1814 E80F              add R30,R24
 1816 F91F              adc R31,R25
 1818 00E0              ldi R16,<L493
 181A 10E0              ldi R17,>L493
 181C 0E940000          xcall elpm32
 1820 0083              std z+0,R16
 1822 1183              std z+1,R17
 1824 2283              std z+2,R18
 1826 3383              std z+3,R19
 1828                   .dbline 355
 1828           ;        temps[i].Ki=0.0;
 1828 04E4              ldi R16,324
 182A 11E0              ldi R17,1
 182C 9A01              movw R18,R20
 182E 0E940000          xcall empy16s
 1832 80E0              ldi R24,<_temps+312
 1834 90E0              ldi R25,>_temps+312
 1836 F801              movw R30,R16
 1838 E80F              add R30,R24
 183A F91F              adc R31,R25
 183C 00E0              ldi R16,<L493
 183E 10E0              ldi R17,>L493
 1840 0E940000          xcall elpm32
 1844 0083              std z+0,R16
 1846 1183              std z+1,R17
 1848 2283              std z+2,R18
 184A 3383              std z+3,R19
 184C                   .dbline 356
 184C           ;        temps[i].Kd=0.0;
 184C 04E4              ldi R16,324
 184E 11E0              ldi R17,1
 1850 9A01              movw R18,R20
 1852 0E940000          xcall empy16s
 1856 80E0              ldi R24,<_temps+316
 1858 90E0              ldi R25,>_temps+316
 185A F801              movw R30,R16
 185C E80F              add R30,R24
 185E F91F              adc R31,R25
 1860 00E0              ldi R16,<L493
 1862 10E0              ldi R17,>L493
 1864 0E940000          xcall elpm32
 1868 0083              std z+0,R16
 186A 1183              std z+1,R17
 186C 2283              std z+2,R18
 186E 3383              std z+3,R19
 1870                   .dbline 357
 1870           ;        temps[i].incrementtemp=25.0;
 1870 04E4              ldi R16,324
 1872 11E0              ldi R17,1
 1874 9A01              movw R18,R20
 1876 0E940000          xcall empy16s
 187A 80E0              ldi R24,<_temps+320
 187C 90E0              ldi R25,>_temps+320
 187E F801              movw R30,R16
 1880 E80F              add R30,R24
 1882 F91F              adc R31,R25
 1884 00E0              ldi R16,<L502
 1886 10E0              ldi R17,>L502
 1888 0E940000          xcall elpm32
 188C 0083              std z+0,R16
 188E 1183              std z+1,R17
 1890 2283              std z+2,R18
 1892 3383              std z+3,R19
 1894                   .dbline 358
 1894           ;  } 
 1894           L473:
 1894                   .dbline 332
 1894 4F5F              subi R20,255  ; offset = 1
 1896 5F4F              sbci R21,255
 1898           L475:
 1898                   .dbline 332
 1898 4430              cpi R20,4
 189A E0E0              ldi R30,0
 189C 5E07              cpc R21,R30
 189E 08F4              brsh X77
 18A0 93CE              xjmp L472
 18A2           X77:
 18A2           X76:
 18A2                   .dbline -2
 18A2           L471:
 18A2                   .dbline 0 ; func end
 18A2 0C940000          xjmp pop_xgsetF000
 18A6                   .dbsym r j 22 i
 18A6                   .dbsym r i 20 i
 18A6                   .dbend
 18A6                   .dbfunc e data_recover _data_recover fV
 18A6           ;          dataC -> R22,R23
 18A6           ;              i -> R20,R21
 18A6           ;              j -> R22,R23
                        .even
 18A6           _data_recover::
 18A6 0E940000          xcall push_xgsetF03C
 18AA                   .dbline -1
 18AA                   .dbline 360
 18AA           ; }
 18AA           ; void data_recover(void){
 18AA                   .dbline 363
 18AA           ;  uint i,j;
 18AA           ;  uint dataC;
 18AA           ;  for(i=0;i<4;i++){
 18AA 4427              clr R20
 18AC 5527              clr R21
 18AE 2CC1              xjmp L507
 18B0           L504:
 18B0                   .dbline 363
 18B0                   .dbline 364
 18B0           ;    dataC=EEPROM_read(i+1,0);//读取标记位
 18B0 2227              clr R18
 18B2 3327              clr R19
 18B4 8A01              movw R16,R20
 18B6 0F5F              subi R16,255  ; offset = 1
 18B8 1F4F              sbci R17,255
 18BA 0E940000          xcall _EEPROM_read
 18BE B801              movw R22,R16
 18C0                   .dbline 365
 18C0           ;    if(dataC==1){
 18C0 0130              cpi R16,1
 18C2 E0E0              ldi R30,0
 18C4 1E07              cpc R17,R30
 18C6 09F0              breq X83
 18C8 1DC1              xjmp L508
 18CA           X83:
 18CA           X78:
 18CA                   .dbline 365
 18CA                   .dbline 366
 18CA           ;       temps[i].flag=EEPROM_read(i+1,133);
 18CA 25E8              ldi R18,133
 18CC 30E0              ldi R19,0
 18CE 8A01              movw R16,R20
 18D0 0F5F              subi R16,255  ; offset = 1
 18D2 1F4F              sbci R17,255
 18D4 0E940000          xcall _EEPROM_read
 18D8 1801              movw R2,R16
 18DA 04E4              ldi R16,324
 18DC 11E0              ldi R17,1
 18DE 9A01              movw R18,R20
 18E0 0E940000          xcall empy16s
 18E4 80E0              ldi R24,<_temps
 18E6 90E0              ldi R25,>_temps
 18E8 F801              movw R30,R16
 18EA E80F              add R30,R24
 18EC F91F              adc R31,R25
 18EE 3182              std z+1,R3
 18F0 2082              std z+0,R2
 18F2                   .dbline 367
 18F2           ;         if(temps[i].flag==1 || temps[i].flag==3){
 18F2 04E4              ldi R16,324
 18F4 11E0              ldi R17,1
 18F6 9A01              movw R18,R20
 18F8 0E940000          xcall empy16s
 18FC 80E0              ldi R24,<_temps
 18FE 90E0              ldi R25,>_temps
 1900 F801              movw R30,R16
 1902 E80F              add R30,R24
 1904 F91F              adc R31,R25
 1906 6081              ldd R22,z+0
 1908 7181              ldd R23,z+1
 190A 6130              cpi R22,1
 190C E0E0              ldi R30,0
 190E 7E07              cpc R23,R30
 1910 29F0              breq L512
 1912           X79:
 1912 6330              cpi R22,3
 1914 E0E0              ldi R30,0
 1916 7E07              cpc R23,R30
 1918 09F0              breq X84
 191A D1C0              xjmp L510
 191C           X84:
 191C           X80:
 191C           L512:
 191C                   .dbline 367
 191C                   .dbline 368
 191C           ;           temps[i].status=EEPROM_read(i+1,134);
 191C 26E8              ldi R18,134
 191E 30E0              ldi R19,0
 1920 8A01              movw R16,R20
 1922 0F5F              subi R16,255  ; offset = 1
 1924 1F4F              sbci R17,255
 1926 0E940000          xcall _EEPROM_read
 192A 5801              movw R10,R16
 192C 04E4              ldi R16,324
 192E 11E0              ldi R17,1
 1930 9A01              movw R18,R20
 1932 0E940000          xcall empy16s
 1936 80E0              ldi R24,<_temps+266
 1938 90E0              ldi R25,>_temps+266
 193A F801              movw R30,R16
 193C E80F              add R30,R24
 193E F91F              adc R31,R25
 1940 B182              std z+1,R11
 1942 A082              std z+0,R10
 1944                   .dbline 369
 1944           ;           temps[i].needtime =EEPROM_read(i+1,135)<<8 | EEPROM_read(i+1,136);
 1944 27E8              ldi R18,135
 1946 30E0              ldi R19,0
 1948 8A01              movw R16,R20
 194A 0F5F              subi R16,255  ; offset = 1
 194C 1F4F              sbci R17,255
 194E 0E940000          xcall _EEPROM_read
 1952 6801              movw R12,R16
 1954 28E8              ldi R18,136
 1956 30E0              ldi R19,0
 1958 8A01              movw R16,R20
 195A 0F5F              subi R16,255  ; offset = 1
 195C 1F4F              sbci R17,255
 195E 0E940000          xcall _EEPROM_read
 1962 5801              movw R10,R16
 1964 04E4              ldi R16,324
 1966 11E0              ldi R17,1
 1968 9A01              movw R18,R20
 196A 0E940000          xcall empy16s
 196E 80E0              ldi R24,<_temps+268
 1970 90E0              ldi R25,>_temps+268
 1972 F801              movw R30,R16
 1974 E80F              add R30,R24
 1976 F91F              adc R31,R25
 1978 1601              movw R2,R12
 197A 322C              mov R3,R2
 197C 2224              clr R2
 197E 2A28              or R2,R10
 1980 3B28              or R3,R11
 1982 3182              std z+1,R3
 1984 2082              std z+0,R2
 1986                   .dbline 370
 1986           ;               temps[i].nowtime=EEPROM_read(i+1,137)<<8  | EEPROM_read(i+1,138);
 1986 29E8              ldi R18,137
 1988 30E0              ldi R19,0
 198A 8A01              movw R16,R20
 198C 0F5F              subi R16,255  ; offset = 1
 198E 1F4F              sbci R17,255
 1990 0E940000          xcall _EEPROM_read
 1994 6801              movw R12,R16
 1996 2AE8              ldi R18,138
 1998 30E0              ldi R19,0
 199A 8A01              movw R16,R20
 199C 0F5F              subi R16,255  ; offset = 1
 199E 1F4F              sbci R17,255
 19A0 0E940000          xcall _EEPROM_read
 19A4 5801              movw R10,R16
 19A6 04E4              ldi R16,324
 19A8 11E0              ldi R17,1
 19AA 9A01              movw R18,R20
 19AC 0E940000          xcall empy16s
 19B0 80E0              ldi R24,<_temps+270
 19B2 90E0              ldi R25,>_temps+270
 19B4 F801              movw R30,R16
 19B6 E80F              add R30,R24
 19B8 F91F              adc R31,R25
 19BA 1601              movw R2,R12
 19BC 322C              mov R3,R2
 19BE 2224              clr R2
 19C0 2A28              or R2,R10
 19C2 3B28              or R3,R11
 19C4 3182              std z+1,R3
 19C6 2082              std z+0,R2
 19C8                   .dbline 371
 19C8           ;           temps[i].pertime=EEPROM_read(i+1,139)<<8 | EEPROM_read(i+1,140);
 19C8 2BE8              ldi R18,139
 19CA 30E0              ldi R19,0
 19CC 8A01              movw R16,R20
 19CE 0F5F              subi R16,255  ; offset = 1
 19D0 1F4F              sbci R17,255
 19D2 0E940000          xcall _EEPROM_read
 19D6 6801              movw R12,R16
 19D8 2CE8              ldi R18,140
 19DA 30E0              ldi R19,0
 19DC 8A01              movw R16,R20
 19DE 0F5F              subi R16,255  ; offset = 1
 19E0 1F4F              sbci R17,255
 19E2 0E940000          xcall _EEPROM_read
 19E6 5801              movw R10,R16
 19E8 04E4              ldi R16,324
 19EA 11E0              ldi R17,1
 19EC 9A01              movw R18,R20
 19EE 0E940000          xcall empy16s
 19F2 80E0              ldi R24,<_temps+272
 19F4 90E0              ldi R25,>_temps+272
 19F6 F801              movw R30,R16
 19F8 E80F              add R30,R24
 19FA F91F              adc R31,R25
 19FC 1601              movw R2,R12
 19FE 322C              mov R3,R2
 1A00 2224              clr R2
 1A02 2A28              or R2,R10
 1A04 3B28              or R3,R11
 1A06 3182              std z+1,R3
 1A08 2082              std z+0,R2
 1A0A                   .dbline 372
 1A0A           ;           temps[i].statusflag=EEPROM_read(i+1,141);
 1A0A 2DE8              ldi R18,141
 1A0C 30E0              ldi R19,0
 1A0E 8A01              movw R16,R20
 1A10 0F5F              subi R16,255  ; offset = 1
 1A12 1F4F              sbci R17,255
 1A14 0E940000          xcall _EEPROM_read
 1A18 5801              movw R10,R16
 1A1A 04E4              ldi R16,324
 1A1C 11E0              ldi R17,1
 1A1E 9A01              movw R18,R20
 1A20 0E940000          xcall empy16s
 1A24 80E0              ldi R24,<_temps+276
 1A26 90E0              ldi R25,>_temps+276
 1A28 F801              movw R30,R16
 1A2A E80F              add R30,R24
 1A2C F91F              adc R31,R25
 1A2E B182              std z+1,R11
 1A30 A082              std z+0,R10
 1A32                   .dbline 373
 1A32           ;           temps[i].p_settemp=EEPROM_read(i+1,142)<<8  | EEPROM_read(i+1,143);
 1A32 2EE8              ldi R18,142
 1A34 30E0              ldi R19,0
 1A36 8A01              movw R16,R20
 1A38 0F5F              subi R16,255  ; offset = 1
 1A3A 1F4F              sbci R17,255
 1A3C 0E940000          xcall _EEPROM_read
 1A40 6801              movw R12,R16
 1A42 2FE8              ldi R18,143
 1A44 30E0              ldi R19,0
 1A46 8A01              movw R16,R20
 1A48 0F5F              subi R16,255  ; offset = 1
 1A4A 1F4F              sbci R17,255
 1A4C 0E940000          xcall _EEPROM_read
 1A50 5801              movw R10,R16
 1A52 04E4              ldi R16,324
 1A54 11E0              ldi R17,1
 1A56 9A01              movw R18,R20
 1A58 0E940000          xcall empy16s
 1A5C 80E0              ldi R24,<_temps+278
 1A5E 90E0              ldi R25,>_temps+278
 1A60 F801              movw R30,R16
 1A62 E80F              add R30,R24
 1A64 F91F              adc R31,R25
 1A66 1601              movw R2,R12
 1A68 322C              mov R3,R2
 1A6A 2224              clr R2
 1A6C 2A28              or R2,R10
 1A6E 3B28              or R3,R11
 1A70 3182              std z+1,R3
 1A72 2082              std z+0,R2
 1A74                   .dbline 374
 1A74           ;           temps[i].settemp=EEPROM_read(i+1,144)<<8 | EEPROM_read(i+1,145);
 1A74 20E9              ldi R18,144
 1A76 30E0              ldi R19,0
 1A78 8A01              movw R16,R20
 1A7A 0F5F              subi R16,255  ; offset = 1
 1A7C 1F4F              sbci R17,255
 1A7E 0E940000          xcall _EEPROM_read
 1A82 6801              movw R12,R16
 1A84 21E9              ldi R18,145
 1A86 30E0              ldi R19,0
 1A88 8A01              movw R16,R20
 1A8A 0F5F              subi R16,255  ; offset = 1
 1A8C 1F4F              sbci R17,255
 1A8E 0E940000          xcall _EEPROM_read
 1A92 5801              movw R10,R16
 1A94 04E4              ldi R16,324
 1A96 11E0              ldi R17,1
 1A98 9A01              movw R18,R20
 1A9A 0E940000          xcall empy16s
 1A9E 80E0              ldi R24,<_temps+288
 1AA0 90E0              ldi R25,>_temps+288
 1AA2 F801              movw R30,R16
 1AA4 E80F              add R30,R24
 1AA6 F91F              adc R31,R25
 1AA8 8601              movw R16,R12
 1AAA 102F              mov R17,R16
 1AAC 0027              clr R16
 1AAE 0A29              or R16,R10
 1AB0 1B29              or R17,R11
 1AB2 0E940000          xcall uint2fp
 1AB6 0083              std z+0,R16
 1AB8 1183              std z+1,R17
 1ABA 2283              std z+2,R18
 1ABC 3383              std z+3,R19
 1ABE                   .dbline 375
 1ABE           ;         }
 1ABE           L510:
 1ABE                   .dbline 376
 1ABE           ;         for(j=0;j<132;j++){
 1ABE 6627              clr R22
 1AC0 7727              clr R23
 1AC2 1CC0              xjmp L523
 1AC4           L520:
 1AC4                   .dbline 376
 1AC4                   .dbline 377
 1AC4           ;           temps[i].temp_data[j]=EEPROM_read(i+1,j+1);
 1AC4 9B01              movw R18,R22
 1AC6 2F5F              subi R18,255  ; offset = 1
 1AC8 3F4F              sbci R19,255
 1ACA 8A01              movw R16,R20
 1ACC 0F5F              subi R16,255  ; offset = 1
 1ACE 1F4F              sbci R17,255
 1AD0 0E940000          xcall _EEPROM_read
 1AD4 5801              movw R10,R16
 1AD6 04E4              ldi R16,324
 1AD8 11E0              ldi R17,1
 1ADA 9A01              movw R18,R20
 1ADC 0E940000          xcall empy16s
 1AE0 1801              movw R2,R16
 1AE2 80E0              ldi R24,<_temps+2
 1AE4 90E0              ldi R25,>_temps+2
 1AE6 280E              add R2,R24
 1AE8 391E              adc R3,R25
 1AEA FB01              movw R30,R22
 1AEC EE0F              lsl R30
 1AEE FF1F              rol R31
 1AF0 E20D              add R30,R2
 1AF2 F31D              adc R31,R3
 1AF4 B182              std z+1,R11
 1AF6 A082              std z+0,R10
 1AF8                   .dbline 378
 1AF8           ;          }
 1AF8           L521:
 1AF8                   .dbline 376
 1AF8 6F5F              subi R22,255  ; offset = 1
 1AFA 7F4F              sbci R23,255
 1AFC           L523:
 1AFC                   .dbline 376
 1AFC 6438              cpi R22,132
 1AFE E0E0              ldi R30,0
 1B00 7E07              cpc R23,R30
 1B02 00F3              brlo L520
 1B04           X81:
 1B04                   .dbline 379
 1B04           ;       }
 1B04           L508:
 1B04                   .dbline 380
 1B04           ;  } 
 1B04           L505:
 1B04                   .dbline 363
 1B04 4F5F              subi R20,255  ; offset = 1
 1B06 5F4F              sbci R21,255
 1B08           L507:
 1B08                   .dbline 363
 1B08 4430              cpi R20,4
 1B0A E0E0              ldi R30,0
 1B0C 5E07              cpc R21,R30
 1B0E 08F4              brsh X85
 1B10 CFCE              xjmp L504
 1B12           X85:
 1B12           X82:
 1B12                   .dbline -2
 1B12           L503:
 1B12                   .dbline 0 ; func end
 1B12 0C940000          xjmp pop_xgsetF03C
 1B16                   .dbsym r dataC 22 i
 1B16                   .dbsym r i 20 i
 1B16                   .dbsym r j 22 i
 1B16                   .dbend
 1B16                   .dbfunc e set_temp_data _set_temp_data fV
 1B16           ;              j -> R20,R21
 1B16           ;       dataCach -> R10,R11
 1B16           ;              t -> R22,R23
                        .even
 1B16           _set_temp_data::
 1B16 0E940000          xcall push_xgsetF00C
 1B1A 5901              movw R10,R18
 1B1C B801              movw R22,R16
 1B1E 2297              sbiw R28,2
 1B20                   .dbline -1
 1B20                   .dbline 384
 1B20           ; }
 1B20           ; 
 1B20           ; //设置指定的数据,保存相关标志位
 1B20           ; void set_temp_data(uint t,uint* dataCach){
 1B20                   .dbline 386
 1B20           ;     uint j;
 1B20           ;       temps[t].flag=6;
 1B20 04E4              ldi R16,324
 1B22 11E0              ldi R17,1
 1B24 9B01              movw R18,R22
 1B26 0E940000          xcall empy16s
 1B2A 80E0              ldi R24,<_temps
 1B2C 90E0              ldi R25,>_temps
 1B2E F801              movw R30,R16
 1B30 E80F              add R30,R24
 1B32 F91F              adc R31,R25
 1B34 86E0              ldi R24,6
 1B36 90E0              ldi R25,0
 1B38 9183              std z+1,R25
 1B3A 8083              std z+0,R24
 1B3C                   .dbline 387
 1B3C           ;       EEPROM_write(t+1,0,0x01);
 1B3C 81E0              ldi R24,1
 1B3E 9983              std y+1,R25
 1B40 8883              std y+0,R24
 1B42 2227              clr R18
 1B44 3327              clr R19
 1B46 8B01              movw R16,R22
 1B48 0F5F              subi R16,255  ; offset = 1
 1B4A 1F4F              sbci R17,255
 1B4C 0E940000          xcall _EEPROM_write
 1B50                   .dbline 388
 1B50           ;       EEPROM_write(t+1,133,6);
 1B50 86E0              ldi R24,6
 1B52 90E0              ldi R25,0
 1B54 9983              std y+1,R25
 1B56 8883              std y+0,R24
 1B58 25E8              ldi R18,133
 1B5A 30E0              ldi R19,0
 1B5C 8B01              movw R16,R22
 1B5E 0F5F              subi R16,255  ; offset = 1
 1B60 1F4F              sbci R17,255
 1B62 0E940000          xcall _EEPROM_write
 1B66                   .dbline 389
 1B66           ;     for(j=0;j<132;j++){
 1B66 4427              clr R20
 1B68 5527              clr R21
 1B6A 35C0              xjmp L529
 1B6C           L526:
 1B6C                   .dbline 389
 1B6C                   .dbline 390
 1B6C           ;          temps[t].temp_data[j]=*(dataCach+j);
 1B6C 1A01              movw R2,R20
 1B6E 220C              lsl R2
 1B70 331C              rol R3
 1B72 2101              movw R4,R2
 1B74 04E4              ldi R16,324
 1B76 11E0              ldi R17,1
 1B78 9B01              movw R18,R22
 1B7A 0E940000          xcall empy16s
 1B7E 1801              movw R2,R16
 1B80 80E0              ldi R24,<_temps+2
 1B82 90E0              ldi R25,>_temps+2
 1B84 280E              add R2,R24
 1B86 391E              adc R3,R25
 1B88 F201              movw R30,R4
 1B8A E20D              add R30,R2
 1B8C F31D              adc R31,R3
 1B8E D201              movw R26,R4
 1B90 AA0D              add R26,R10
 1B92 BB1D              adc R27,R11
 1B94 2D90              ld R2,x+
 1B96 3C90              ld R3,x
 1B98 3182              std z+1,R3
 1B9A 2082              std z+0,R2
 1B9C                   .dbline 391
 1B9C           ;          EEPROM_write(t+1,j+1,temps[t].temp_data[j]);//这里要保存的
 1B9C 04E4              ldi R16,324
 1B9E 11E0              ldi R17,1
 1BA0 9B01              movw R18,R22
 1BA2 0E940000          xcall empy16s
 1BA6 1801              movw R2,R16
 1BA8 80E0              ldi R24,<_temps+2
 1BAA 90E0              ldi R25,>_temps+2
 1BAC 280E              add R2,R24
 1BAE 391E              adc R3,R25
 1BB0 FA01              movw R30,R20
 1BB2 EE0F              lsl R30
 1BB4 FF1F              rol R31
 1BB6 E20D              add R30,R2
 1BB8 F31D              adc R31,R3
 1BBA 2080              ldd R2,z+0
 1BBC 3180              ldd R3,z+1
 1BBE 3982              std y+1,R3
 1BC0 2882              std y+0,R2
 1BC2 9A01              movw R18,R20
 1BC4 2F5F              subi R18,255  ; offset = 1
 1BC6 3F4F              sbci R19,255
 1BC8 8B01              movw R16,R22
 1BCA 0F5F              subi R16,255  ; offset = 1
 1BCC 1F4F              sbci R17,255
 1BCE 0E940000          xcall _EEPROM_write
 1BD2                   .dbline 392
 1BD2           ;       }
 1BD2           L527:
 1BD2                   .dbline 389
 1BD2 4F5F              subi R20,255  ; offset = 1
 1BD4 5F4F              sbci R21,255
 1BD6           L529:
 1BD6                   .dbline 389
 1BD6 4438              cpi R20,132
 1BD8 E0E0              ldi R30,0
 1BDA 5E07              cpc R21,R30
 1BDC 08F4              brsh X87
 1BDE C6CF              xjmp L526
 1BE0           X87:
 1BE0           X86:
 1BE0                   .dbline -2
 1BE0           L525:
 1BE0                   .dbline 0 ; func end
 1BE0 2296              adiw R28,2
 1BE2 0C940000          xjmp pop_xgsetF00C
 1BE6                   .dbsym r j 20 i
 1BE6                   .dbsym r dataCach 10 pi
 1BE6                   .dbsym r t 22 i
 1BE6                   .dbend
 1BE6                   .dbfunc e reset_temp_data _reset_temp_data fV
 1BE6           ;              j -> R22,R23
 1BE6           ;              t -> R20,R21
                        .even
 1BE6           _reset_temp_data::
 1BE6 0E940000          xcall push_xgsetF000
 1BEA A801              movw R20,R16
 1BEC 2297              sbiw R28,2
 1BEE                   .dbline -1
 1BEE                   .dbline 396
 1BEE           ; }
 1BEE           ; 
 1BEE           ; //重置指定的数据,保存相关标志位
 1BEE           ; void reset_temp_data(uint t){
 1BEE                   .dbline 398
 1BEE           ;     uint j;
 1BEE           ;       temps[t].flag=0;
 1BEE 04E4              ldi R16,324
 1BF0 11E0              ldi R17,1
 1BF2 9A01              movw R18,R20
 1BF4 0E940000          xcall empy16s
 1BF8 80E0              ldi R24,<_temps
 1BFA 90E0              ldi R25,>_temps
 1BFC F801              movw R30,R16
 1BFE E80F              add R30,R24
 1C00 F91F              adc R31,R25
 1C02 2224              clr R2
 1C04 3324              clr R3
 1C06 3182              std z+1,R3
 1C08 2082              std z+0,R2
 1C0A                   .dbline 399
 1C0A           ;       temps[t].status=0;
 1C0A 04E4              ldi R16,324
 1C0C 11E0              ldi R17,1
 1C0E 9A01              movw R18,R20
 1C10 0E940000          xcall empy16s
 1C14 80E0              ldi R24,<_temps+266
 1C16 90E0              ldi R25,>_temps+266
 1C18 F801              movw R30,R16
 1C1A E80F              add R30,R24
 1C1C F91F              adc R31,R25
 1C1E 2224              clr R2
 1C20 3324              clr R3
 1C22 3182              std z+1,R3
 1C24 2082              std z+0,R2
 1C26                   .dbline 400
 1C26           ;       temps[t].statusflag=1;//是否第一次进入当前状态,1、第一次；0、不是第一次
 1C26 04E4              ldi R16,324
 1C28 11E0              ldi R17,1
 1C2A 9A01              movw R18,R20
 1C2C 0E940000          xcall empy16s
 1C30 80E0              ldi R24,<_temps+276
 1C32 90E0              ldi R25,>_temps+276
 1C34 F801              movw R30,R16
 1C36 E80F              add R30,R24
 1C38 F91F              adc R31,R25
 1C3A 81E0              ldi R24,1
 1C3C 90E0              ldi R25,0
 1C3E 9183              std z+1,R25
 1C40 8083              std z+0,R24
 1C42                   .dbline 402
 1C42           ;               //控制相关
 1C42           ;       temps[t].p_settemp=0;//升温时候的小阶段需要温度
 1C42 04E4              ldi R16,324
 1C44 11E0              ldi R17,1
 1C46 9A01              movw R18,R20
 1C48 0E940000          xcall empy16s
 1C4C 80E0              ldi R24,<_temps+278
 1C4E 90E0              ldi R25,>_temps+278
 1C50 F801              movw R30,R16
 1C52 E80F              add R30,R24
 1C54 F91F              adc R31,R25
 1C56 2224              clr R2
 1C58 3324              clr R3
 1C5A 3182              std z+1,R3
 1C5C 2082              std z+0,R2
 1C5E                   .dbline 403
 1C5E           ;       temps[t].p_err_next=0;//升温阶段控制使用
 1C5E 04E4              ldi R16,324
 1C60 11E0              ldi R17,1
 1C62 9A01              movw R18,R20
 1C64 0E940000          xcall empy16s
 1C68 80E0              ldi R24,<_temps+280
 1C6A 90E0              ldi R25,>_temps+280
 1C6C F801              movw R30,R16
 1C6E E80F              add R30,R24
 1C70 F91F              adc R31,R25
 1C72 2224              clr R2
 1C74 3324              clr R3
 1C76 3182              std z+1,R3
 1C78 2082              std z+0,R2
 1C7A                   .dbline 404
 1C7A           ;     temps[t].p_err_last=0;
 1C7A 04E4              ldi R16,324
 1C7C 11E0              ldi R17,1
 1C7E 9A01              movw R18,R20
 1C80 0E940000          xcall empy16s
 1C84 80E0              ldi R24,<_temps+286
 1C86 90E0              ldi R25,>_temps+286
 1C88 F801              movw R30,R16
 1C8A E80F              add R30,R24
 1C8C F91F              adc R31,R25
 1C8E 2224              clr R2
 1C90 3324              clr R3
 1C92 3182              std z+1,R3
 1C94 2082              std z+0,R2
 1C96                   .dbline 405
 1C96           ;        temps[t].err_last=0;
 1C96 04E4              ldi R16,324
 1C98 11E0              ldi R17,1
 1C9A 9A01              movw R18,R20
 1C9C 0E940000          xcall empy16s
 1CA0 80E0              ldi R24,<_temps+300
 1CA2 90E0              ldi R25,>_temps+300
 1CA4 F801              movw R30,R16
 1CA6 E80F              add R30,R24
 1CA8 F91F              adc R31,R25
 1CAA 00E0              ldi R16,<L493
 1CAC 10E0              ldi R17,>L493
 1CAE 0E940000          xcall elpm32
 1CB2 0083              std z+0,R16
 1CB4 1183              std z+1,R17
 1CB6 2283              std z+2,R18
 1CB8 3383              std z+3,R19
 1CBA                   .dbline 406
 1CBA           ;        temps[t].err_next=0;
 1CBA 04E4              ldi R16,324
 1CBC 11E0              ldi R17,1
 1CBE 9A01              movw R18,R20
 1CC0 0E940000          xcall empy16s
 1CC4 80E0              ldi R24,<_temps+304
 1CC6 90E0              ldi R25,>_temps+304
 1CC8 F801              movw R30,R16
 1CCA E80F              add R30,R24
 1CCC F91F              adc R31,R25
 1CCE 00E0              ldi R16,<L493
 1CD0 10E0              ldi R17,>L493
 1CD2 0E940000          xcall elpm32
 1CD6 0083              std z+0,R16
 1CD8 1183              std z+1,R17
 1CDA 2283              std z+2,R18
 1CDC 3383              std z+3,R19
 1CDE                   .dbline 408
 1CDE           ;       
 1CDE           ;       EEPROM_write(t+1,0,0x00);
 1CDE 2224              clr R2
 1CE0 3324              clr R3
 1CE2 3982              std y+1,R3
 1CE4 2882              std y+0,R2
 1CE6 2227              clr R18
 1CE8 3327              clr R19
 1CEA 8A01              movw R16,R20
 1CEC 0F5F              subi R16,255  ; offset = 1
 1CEE 1F4F              sbci R17,255
 1CF0 0E940000          xcall _EEPROM_write
 1CF4                   .dbline 409
 1CF4           ;       EEPROM_write(t+1,133,0x00);
 1CF4 2224              clr R2
 1CF6 3324              clr R3
 1CF8 3982              std y+1,R3
 1CFA 2882              std y+0,R2
 1CFC 25E8              ldi R18,133
 1CFE 30E0              ldi R19,0
 1D00 8A01              movw R16,R20
 1D02 0F5F              subi R16,255  ; offset = 1
 1D04 1F4F              sbci R17,255
 1D06 0E940000          xcall _EEPROM_write
 1D0A                   .dbline 410
 1D0A           ;     for(j=0;j<132;j++){
 1D0A 6627              clr R22
 1D0C 7727              clr R23
 1D0E 1FC0              xjmp L543
 1D10           L540:
 1D10                   .dbline 410
 1D10                   .dbline 411
 1D10           ;          temps[t].temp_data[j]=0;
 1D10 04E4              ldi R16,324
 1D12 11E0              ldi R17,1
 1D14 9A01              movw R18,R20
 1D16 0E940000          xcall empy16s
 1D1A 1801              movw R2,R16
 1D1C 80E0              ldi R24,<_temps+2
 1D1E 90E0              ldi R25,>_temps+2
 1D20 280E              add R2,R24
 1D22 391E              adc R3,R25
 1D24 FB01              movw R30,R22
 1D26 EE0F              lsl R30
 1D28 FF1F              rol R31
 1D2A E20D              add R30,R2
 1D2C F31D              adc R31,R3
 1D2E 2224              clr R2
 1D30 3324              clr R3
 1D32 3182              std z+1,R3
 1D34 2082              std z+0,R2
 1D36                   .dbline 412
 1D36           ;          EEPROM_write(t+1,j+1,0);//这里要保存的
 1D36 3982              std y+1,R3
 1D38 2882              std y+0,R2
 1D3A 9B01              movw R18,R22
 1D3C 2F5F              subi R18,255  ; offset = 1
 1D3E 3F4F              sbci R19,255
 1D40 8A01              movw R16,R20
 1D42 0F5F              subi R16,255  ; offset = 1
 1D44 1F4F              sbci R17,255
 1D46 0E940000          xcall _EEPROM_write
 1D4A                   .dbline 413
 1D4A           ;       }
 1D4A           L541:
 1D4A                   .dbline 410
 1D4A 6F5F              subi R22,255  ; offset = 1
 1D4C 7F4F              sbci R23,255
 1D4E           L543:
 1D4E                   .dbline 410
 1D4E 6438              cpi R22,132
 1D50 E0E0              ldi R30,0
 1D52 7E07              cpc R23,R30
 1D54 E8F2              brlo L540
 1D56           X88:
 1D56                   .dbline 414
 1D56           ;        EEPROM_write(t+1,134,0);
 1D56 2224              clr R2
 1D58 3324              clr R3
 1D5A 3982              std y+1,R3
 1D5C 2882              std y+0,R2
 1D5E 26E8              ldi R18,134
 1D60 30E0              ldi R19,0
 1D62 8A01              movw R16,R20
 1D64 0F5F              subi R16,255  ; offset = 1
 1D66 1F4F              sbci R17,255
 1D68 0E940000          xcall _EEPROM_write
 1D6C                   .dbline 415
 1D6C           ;        EEPROM_write(t+1,135,0);
 1D6C 2224              clr R2
 1D6E 3324              clr R3
 1D70 3982              std y+1,R3
 1D72 2882              std y+0,R2
 1D74 27E8              ldi R18,135
 1D76 30E0              ldi R19,0
 1D78 8A01              movw R16,R20
 1D7A 0F5F              subi R16,255  ; offset = 1
 1D7C 1F4F              sbci R17,255
 1D7E 0E940000          xcall _EEPROM_write
 1D82                   .dbline 416
 1D82           ;        EEPROM_write(t+1,136,0);
 1D82 2224              clr R2
 1D84 3324              clr R3
 1D86 3982              std y+1,R3
 1D88 2882              std y+0,R2
 1D8A 28E8              ldi R18,136
 1D8C 30E0              ldi R19,0
 1D8E 8A01              movw R16,R20
 1D90 0F5F              subi R16,255  ; offset = 1
 1D92 1F4F              sbci R17,255
 1D94 0E940000          xcall _EEPROM_write
 1D98                   .dbline 417
 1D98           ;        EEPROM_write(t+1,137,0);
 1D98 2224              clr R2
 1D9A 3324              clr R3
 1D9C 3982              std y+1,R3
 1D9E 2882              std y+0,R2
 1DA0 29E8              ldi R18,137
 1DA2 30E0              ldi R19,0
 1DA4 8A01              movw R16,R20
 1DA6 0F5F              subi R16,255  ; offset = 1
 1DA8 1F4F              sbci R17,255
 1DAA 0E940000          xcall _EEPROM_write
 1DAE                   .dbline 418
 1DAE           ;        EEPROM_write(t+1,138,0);
 1DAE 2224              clr R2
 1DB0 3324              clr R3
 1DB2 3982              std y+1,R3
 1DB4 2882              std y+0,R2
 1DB6 2AE8              ldi R18,138
 1DB8 30E0              ldi R19,0
 1DBA 8A01              movw R16,R20
 1DBC 0F5F              subi R16,255  ; offset = 1
 1DBE 1F4F              sbci R17,255
 1DC0 0E940000          xcall _EEPROM_write
 1DC4                   .dbline 419
 1DC4           ;        EEPROM_write(t+1,139,0);
 1DC4 2224              clr R2
 1DC6 3324              clr R3
 1DC8 3982              std y+1,R3
 1DCA 2882              std y+0,R2
 1DCC 2BE8              ldi R18,139
 1DCE 30E0              ldi R19,0
 1DD0 8A01              movw R16,R20
 1DD2 0F5F              subi R16,255  ; offset = 1
 1DD4 1F4F              sbci R17,255
 1DD6 0E940000          xcall _EEPROM_write
 1DDA                   .dbline 420
 1DDA           ;        EEPROM_write(t+1,140,0);
 1DDA 2224              clr R2
 1DDC 3324              clr R3
 1DDE 3982              std y+1,R3
 1DE0 2882              std y+0,R2
 1DE2 2CE8              ldi R18,140
 1DE4 30E0              ldi R19,0
 1DE6 8A01              movw R16,R20
 1DE8 0F5F              subi R16,255  ; offset = 1
 1DEA 1F4F              sbci R17,255
 1DEC 0E940000          xcall _EEPROM_write
 1DF0                   .dbline 421
 1DF0           ;        EEPROM_write(t+1,141,0);
 1DF0 2224              clr R2
 1DF2 3324              clr R3
 1DF4 3982              std y+1,R3
 1DF6 2882              std y+0,R2
 1DF8 2DE8              ldi R18,141
 1DFA 30E0              ldi R19,0
 1DFC 8A01              movw R16,R20
 1DFE 0F5F              subi R16,255  ; offset = 1
 1E00 1F4F              sbci R17,255
 1E02 0E940000          xcall _EEPROM_write
 1E06                   .dbline 422
 1E06           ;        EEPROM_write(t+1,142,0);
 1E06 2224              clr R2
 1E08 3324              clr R3
 1E0A 3982              std y+1,R3
 1E0C 2882              std y+0,R2
 1E0E 2EE8              ldi R18,142
 1E10 30E0              ldi R19,0
 1E12 8A01              movw R16,R20
 1E14 0F5F              subi R16,255  ; offset = 1
 1E16 1F4F              sbci R17,255
 1E18 0E940000          xcall _EEPROM_write
 1E1C                   .dbline 423
 1E1C           ;        EEPROM_write(t+1,143,0);
 1E1C 2224              clr R2
 1E1E 3324              clr R3
 1E20 3982              std y+1,R3
 1E22 2882              std y+0,R2
 1E24 2FE8              ldi R18,143
 1E26 30E0              ldi R19,0
 1E28 8A01              movw R16,R20
 1E2A 0F5F              subi R16,255  ; offset = 1
 1E2C 1F4F              sbci R17,255
 1E2E 0E940000          xcall _EEPROM_write
 1E32                   .dbline 424
 1E32           ;        EEPROM_write(t+1,144,0);
 1E32 2224              clr R2
 1E34 3324              clr R3
 1E36 3982              std y+1,R3
 1E38 2882              std y+0,R2
 1E3A 20E9              ldi R18,144
 1E3C 30E0              ldi R19,0
 1E3E 8A01              movw R16,R20
 1E40 0F5F              subi R16,255  ; offset = 1
 1E42 1F4F              sbci R17,255
 1E44 0E940000          xcall _EEPROM_write
 1E48                   .dbline 425
 1E48           ;        EEPROM_write(t+1,145,0);
 1E48 2224              clr R2
 1E4A 3324              clr R3
 1E4C 3982              std y+1,R3
 1E4E 2882              std y+0,R2
 1E50 21E9              ldi R18,145
 1E52 30E0              ldi R19,0
 1E54 8A01              movw R16,R20
 1E56 0F5F              subi R16,255  ; offset = 1
 1E58 1F4F              sbci R17,255
 1E5A 0E940000          xcall _EEPROM_write
 1E5E                   .dbline -2
 1E5E           L532:
 1E5E                   .dbline 0 ; func end
 1E5E 2296              adiw R28,2
 1E60 0C940000          xjmp pop_xgsetF000
 1E64                   .dbsym r j 22 i
 1E64                   .dbsym r t 20 i
 1E64                   .dbend
 1E64                   .dbfunc e set_all_start _set_all_start fV
 1E64           ;              j -> R20,R21
                        .even
 1E64           _set_all_start::
 1E64 4A93              st -y,R20
 1E66 5A93              st -y,R21
 1E68                   .dbline -1
 1E68                   .dbline 428
 1E68           ; }
 1E68           ; //温度全部开始工作。状态为停止和刚重置数据的可以开始
 1E68           ; void set_all_start(void){
 1E68                   .dbline 431
 1E68           ;     uint j;
 1E68           ;       
 1E68           ;     for(j=0;j<4;j++){
 1E68 4427              clr R20
 1E6A 5527              clr R21
 1E6C 3FC0              xjmp L549
 1E6E           L546:
 1E6E                   .dbline 431
 1E6E                   .dbline 432
 1E6E           ;           if(temps[j].flag==3){
 1E6E 04E4              ldi R16,324
 1E70 11E0              ldi R17,1
 1E72 9A01              movw R18,R20
 1E74 0E940000          xcall empy16s
 1E78 80E0              ldi R24,<_temps
 1E7A 90E0              ldi R25,>_temps
 1E7C F801              movw R30,R16
 1E7E E80F              add R30,R24
 1E80 F91F              adc R31,R25
 1E82 8081              ldd R24,z+0
 1E84 9181              ldd R25,z+1
 1E86 8330              cpi R24,3
 1E88 E0E0              ldi R30,0
 1E8A 9E07              cpc R25,R30
 1E8C 79F4              brne L550
 1E8E           X89:
 1E8E                   .dbline 432
 1E8E                   .dbline 433
 1E8E           ;                  temps[j].flag=1;
 1E8E 04E4              ldi R16,324
 1E90 11E0              ldi R17,1
 1E92 9A01              movw R18,R20
 1E94 0E940000          xcall empy16s
 1E98 80E0              ldi R24,<_temps
 1E9A 90E0              ldi R25,>_temps
 1E9C F801              movw R30,R16
 1E9E E80F              add R30,R24
 1EA0 F91F              adc R31,R25
 1EA2 81E0              ldi R24,1
 1EA4 90E0              ldi R25,0
 1EA6 9183              std z+1,R25
 1EA8 8083              std z+0,R24
 1EAA                   .dbline 434
 1EAA           ;             }else if(temps[j].flag==6){
 1EAA 1EC0              xjmp L551
 1EAC           L550:
 1EAC                   .dbline 434
 1EAC 04E4              ldi R16,324
 1EAE 11E0              ldi R17,1
 1EB0 9A01              movw R18,R20
 1EB2 0E940000          xcall empy16s
 1EB6 80E0              ldi R24,<_temps
 1EB8 90E0              ldi R25,>_temps
 1EBA F801              movw R30,R16
 1EBC E80F              add R30,R24
 1EBE F91F              adc R31,R25
 1EC0 8081              ldd R24,z+0
 1EC2 9181              ldd R25,z+1
 1EC4 8630              cpi R24,6
 1EC6 E0E0              ldi R30,0
 1EC8 9E07              cpc R25,R30
 1ECA 71F4              brne L552
 1ECC           X90:
 1ECC                   .dbline 434
 1ECC                   .dbline 435
 1ECC           ;                    temps[j].flag=5;
 1ECC 04E4              ldi R16,324
 1ECE 11E0              ldi R17,1
 1ED0 9A01              movw R18,R20
 1ED2 0E940000          xcall empy16s
 1ED6 80E0              ldi R24,<_temps
 1ED8 90E0              ldi R25,>_temps
 1EDA F801              movw R30,R16
 1EDC E80F              add R30,R24
 1EDE F91F              adc R31,R25
 1EE0 85E0              ldi R24,5
 1EE2 90E0              ldi R25,0
 1EE4 9183              std z+1,R25
 1EE6 8083              std z+0,R24
 1EE8                   .dbline 437
 1EE8           ; 
 1EE8           ;             }
 1EE8           L552:
 1EE8           L551:
 1EE8                   .dbline 438
 1EE8           ;       }
 1EE8           L547:
 1EE8                   .dbline 431
 1EE8 4F5F              subi R20,255  ; offset = 1
 1EEA 5F4F              sbci R21,255
 1EEC           L549:
 1EEC                   .dbline 431
 1EEC 4430              cpi R20,4
 1EEE E0E0              ldi R30,0
 1EF0 5E07              cpc R21,R30
 1EF2 08F4              brsh X92
 1EF4 BCCF              xjmp L546
 1EF6           X92:
 1EF6           X91:
 1EF6                   .dbline -2
 1EF6           L545:
 1EF6                   .dbline 0 ; func end
 1EF6 5991              ld R21,y+
 1EF8 4991              ld R20,y+
 1EFA 0895              ret
 1EFC                   .dbsym r j 20 i
 1EFC                   .dbend
 1EFC                   .dbfunc e set_all_stop _set_all_stop fV
 1EFC           ;              j -> R20,R21
                        .even
 1EFC           _set_all_stop::
 1EFC 4A93              st -y,R20
 1EFE 5A93              st -y,R21
 1F00                   .dbline -1
 1F00                   .dbline 441
 1F00           ; }
 1F00           ; //温度全部暂停.要运行的才会暂停。。关闭输出
 1F00           ; void set_all_stop(void){
 1F00                   .dbline 444
 1F00           ;     uint j;
 1F00           ;       
 1F00           ;     for(j=0;j<4;j++){
 1F00 4427              clr R20
 1F02 5527              clr R21
 1F04 25C0              xjmp L558
 1F06           L555:
 1F06                   .dbline 444
 1F06                   .dbline 445
 1F06           ;         if(temps[j].flag==1 || temps[j].flag==5){
 1F06 04E4              ldi R16,324
 1F08 11E0              ldi R17,1
 1F0A 9A01              movw R18,R20
 1F0C 0E940000          xcall empy16s
 1F10 80E0              ldi R24,<_temps
 1F12 90E0              ldi R25,>_temps
 1F14 F801              movw R30,R16
 1F16 E80F              add R30,R24
 1F18 F91F              adc R31,R25
 1F1A 2080              ldd R2,z+0
 1F1C 3180              ldd R3,z+1
 1F1E C101              movw R24,R2
 1F20 8130              cpi R24,1
 1F22 E0E0              ldi R30,0
 1F24 9E07              cpc R25,R30
 1F26 21F0              breq L561
 1F28           X93:
 1F28 8530              cpi R24,5
 1F2A E0E0              ldi R30,0
 1F2C 9E07              cpc R25,R30
 1F2E 71F4              brne L559
 1F30           X94:
 1F30           L561:
 1F30                   .dbline 445
 1F30                   .dbline 446
 1F30           ;            temps[j].flag=3;
 1F30 04E4              ldi R16,324
 1F32 11E0              ldi R17,1
 1F34 9A01              movw R18,R20
 1F36 0E940000          xcall empy16s
 1F3A 80E0              ldi R24,<_temps
 1F3C 90E0              ldi R25,>_temps
 1F3E F801              movw R30,R16
 1F40 E80F              add R30,R24
 1F42 F91F              adc R31,R25
 1F44 83E0              ldi R24,3
 1F46 90E0              ldi R25,0
 1F48 9183              std z+1,R25
 1F4A 8083              std z+0,R24
 1F4C                   .dbline 448
 1F4C           ;               //  EEPROM_write(j+1,133,3);
 1F4C           ;          }
 1F4C           L559:
 1F4C                   .dbline 449
 1F4C           ;       }
 1F4C           L556:
 1F4C                   .dbline 444
 1F4C 4F5F              subi R20,255  ; offset = 1
 1F4E 5F4F              sbci R21,255
 1F50           L558:
 1F50                   .dbline 444
 1F50 4430              cpi R20,4
 1F52 E0E0              ldi R30,0
 1F54 5E07              cpc R21,R30
 1F56 B8F2              brlo L555
 1F58           X95:
 1F58                   .dbline -2
 1F58           L554:
 1F58                   .dbline 0 ; func end
 1F58 5991              ld R21,y+
 1F5A 4991              ld R20,y+
 1F5C 0895              ret
 1F5E                   .dbsym r j 20 i
 1F5E                   .dbend
 1F5E                   .dbfunc e set_start _set_start fV
 1F5E           ;              t -> R10,R11
                        .even
 1F5E           _set_start::
 1F5E AA92              st -y,R10
 1F60 BA92              st -y,R11
 1F62 5801              movw R10,R16
 1F64                   .dbline -1
 1F64                   .dbline 452
 1F64           ; }
 1F64           ; //指定温度开始,预备
 1F64           ; void set_start(uint t){
 1F64                   .dbline 453
 1F64           ;   if(temps[t].flag==3){
 1F64 04E4              ldi R16,324
 1F66 11E0              ldi R17,1
 1F68 9501              movw R18,R10
 1F6A 0E940000          xcall empy16s
 1F6E 80E0              ldi R24,<_temps
 1F70 90E0              ldi R25,>_temps
 1F72 F801              movw R30,R16
 1F74 E80F              add R30,R24
 1F76 F91F              adc R31,R25
 1F78 8081              ldd R24,z+0
 1F7A 9181              ldd R25,z+1
 1F7C 8330              cpi R24,3
 1F7E E0E0              ldi R30,0
 1F80 9E07              cpc R25,R30
 1F82 79F4              brne L563
 1F84           X96:
 1F84                   .dbline 453
 1F84                   .dbline 454
 1F84           ;            temps[t].flag=1;
 1F84 04E4              ldi R16,324
 1F86 11E0              ldi R17,1
 1F88 9501              movw R18,R10
 1F8A 0E940000          xcall empy16s
 1F8E 80E0              ldi R24,<_temps
 1F90 90E0              ldi R25,>_temps
 1F92 F801              movw R30,R16
 1F94 E80F              add R30,R24
 1F96 F91F              adc R31,R25
 1F98 81E0              ldi R24,1
 1F9A 90E0              ldi R25,0
 1F9C 9183              std z+1,R25
 1F9E 8083              std z+0,R24
 1FA0                   .dbline 456
 1FA0           ;               ///  EEPROM_write(t+1,133,5);
 1FA0           ;       }else if(temps[t].flag==6){
 1FA0 3DC0              xjmp L564
 1FA2           L563:
 1FA2                   .dbline 456
 1FA2 04E4              ldi R16,324
 1FA4 11E0              ldi R17,1
 1FA6 9501              movw R18,R10
 1FA8 0E940000          xcall empy16s
 1FAC 80E0              ldi R24,<_temps
 1FAE 90E0              ldi R25,>_temps
 1FB0 F801              movw R30,R16
 1FB2 E80F              add R30,R24
 1FB4 F91F              adc R31,R25
 1FB6 8081              ldd R24,z+0
 1FB8 9181              ldd R25,z+1
 1FBA 8630              cpi R24,6
 1FBC E0E0              ldi R30,0
 1FBE 9E07              cpc R25,R30
 1FC0 79F4              brne L565
 1FC2           X97:
 1FC2                   .dbline 456
 1FC2                   .dbline 457
 1FC2           ;            temps[t].flag=5;
 1FC2 04E4              ldi R16,324
 1FC4 11E0              ldi R17,1
 1FC6 9501              movw R18,R10
 1FC8 0E940000          xcall empy16s
 1FCC 80E0              ldi R24,<_temps
 1FCE 90E0              ldi R25,>_temps
 1FD0 F801              movw R30,R16
 1FD2 E80F              add R30,R24
 1FD4 F91F              adc R31,R25
 1FD6 85E0              ldi R24,5
 1FD8 90E0              ldi R25,0
 1FDA 9183              std z+1,R25
 1FDC 8083              std z+0,R24
 1FDE                   .dbline 459
 1FDE           ;               ///  EEPROM_write(t+1,133,5);
 1FDE           ;       }else if(temps[t].flag==4){
 1FDE 1EC0              xjmp L566
 1FE0           L565:
 1FE0                   .dbline 459
 1FE0 04E4              ldi R16,324
 1FE2 11E0              ldi R17,1
 1FE4 9501              movw R18,R10
 1FE6 0E940000          xcall empy16s
 1FEA 80E0              ldi R24,<_temps
 1FEC 90E0              ldi R25,>_temps
 1FEE F801              movw R30,R16
 1FF0 E80F              add R30,R24
 1FF2 F91F              adc R31,R25
 1FF4 8081              ldd R24,z+0
 1FF6 9181              ldd R25,z+1
 1FF8 8430              cpi R24,4
 1FFA E0E0              ldi R30,0
 1FFC 9E07              cpc R25,R30
 1FFE 71F4              brne L567
 2000           X98:
 2000                   .dbline 459
 2000                   .dbline 460
 2000           ;            temps[t].flag=5;
 2000 04E4              ldi R16,324
 2002 11E0              ldi R17,1
 2004 9501              movw R18,R10
 2006 0E940000          xcall empy16s
 200A 80E0              ldi R24,<_temps
 200C 90E0              ldi R25,>_temps
 200E F801              movw R30,R16
 2010 E80F              add R30,R24
 2012 F91F              adc R31,R25
 2014 85E0              ldi R24,5
 2016 90E0              ldi R25,0
 2018 9183              std z+1,R25
 201A 8083              std z+0,R24
 201C                   .dbline 462
 201C           ;               ///  EEPROM_write(t+1,133,5);
 201C           ;       }
 201C           L567:
 201C           L566:
 201C           L564:
 201C                   .dbline -2
 201C           L562:
 201C                   .dbline 0 ; func end
 201C B990              ld R11,y+
 201E A990              ld R10,y+
 2020 0895              ret
 2022                   .dbsym r t 10 i
 2022                   .dbend
 2022                   .dbfunc e set_stop _set_stop fV
 2022           ;              t -> R10,R11
                        .even
 2022           _set_stop::
 2022 AA92              st -y,R10
 2024 BA92              st -y,R11
 2026 5801              movw R10,R16
 2028                   .dbline -1
 2028                   .dbline 466
 2028           ; }
 2028           ; 
 2028           ; //指定温度暂停。关闭输出
 2028           ; void set_stop(uint t){
 2028                   .dbline 467
 2028           ;  if(temps[t].flag==1 || temps[t].flag==5){
 2028 04E4              ldi R16,324
 202A 11E0              ldi R17,1
 202C 9501              movw R18,R10
 202E 0E940000          xcall empy16s
 2032 80E0              ldi R24,<_temps
 2034 90E0              ldi R25,>_temps
 2036 F801              movw R30,R16
 2038 E80F              add R30,R24
 203A F91F              adc R31,R25
 203C 2080              ldd R2,z+0
 203E 3180              ldd R3,z+1
 2040 C101              movw R24,R2
 2042 8130              cpi R24,1
 2044 E0E0              ldi R30,0
 2046 9E07              cpc R25,R30
 2048 21F0              breq L572
 204A           X99:
 204A 8530              cpi R24,5
 204C E0E0              ldi R30,0
 204E 9E07              cpc R25,R30
 2050 71F4              brne L570
 2052           X100:
 2052           L572:
 2052                   .dbline 467
 2052                   .dbline 468
 2052           ;            temps[t].flag=3;
 2052 04E4              ldi R16,324
 2054 11E0              ldi R17,1
 2056 9501              movw R18,R10
 2058 0E940000          xcall empy16s
 205C 80E0              ldi R24,<_temps
 205E 90E0              ldi R25,>_temps
 2060 F801              movw R30,R16
 2062 E80F              add R30,R24
 2064 F91F              adc R31,R25
 2066 83E0              ldi R24,3
 2068 90E0              ldi R25,0
 206A 9183              std z+1,R25
 206C 8083              std z+0,R24
 206E                   .dbline 470
 206E           ;               // EEPROM_write(t+1,133,3);
 206E           ;          }
 206E           L570:
 206E                   .dbline -2
 206E           L569:
 206E                   .dbline 0 ; func end
 206E B990              ld R11,y+
 2070 A990              ld R10,y+
 2072 0895              ret
 2074                   .dbsym r t 10 i
 2074                   .dbend
 2074                   .dbfunc e PID_realize _PID_realize fV
 2074           ;         temp_n -> R10,R11
                        .even
 2074           _PID_realize::
 2074 0E940000          xcall push_xgsetF03C
 2078 5801              movw R10,R16
 207A                   .dbline -1
 207A                   .dbline 480
 207A           ; }
 207A           ; /***********************************************************************
 207A           ; * 函数功能：  PID计算
 207A           ; * 参      数：        读入的温度
 207A           ; * 返 回  值： 无      改变incrementtemp的值，输出函数获得这个值然后输出
 207A           ; * 备     注： 
 207A           ; **1
 207A           ; **********************************************************************/
 207A           ; void PID_realize(uint temp_n)
 207A           ; {
 207A                   .dbline 481
 207A           ;    temps[temp_n].err=temps[temp_n].settemp-temps[temp_n].actualtemp;//这两个都在结构体中
 207A 04E4              ldi R16,324
 207C 11E0              ldi R17,1
 207E 9501              movw R18,R10
 2080 0E940000          xcall empy16s
 2084 2801              movw R4,R16
 2086 80E0              ldi R24,<_temps+288
 2088 90E0              ldi R25,>_temps+288
 208A F201              movw R30,R4
 208C E80F              add R30,R24
 208E F91F              adc R31,R25
 2090 0081              ldd R16,z+0
 2092 1181              ldd R17,z+1
 2094 2281              ldd R18,z+2
 2096 3381              ldd R19,z+3
 2098 80E0              ldi R24,<_temps+292
 209A 90E0              ldi R25,>_temps+292
 209C 1201              movw R2,R4
 209E 280E              add R2,R24
 20A0 391E              adc R3,R25
 20A2 3A92              st -y,R3
 20A4 2A92              st -y,R2
 20A6 0E940000          xcall fpsub1
 20AA 80E0              ldi R24,<_temps+296
 20AC 90E0              ldi R25,>_temps+296
 20AE F201              movw R30,R4
 20B0 E80F              add R30,R24
 20B2 F91F              adc R31,R25
 20B4 0083              std z+0,R16
 20B6 1183              std z+1,R17
 20B8 2283              std z+2,R18
 20BA 3383              std z+3,R19
 20BC                   .dbline 482
 20BC           ;    temps[temp_n].incrementtemp=temps[temp_n].Kp*(temps[temp_n].err-temps[temp_n].err_next)+temps[temp_n].Ki*temps[temp_n].err+temps[temp_n].Kd*(temps[temp_n].err-2*temps[temp_n].err_next+temps[temp_n].err_last);
 20BC 04E4              ldi R16,324
 20BE 11E0              ldi R17,1
 20C0 9501              movw R18,R10
 20C2 0E940000          xcall empy16s
 20C6 D801              movw R26,R16
 20C8 80E0              ldi R24,<_temps+308
 20CA 90E0              ldi R25,>_temps+308
 20CC FD01              movw R30,R26
 20CE E80F              add R30,R24
 20D0 F91F              adc R31,R25
 20D2 2080              ldd R2,z+0
 20D4 3180              ldd R3,z+1
 20D6 4280              ldd R4,z+2
 20D8 5380              ldd R5,z+3
 20DA 80E0              ldi R24,<_temps+296
 20DC 90E0              ldi R25,>_temps+296
 20DE FD01              movw R30,R26
 20E0 E80F              add R30,R24
 20E2 F91F              adc R31,R25
 20E4 0081              ldd R16,z+0
 20E6 1181              ldd R17,z+1
 20E8 2281              ldd R18,z+2
 20EA 3381              ldd R19,z+3
 20EC 80E0              ldi R24,<_temps+304
 20EE 90E0              ldi R25,>_temps+304
 20F0 3D01              movw R6,R26
 20F2 680E              add R6,R24
 20F4 791E              adc R7,R25
 20F6 7A92              st -y,R7
 20F8 6A92              st -y,R6
 20FA 0E940000          xcall fpsub1x
 20FE 8101              movw R16,R2
 2100 9201              movw R18,R4
 2102 0E940000          xcall fpmule2
 2106 1801              movw R2,R16
 2108 2901              movw R4,R18
 210A 80E0              ldi R24,<_temps+312
 210C 90E0              ldi R25,>_temps+312
 210E FD01              movw R30,R26
 2110 E80F              add R30,R24
 2112 F91F              adc R31,R25
 2114 0081              ldd R16,z+0
 2116 1181              ldd R17,z+1
 2118 2281              ldd R18,z+2
 211A 3381              ldd R19,z+3
 211C 80E0              ldi R24,<_temps+296
 211E 90E0              ldi R25,>_temps+296
 2120 3D01              movw R6,R26
 2122 680E              add R6,R24
 2124 791E              adc R7,R25
 2126 7A92              st -y,R7
 2128 6A92              st -y,R6
 212A 0E940000          xcall fpmule1x
 212E 8101              movw R16,R2
 2130 9201              movw R18,R4
 2132 0E940000          xcall fpadd2
 2136 1801              movw R2,R16
 2138 2901              movw R4,R18
 213A 80E0              ldi R24,<_temps+316
 213C 90E0              ldi R25,>_temps+316
 213E FD01              movw R30,R26
 2140 E80F              add R30,R24
 2142 F91F              adc R31,R25
 2144 6080              ldd R6,z+0
 2146 7180              ldd R7,z+1
 2148 8280              ldd R8,z+2
 214A 9380              ldd R9,z+3
 214C 80E0              ldi R24,<_temps+296
 214E 90E0              ldi R25,>_temps+296
 2150 FD01              movw R30,R26
 2152 E80F              add R30,R24
 2154 F91F              adc R31,R25
 2156 4081              ldd R20,z+0
 2158 5181              ldd R21,z+1
 215A 6281              ldd R22,z+2
 215C 7381              ldd R23,z+3
 215E 00E0              ldi R16,<L587
 2160 10E0              ldi R17,>L587
 2162 0E940000          xcall elpm32
 2166 80E0              ldi R24,<_temps+304
 2168 90E0              ldi R25,>_temps+304
 216A FD01              movw R30,R26
 216C E80F              add R30,R24
 216E F91F              adc R31,R25
 2170 FA93              st -y,R31
 2172 EA93              st -y,R30
 2174 0E940000          xcall fpmule1x
 2178 8A01              movw R16,R20
 217A 9B01              movw R18,R22
 217C 0E940000          xcall fpsub2
 2180 80E0              ldi R24,<_temps+300
 2182 90E0              ldi R25,>_temps+300
 2184 FD01              movw R30,R26
 2186 E80F              add R30,R24
 2188 F91F              adc R31,R25
 218A FA93              st -y,R31
 218C EA93              st -y,R30
 218E 0E940000          xcall fpadd1x
 2192 8301              movw R16,R6
 2194 9401              movw R18,R8
 2196 0E940000          xcall fpmule2x
 219A 8101              movw R16,R2
 219C 9201              movw R18,R4
 219E 0E940000          xcall fpadd2
 21A2 80E0              ldi R24,<_temps+320
 21A4 90E0              ldi R25,>_temps+320
 21A6 FD01              movw R30,R26
 21A8 E80F              add R30,R24
 21AA F91F              adc R31,R25
 21AC 0083              std z+0,R16
 21AE 1183              std z+1,R17
 21B0 2283              std z+2,R18
 21B2 3383              std z+3,R19
 21B4                   .dbline 483
 21B4           ;    temps[temp_n].err_last=temps[temp_n].err_next;
 21B4 04E4              ldi R16,324
 21B6 11E0              ldi R17,1
 21B8 9501              movw R18,R10
 21BA 0E940000          xcall empy16s
 21BE 6801              movw R12,R16
 21C0 80E0              ldi R24,<_temps+304
 21C2 90E0              ldi R25,>_temps+304
 21C4 F601              movw R30,R12
 21C6 E80F              add R30,R24
 21C8 F91F              adc R31,R25
 21CA 2080              ldd R2,z+0
 21CC 3180              ldd R3,z+1
 21CE 4280              ldd R4,z+2
 21D0 5380              ldd R5,z+3
 21D2 80E0              ldi R24,<_temps+300
 21D4 90E0              ldi R25,>_temps+300
 21D6 F601              movw R30,R12
 21D8 E80F              add R30,R24
 21DA F91F              adc R31,R25
 21DC 2082              std z+0,R2
 21DE 3182              std z+1,R3
 21E0 4282              std z+2,R4
 21E2 5382              std z+3,R5
 21E4                   .dbline 484
 21E4           ;    temps[temp_n].err_next=temps[temp_n].err;
 21E4 04E4              ldi R16,324
 21E6 11E0              ldi R17,1
 21E8 9501              movw R18,R10
 21EA 0E940000          xcall empy16s
 21EE 6801              movw R12,R16
 21F0 80E0              ldi R24,<_temps+296
 21F2 90E0              ldi R25,>_temps+296
 21F4 F601              movw R30,R12
 21F6 E80F              add R30,R24
 21F8 F91F              adc R31,R25
 21FA 2080              ldd R2,z+0
 21FC 3180              ldd R3,z+1
 21FE 4280              ldd R4,z+2
 2200 5380              ldd R5,z+3
 2202 80E0              ldi R24,<_temps+304
 2204 90E0              ldi R25,>_temps+304
 2206 F601              movw R30,R12
 2208 E80F              add R30,R24
 220A F91F              adc R31,R25
 220C 2082              std z+0,R2
 220E 3182              std z+1,R3
 2210 4282              std z+2,R4
 2212 5382              std z+3,R5
 2214                   .dbline 485
 2214           ;    temps[temp_n].incrementtemp=temps[temp_n].incrementtemp/2;
 2214 04E4              ldi R16,324
 2216 11E0              ldi R17,1
 2218 9501              movw R18,R10
 221A 0E940000          xcall empy16s
 221E 5801              movw R10,R16
 2220 80E0              ldi R24,<_temps+320
 2222 90E0              ldi R25,>_temps+320
 2224 F501              movw R30,R10
 2226 E80F              add R30,R24
 2228 F91F              adc R31,R25
 222A 2080              ldd R2,z+0
 222C 3180              ldd R3,z+1
 222E 4280              ldd R4,z+2
 2230 5380              ldd R5,z+3
 2232 00E0              ldi R16,<L587
 2234 10E0              ldi R17,>L587
 2236 0E940000          xcall elpm32
 223A 3A93              st -y,R19
 223C 2A93              st -y,R18
 223E 1A93              st -y,R17
 2240 0A93              st -y,R16
 2242 8101              movw R16,R2
 2244 9201              movw R18,R4
 2246 0E940000          xcall fpdiv2
 224A 80E0              ldi R24,<_temps+320
 224C 90E0              ldi R25,>_temps+320
 224E F501              movw R30,R10
 2250 E80F              add R30,R24
 2252 F91F              adc R31,R25
 2254 0083              std z+0,R16
 2256 1183              std z+1,R17
 2258 2283              std z+2,R18
 225A 3383              std z+3,R19
 225C                   .dbline -2
 225C           L573:
 225C                   .dbline 0 ; func end
 225C 0C940000          xjmp pop_xgsetF03C
 2260                   .dbsym r temp_n 10 i
 2260                   .dbend
 2260                   .dbfunc e PI_realize _PI_realize fV
 2260           ;         temp_n -> R10,R11
                        .even
 2260           _PI_realize::
 2260 0E940000          xcall push_xgset003C
 2264 5801              movw R10,R16
 2266                   .dbline -1
 2266                   .dbline 488
 2266           ; }
 2266           ; void PI_realize(uint temp_n)
 2266           ; {
 2266                   .dbline 489
 2266           ;    temps[temp_n].err=temps[temp_n].p_settemp-temps[temp_n].actualtemp;//这两个都在结构体中
 2266 04E4              ldi R16,324
 2268 11E0              ldi R17,1
 226A 9501              movw R18,R10
 226C 0E940000          xcall empy16s
 2270 2801              movw R4,R16
 2272 80E0              ldi R24,<_temps+278
 2274 90E0              ldi R25,>_temps+278
 2276 F201              movw R30,R4
 2278 E80F              add R30,R24
 227A F91F              adc R31,R25
 227C 0081              ldd R16,z+0
 227E 1181              ldd R17,z+1
 2280 0E940000          xcall uint2fp
 2284 80E0              ldi R24,<_temps+292
 2286 90E0              ldi R25,>_temps+292
 2288 1201              movw R2,R4
 228A 280E              add R2,R24
 228C 391E              adc R3,R25
 228E 3A92              st -y,R3
 2290 2A92              st -y,R2
 2292 0E940000          xcall fpsub1
 2296 80E0              ldi R24,<_temps+296
 2298 90E0              ldi R25,>_temps+296
 229A F201              movw R30,R4
 229C E80F              add R30,R24
 229E F91F              adc R31,R25
 22A0 0083              std z+0,R16
 22A2 1183              std z+1,R17
 22A4 2283              std z+2,R18
 22A6 3383              std z+3,R19
 22A8                   .dbline 490
 22A8           ;    temps[temp_n].incrementtemp=temps[temp_n].p_Kp*(temps[temp_n].err-temps[temp_n].p_err_next)+temps[temp_n].p_Ki*temps[temp_n].err;
 22A8 04E4              ldi R16,324
 22AA 11E0              ldi R17,1
 22AC 9501              movw R18,R10
 22AE 0E940000          xcall empy16s
 22B2 D801              movw R26,R16
 22B4 80E0              ldi R24,<_temps+282
 22B6 90E0              ldi R25,>_temps+282
 22B8 FD01              movw R30,R26
 22BA E80F              add R30,R24
 22BC F91F              adc R31,R25
 22BE 0081              ldd R16,z+0
 22C0 1181              ldd R17,z+1
 22C2 0E940000          xcall uint2fp
 22C6 1801              movw R2,R16
 22C8 2901              movw R4,R18
 22CA 80E0              ldi R24,<_temps+296
 22CC 90E0              ldi R25,>_temps+296
 22CE FD01              movw R30,R26
 22D0 E80F              add R30,R24
 22D2 F91F              adc R31,R25
 22D4 6080              ldd R6,z+0
 22D6 7180              ldd R7,z+1
 22D8 8280              ldd R8,z+2
 22DA 9380              ldd R9,z+3
 22DC 80E0              ldi R24,<_temps+280
 22DE 90E0              ldi R25,>_temps+280
 22E0 FD01              movw R30,R26
 22E2 E80F              add R30,R24
 22E4 F91F              adc R31,R25
 22E6 0081              ldd R16,z+0
 22E8 1181              ldd R17,z+1
 22EA 0E940000          xcall uint2fp
 22EE 3A93              st -y,R19
 22F0 2A93              st -y,R18
 22F2 1A93              st -y,R17
 22F4 0A93              st -y,R16
 22F6 8301              movw R16,R6
 22F8 9401              movw R18,R8
 22FA 0E940000          xcall fpsub2x
 22FE 8101              movw R16,R2
 2300 9201              movw R18,R4
 2302 0E940000          xcall fpmule2
 2306 1801              movw R2,R16
 2308 2901              movw R4,R18
 230A 80E0              ldi R24,<_temps+284
 230C 90E0              ldi R25,>_temps+284
 230E FD01              movw R30,R26
 2310 E80F              add R30,R24
 2312 F91F              adc R31,R25
 2314 0081              ldd R16,z+0
 2316 1181              ldd R17,z+1
 2318 0E940000          xcall uint2fp
 231C 80E0              ldi R24,<_temps+296
 231E 90E0              ldi R25,>_temps+296
 2320 3D01              movw R6,R26
 2322 680E              add R6,R24
 2324 791E              adc R7,R25
 2326 7A92              st -y,R7
 2328 6A92              st -y,R6
 232A 0E940000          xcall fpmule1x
 232E 8101              movw R16,R2
 2330 9201              movw R18,R4
 2332 0E940000          xcall fpadd2
 2336 80E0              ldi R24,<_temps+320
 2338 90E0              ldi R25,>_temps+320
 233A FD01              movw R30,R26
 233C E80F              add R30,R24
 233E F91F              adc R31,R25
 2340 0083              std z+0,R16
 2342 1183              std z+1,R17
 2344 2283              std z+2,R18
 2346 3383              std z+3,R19
 2348                   .dbline 491
 2348           ;    temps[temp_n].p_err_last=temps[temp_n].p_err_next;
 2348 04E4              ldi R16,324
 234A 11E0              ldi R17,1
 234C 9501              movw R18,R10
 234E 0E940000          xcall empy16s
 2352 6801              movw R12,R16
 2354 80E0              ldi R24,<_temps+280
 2356 90E0              ldi R25,>_temps+280
 2358 F601              movw R30,R12
 235A E80F              add R30,R24
 235C F91F              adc R31,R25
 235E 2080              ldd R2,z+0
 2360 3180              ldd R3,z+1
 2362 80E0              ldi R24,<_temps+286
 2364 90E0              ldi R25,>_temps+286
 2366 F601              movw R30,R12
 2368 E80F              add R30,R24
 236A F91F              adc R31,R25
 236C 3182              std z+1,R3
 236E 2082              std z+0,R2
 2370                   .dbline 492
 2370           ;    temps[temp_n].p_err_next=temps[temp_n].err;
 2370 04E4              ldi R16,324
 2372 11E0              ldi R17,1
 2374 9501              movw R18,R10
 2376 0E940000          xcall empy16s
 237A 6801              movw R12,R16
 237C 80E0              ldi R24,<_temps+296
 237E 90E0              ldi R25,>_temps+296
 2380 F601              movw R30,R12
 2382 E80F              add R30,R24
 2384 F91F              adc R31,R25
 2386 0081              ldd R16,z+0
 2388 1181              ldd R17,z+1
 238A 2281              ldd R18,z+2
 238C 3381              ldd R19,z+3
 238E 0E940000          xcall fpint
 2392 80E0              ldi R24,<_temps+280
 2394 90E0              ldi R25,>_temps+280
 2396 F601              movw R30,R12
 2398 E80F              add R30,R24
 239A F91F              adc R31,R25
 239C 1183              std z+1,R17
 239E 0083              std z+0,R16
 23A0                   .dbline 493
 23A0           ;    temps[temp_n].incrementtemp=temps[temp_n].incrementtemp/2;
 23A0 04E4              ldi R16,324
 23A2 11E0              ldi R17,1
 23A4 9501              movw R18,R10
 23A6 0E940000          xcall empy16s
 23AA 5801              movw R10,R16
 23AC 80E0              ldi R24,<_temps+320
 23AE 90E0              ldi R25,>_temps+320
 23B0 F501              movw R30,R10
 23B2 E80F              add R30,R24
 23B4 F91F              adc R31,R25
 23B6 2080              ldd R2,z+0
 23B8 3180              ldd R3,z+1
 23BA 4280              ldd R4,z+2
 23BC 5380              ldd R5,z+3
 23BE 00E0              ldi R16,<L587
 23C0 10E0              ldi R17,>L587
 23C2 0E940000          xcall elpm32
 23C6 3A93              st -y,R19
 23C8 2A93              st -y,R18
 23CA 1A93              st -y,R17
 23CC 0A93              st -y,R16
 23CE 8101              movw R16,R2
 23D0 9201              movw R18,R4
 23D2 0E940000          xcall fpdiv2
 23D6 80E0              ldi R24,<_temps+320
 23D8 90E0              ldi R25,>_temps+320
 23DA F501              movw R30,R10
 23DC E80F              add R30,R24
 23DE F91F              adc R31,R25
 23E0 0083              std z+0,R16
 23E2 1183              std z+1,R17
 23E4 2283              std z+2,R18
 23E6 3383              std z+3,R19
 23E8                   .dbline -2
 23E8           L594:
 23E8                   .dbline 0 ; func end
 23E8 0C940000          xjmp pop_xgset003C
 23EC                   .dbsym r temp_n 10 i
 23EC                   .dbend
                        .area bss(ram, con, rel)
 0000                   .dbfile E:\ICCDemo\Temp_Control\temp_control\temp.c
 0000           _second::
 0000                   .blkb 2
 0002                   .dbsym e second _second i
                        .area lit(rom, con, rel)
 0000           L587:
 0000 00000040          .word 0x0,0x4000
 0004           L502:
 0004 0000C841          .word 0x0,0x41c8
 0008           L493:
 0008 00000000          .word 0x0,0x0
 000C           L457:
 000C 00002041          .word 0x0,0x4120
 0010           ; }
